
SM_S928_UB_CTC_10MR.elf:     file format elf32-littlearm

Sections:
Idx Name          Size      VMA       LMA       File off  Algn
  0 .isr_vector   00000198  08008000  08008000  00008000  2**0
                  CONTENTS, ALLOC, LOAD, READONLY, DATA
  1 .text         00009538  080081a0  080081a0  000081a0  2**4
                  CONTENTS, ALLOC, LOAD, READONLY, CODE
  2 .rodata       00001284  080116d8  080116d8  000116d8  2**3
                  CONTENTS, ALLOC, LOAD, READONLY, DATA
  3 .ARM          00000008  0801295c  0801295c  0001295c  2**2
                  CONTENTS, ALLOC, LOAD, READONLY, DATA
  4 .init_array   00000004  08012964  08012964  00012964  2**2
                  CONTENTS, ALLOC, LOAD, DATA
  5 .fini_array   00000004  08012968  08012968  00012968  2**2
                  CONTENTS, ALLOC, LOAD, DATA
  6 .data         00001780  20000000  0801296c  00020000  2**2
                  CONTENTS, ALLOC, LOAD, DATA
  7 .bss          000058a4  20001780  080140ec  00021780  2**2
                  ALLOC
  8 ._user_heap_stack 00001200  20007024  080140ec  00027024  2**0
                  ALLOC
  9 .ARM.attributes 00000030  00000000  00000000  00021780  2**0
                  CONTENTS, READONLY
 10 .debug_info   0001b25d  00000000  00000000  000217b0  2**0
                  CONTENTS, READONLY, DEBUGGING
 11 .debug_abbrev 0000348f  00000000  00000000  0003ca0d  2**0
                  CONTENTS, READONLY, DEBUGGING
 12 .debug_aranges 00000b68  00000000  00000000  0003fea0  2**3
                  CONTENTS, READONLY, DEBUGGING
 13 .debug_ranges 00000e70  00000000  00000000  00040a08  2**3
                  CONTENTS, READONLY, DEBUGGING
 14 .debug_line   0000727b  00000000  00000000  00041878  2**0
                  CONTENTS, READONLY, DEBUGGING
 15 .debug_str    0000437f  00000000  00000000  00048af3  2**0
                  CONTENTS, READONLY, DEBUGGING
 16 .comment      0000007c  00000000  00000000  0004ce72  2**0
                  CONTENTS, READONLY
 17 .debug_frame  00003164  00000000  00000000  0004cef0  2**2
                  CONTENTS, READONLY, DEBUGGING
 18 .debug_loc    000058e0  00000000  00000000  00050054  2**0
                  CONTENTS, READONLY, DEBUGGING

Disassembly of section .text:

080081a0 <__do_global_dtors_aux>:
 80081a0:	b510      	push	{r4, lr}
 80081a2:	4c05      	ldr	r4, [pc, #20]	; (80081b8 <__do_global_dtors_aux+0x18>)
 80081a4:	7823      	ldrb	r3, [r4, #0]
 80081a6:	b933      	cbnz	r3, 80081b6 <__do_global_dtors_aux+0x16>
 80081a8:	4b04      	ldr	r3, [pc, #16]	; (80081bc <__do_global_dtors_aux+0x1c>)
 80081aa:	b113      	cbz	r3, 80081b2 <__do_global_dtors_aux+0x12>
 80081ac:	4804      	ldr	r0, [pc, #16]	; (80081c0 <__do_global_dtors_aux+0x20>)
 80081ae:	f3af 8000 	nop.w
 80081b2:	2301      	movs	r3, #1
 80081b4:	7023      	strb	r3, [r4, #0]
 80081b6:	bd10      	pop	{r4, pc}
 80081b8:	20001780 	.word	0x20001780
 80081bc:	00000000 	.word	0x00000000
 80081c0:	080116c0 	.word	0x080116c0

080081c4 <frame_dummy>:
 80081c4:	b508      	push	{r3, lr}
 80081c6:	4b03      	ldr	r3, [pc, #12]	; (80081d4 <frame_dummy+0x10>)
 80081c8:	b11b      	cbz	r3, 80081d2 <frame_dummy+0xe>
 80081ca:	4903      	ldr	r1, [pc, #12]	; (80081d8 <frame_dummy+0x14>)
 80081cc:	4803      	ldr	r0, [pc, #12]	; (80081dc <frame_dummy+0x18>)
 80081ce:	f3af 8000 	nop.w
 80081d2:	bd08      	pop	{r3, pc}
 80081d4:	00000000 	.word	0x00000000
 80081d8:	20001784 	.word	0x20001784
 80081dc:	080116c0 	.word	0x080116c0

080081e0 <strlen>:
 80081e0:	4603      	mov	r3, r0
 80081e2:	f813 2b01 	ldrb.w	r2, [r3], #1
 80081e6:	2a00      	cmp	r2, #0
 80081e8:	d1fb      	bne.n	80081e2 <strlen+0x2>
 80081ea:	1a18      	subs	r0, r3, r0
 80081ec:	3801      	subs	r0, #1
 80081ee:	4770      	bx	lr

080081f0 <memchr>:
 80081f0:	f001 01ff 	and.w	r1, r1, #255	; 0xff
 80081f4:	2a10      	cmp	r2, #16
 80081f6:	db2b      	blt.n	8008250 <memchr+0x60>
 80081f8:	f010 0f07 	tst.w	r0, #7
 80081fc:	d008      	beq.n	8008210 <memchr+0x20>
 80081fe:	f810 3b01 	ldrb.w	r3, [r0], #1
 8008202:	3a01      	subs	r2, #1
 8008204:	428b      	cmp	r3, r1
 8008206:	d02d      	beq.n	8008264 <memchr+0x74>
 8008208:	f010 0f07 	tst.w	r0, #7
 800820c:	b342      	cbz	r2, 8008260 <memchr+0x70>
 800820e:	d1f6      	bne.n	80081fe <memchr+0xe>
 8008210:	b4f0      	push	{r4, r5, r6, r7}
 8008212:	ea41 2101 	orr.w	r1, r1, r1, lsl #8
 8008216:	ea41 4101 	orr.w	r1, r1, r1, lsl #16
 800821a:	f022 0407 	bic.w	r4, r2, #7
 800821e:	f07f 0700 	mvns.w	r7, #0
 8008222:	2300      	movs	r3, #0
 8008224:	e8f0 5602 	ldrd	r5, r6, [r0], #8
 8008228:	3c08      	subs	r4, #8
 800822a:	ea85 0501 	eor.w	r5, r5, r1
 800822e:	ea86 0601 	eor.w	r6, r6, r1
 8008232:	fa85 f547 	uadd8	r5, r5, r7
 8008236:	faa3 f587 	sel	r5, r3, r7
 800823a:	fa86 f647 	uadd8	r6, r6, r7
 800823e:	faa5 f687 	sel	r6, r5, r7
 8008242:	b98e      	cbnz	r6, 8008268 <memchr+0x78>
 8008244:	d1ee      	bne.n	8008224 <memchr+0x34>
 8008246:	bcf0      	pop	{r4, r5, r6, r7}
 8008248:	f001 01ff 	and.w	r1, r1, #255	; 0xff
 800824c:	f002 0207 	and.w	r2, r2, #7
 8008250:	b132      	cbz	r2, 8008260 <memchr+0x70>
 8008252:	f810 3b01 	ldrb.w	r3, [r0], #1
 8008256:	3a01      	subs	r2, #1
 8008258:	ea83 0301 	eor.w	r3, r3, r1
 800825c:	b113      	cbz	r3, 8008264 <memchr+0x74>
 800825e:	d1f8      	bne.n	8008252 <memchr+0x62>
 8008260:	2000      	movs	r0, #0
 8008262:	4770      	bx	lr
 8008264:	3801      	subs	r0, #1
 8008266:	4770      	bx	lr
 8008268:	2d00      	cmp	r5, #0
 800826a:	bf06      	itte	eq
 800826c:	4635      	moveq	r5, r6
 800826e:	3803      	subeq	r0, #3
 8008270:	3807      	subne	r0, #7
 8008272:	f015 0f01 	tst.w	r5, #1
 8008276:	d107      	bne.n	8008288 <memchr+0x98>
 8008278:	3001      	adds	r0, #1
 800827a:	f415 7f80 	tst.w	r5, #256	; 0x100
 800827e:	bf02      	ittt	eq
 8008280:	3001      	addeq	r0, #1
 8008282:	f415 3fc0 	tsteq.w	r5, #98304	; 0x18000
 8008286:	3001      	addeq	r0, #1
 8008288:	bcf0      	pop	{r4, r5, r6, r7}
 800828a:	3801      	subs	r0, #1
 800828c:	4770      	bx	lr
 800828e:	bf00      	nop

08008290 <__aeabi_drsub>:
 8008290:	f081 4100 	eor.w	r1, r1, #2147483648	; 0x80000000
 8008294:	e002      	b.n	800829c <__adddf3>
 8008296:	bf00      	nop

08008298 <__aeabi_dsub>:
 8008298:	f083 4300 	eor.w	r3, r3, #2147483648	; 0x80000000

0800829c <__adddf3>:
 800829c:	b530      	push	{r4, r5, lr}
 800829e:	ea4f 0441 	mov.w	r4, r1, lsl #1
 80082a2:	ea4f 0543 	mov.w	r5, r3, lsl #1
 80082a6:	ea94 0f05 	teq	r4, r5
 80082aa:	bf08      	it	eq
 80082ac:	ea90 0f02 	teqeq	r0, r2
 80082b0:	bf1f      	itttt	ne
 80082b2:	ea54 0c00 	orrsne.w	ip, r4, r0
 80082b6:	ea55 0c02 	orrsne.w	ip, r5, r2
 80082ba:	ea7f 5c64 	mvnsne.w	ip, r4, asr #21
 80082be:	ea7f 5c65 	mvnsne.w	ip, r5, asr #21
 80082c2:	f000 80e2 	beq.w	800848a <__adddf3+0x1ee>
 80082c6:	ea4f 5454 	mov.w	r4, r4, lsr #21
 80082ca:	ebd4 5555 	rsbs	r5, r4, r5, lsr #21
 80082ce:	bfb8      	it	lt
 80082d0:	426d      	neglt	r5, r5
 80082d2:	dd0c      	ble.n	80082ee <__adddf3+0x52>
 80082d4:	442c      	add	r4, r5
 80082d6:	ea80 0202 	eor.w	r2, r0, r2
 80082da:	ea81 0303 	eor.w	r3, r1, r3
 80082de:	ea82 0000 	eor.w	r0, r2, r0
 80082e2:	ea83 0101 	eor.w	r1, r3, r1
 80082e6:	ea80 0202 	eor.w	r2, r0, r2
 80082ea:	ea81 0303 	eor.w	r3, r1, r3
 80082ee:	2d36      	cmp	r5, #54	; 0x36
 80082f0:	bf88      	it	hi
 80082f2:	bd30      	pophi	{r4, r5, pc}
 80082f4:	f011 4f00 	tst.w	r1, #2147483648	; 0x80000000
 80082f8:	ea4f 3101 	mov.w	r1, r1, lsl #12
 80082fc:	f44f 1c80 	mov.w	ip, #1048576	; 0x100000
 8008300:	ea4c 3111 	orr.w	r1, ip, r1, lsr #12
 8008304:	d002      	beq.n	800830c <__adddf3+0x70>
 8008306:	4240      	negs	r0, r0
 8008308:	eb61 0141 	sbc.w	r1, r1, r1, lsl #1
 800830c:	f013 4f00 	tst.w	r3, #2147483648	; 0x80000000
 8008310:	ea4f 3303 	mov.w	r3, r3, lsl #12
 8008314:	ea4c 3313 	orr.w	r3, ip, r3, lsr #12
 8008318:	d002      	beq.n	8008320 <__adddf3+0x84>
 800831a:	4252      	negs	r2, r2
 800831c:	eb63 0343 	sbc.w	r3, r3, r3, lsl #1
 8008320:	ea94 0f05 	teq	r4, r5
 8008324:	f000 80a7 	beq.w	8008476 <__adddf3+0x1da>
 8008328:	f1a4 0401 	sub.w	r4, r4, #1
 800832c:	f1d5 0e20 	rsbs	lr, r5, #32
 8008330:	db0d      	blt.n	800834e <__adddf3+0xb2>
 8008332:	fa02 fc0e 	lsl.w	ip, r2, lr
 8008336:	fa22 f205 	lsr.w	r2, r2, r5
 800833a:	1880      	adds	r0, r0, r2
 800833c:	f141 0100 	adc.w	r1, r1, #0
 8008340:	fa03 f20e 	lsl.w	r2, r3, lr
 8008344:	1880      	adds	r0, r0, r2
 8008346:	fa43 f305 	asr.w	r3, r3, r5
 800834a:	4159      	adcs	r1, r3
 800834c:	e00e      	b.n	800836c <__adddf3+0xd0>
 800834e:	f1a5 0520 	sub.w	r5, r5, #32
 8008352:	f10e 0e20 	add.w	lr, lr, #32
 8008356:	2a01      	cmp	r2, #1
 8008358:	fa03 fc0e 	lsl.w	ip, r3, lr
 800835c:	bf28      	it	cs
 800835e:	f04c 0c02 	orrcs.w	ip, ip, #2
 8008362:	fa43 f305 	asr.w	r3, r3, r5
 8008366:	18c0      	adds	r0, r0, r3
 8008368:	eb51 71e3 	adcs.w	r1, r1, r3, asr #31
 800836c:	f001 4500 	and.w	r5, r1, #2147483648	; 0x80000000
 8008370:	d507      	bpl.n	8008382 <__adddf3+0xe6>
 8008372:	f04f 0e00 	mov.w	lr, #0
 8008376:	f1dc 0c00 	rsbs	ip, ip, #0
 800837a:	eb7e 0000 	sbcs.w	r0, lr, r0
 800837e:	eb6e 0101 	sbc.w	r1, lr, r1
 8008382:	f5b1 1f80 	cmp.w	r1, #1048576	; 0x100000
 8008386:	d31b      	bcc.n	80083c0 <__adddf3+0x124>
 8008388:	f5b1 1f00 	cmp.w	r1, #2097152	; 0x200000
 800838c:	d30c      	bcc.n	80083a8 <__adddf3+0x10c>
 800838e:	0849      	lsrs	r1, r1, #1
 8008390:	ea5f 0030 	movs.w	r0, r0, rrx
 8008394:	ea4f 0c3c 	mov.w	ip, ip, rrx
 8008398:	f104 0401 	add.w	r4, r4, #1
 800839c:	ea4f 5244 	mov.w	r2, r4, lsl #21
 80083a0:	f512 0f80 	cmn.w	r2, #4194304	; 0x400000
 80083a4:	f080 809a 	bcs.w	80084dc <__adddf3+0x240>
 80083a8:	f1bc 4f00 	cmp.w	ip, #2147483648	; 0x80000000
 80083ac:	bf08      	it	eq
 80083ae:	ea5f 0c50 	movseq.w	ip, r0, lsr #1
 80083b2:	f150 0000 	adcs.w	r0, r0, #0
 80083b6:	eb41 5104 	adc.w	r1, r1, r4, lsl #20
 80083ba:	ea41 0105 	orr.w	r1, r1, r5
 80083be:	bd30      	pop	{r4, r5, pc}
 80083c0:	ea5f 0c4c 	movs.w	ip, ip, lsl #1
 80083c4:	4140      	adcs	r0, r0
 80083c6:	eb41 0101 	adc.w	r1, r1, r1
 80083ca:	f411 1f80 	tst.w	r1, #1048576	; 0x100000
 80083ce:	f1a4 0401 	sub.w	r4, r4, #1
 80083d2:	d1e9      	bne.n	80083a8 <__adddf3+0x10c>
 80083d4:	f091 0f00 	teq	r1, #0
 80083d8:	bf04      	itt	eq
 80083da:	4601      	moveq	r1, r0
 80083dc:	2000      	moveq	r0, #0
 80083de:	fab1 f381 	clz	r3, r1
 80083e2:	bf08      	it	eq
 80083e4:	3320      	addeq	r3, #32
 80083e6:	f1a3 030b 	sub.w	r3, r3, #11
 80083ea:	f1b3 0220 	subs.w	r2, r3, #32
 80083ee:	da0c      	bge.n	800840a <__adddf3+0x16e>
 80083f0:	320c      	adds	r2, #12
 80083f2:	dd08      	ble.n	8008406 <__adddf3+0x16a>
 80083f4:	f102 0c14 	add.w	ip, r2, #20
 80083f8:	f1c2 020c 	rsb	r2, r2, #12
 80083fc:	fa01 f00c 	lsl.w	r0, r1, ip
 8008400:	fa21 f102 	lsr.w	r1, r1, r2
 8008404:	e00c      	b.n	8008420 <__adddf3+0x184>
 8008406:	f102 0214 	add.w	r2, r2, #20
 800840a:	bfd8      	it	le
 800840c:	f1c2 0c20 	rsble	ip, r2, #32
 8008410:	fa01 f102 	lsl.w	r1, r1, r2
 8008414:	fa20 fc0c 	lsr.w	ip, r0, ip
 8008418:	bfdc      	itt	le
 800841a:	ea41 010c 	orrle.w	r1, r1, ip
 800841e:	4090      	lslle	r0, r2
 8008420:	1ae4      	subs	r4, r4, r3
 8008422:	bfa2      	ittt	ge
 8008424:	eb01 5104 	addge.w	r1, r1, r4, lsl #20
 8008428:	4329      	orrge	r1, r5
 800842a:	bd30      	popge	{r4, r5, pc}
 800842c:	ea6f 0404 	mvn.w	r4, r4
 8008430:	3c1f      	subs	r4, #31
 8008432:	da1c      	bge.n	800846e <__adddf3+0x1d2>
 8008434:	340c      	adds	r4, #12
 8008436:	dc0e      	bgt.n	8008456 <__adddf3+0x1ba>
 8008438:	f104 0414 	add.w	r4, r4, #20
 800843c:	f1c4 0220 	rsb	r2, r4, #32
 8008440:	fa20 f004 	lsr.w	r0, r0, r4
 8008444:	fa01 f302 	lsl.w	r3, r1, r2
 8008448:	ea40 0003 	orr.w	r0, r0, r3
 800844c:	fa21 f304 	lsr.w	r3, r1, r4
 8008450:	ea45 0103 	orr.w	r1, r5, r3
 8008454:	bd30      	pop	{r4, r5, pc}
 8008456:	f1c4 040c 	rsb	r4, r4, #12
 800845a:	f1c4 0220 	rsb	r2, r4, #32
 800845e:	fa20 f002 	lsr.w	r0, r0, r2
 8008462:	fa01 f304 	lsl.w	r3, r1, r4
 8008466:	ea40 0003 	orr.w	r0, r0, r3
 800846a:	4629      	mov	r1, r5
 800846c:	bd30      	pop	{r4, r5, pc}
 800846e:	fa21 f004 	lsr.w	r0, r1, r4
 8008472:	4629      	mov	r1, r5
 8008474:	bd30      	pop	{r4, r5, pc}
 8008476:	f094 0f00 	teq	r4, #0
 800847a:	f483 1380 	eor.w	r3, r3, #1048576	; 0x100000
 800847e:	bf06      	itte	eq
 8008480:	f481 1180 	eoreq.w	r1, r1, #1048576	; 0x100000
 8008484:	3401      	addeq	r4, #1
 8008486:	3d01      	subne	r5, #1
 8008488:	e74e      	b.n	8008328 <__adddf3+0x8c>
 800848a:	ea7f 5c64 	mvns.w	ip, r4, asr #21
 800848e:	bf18      	it	ne
 8008490:	ea7f 5c65 	mvnsne.w	ip, r5, asr #21
 8008494:	d029      	beq.n	80084ea <__adddf3+0x24e>
 8008496:	ea94 0f05 	teq	r4, r5
 800849a:	bf08      	it	eq
 800849c:	ea90 0f02 	teqeq	r0, r2
 80084a0:	d005      	beq.n	80084ae <__adddf3+0x212>
 80084a2:	ea54 0c00 	orrs.w	ip, r4, r0
 80084a6:	bf04      	itt	eq
 80084a8:	4619      	moveq	r1, r3
 80084aa:	4610      	moveq	r0, r2
 80084ac:	bd30      	pop	{r4, r5, pc}
 80084ae:	ea91 0f03 	teq	r1, r3
 80084b2:	bf1e      	ittt	ne
 80084b4:	2100      	movne	r1, #0
 80084b6:	2000      	movne	r0, #0
 80084b8:	bd30      	popne	{r4, r5, pc}
 80084ba:	ea5f 5c54 	movs.w	ip, r4, lsr #21
 80084be:	d105      	bne.n	80084cc <__adddf3+0x230>
 80084c0:	0040      	lsls	r0, r0, #1
 80084c2:	4149      	adcs	r1, r1
 80084c4:	bf28      	it	cs
 80084c6:	f041 4100 	orrcs.w	r1, r1, #2147483648	; 0x80000000
 80084ca:	bd30      	pop	{r4, r5, pc}
 80084cc:	f514 0480 	adds.w	r4, r4, #4194304	; 0x400000
 80084d0:	bf3c      	itt	cc
 80084d2:	f501 1180 	addcc.w	r1, r1, #1048576	; 0x100000
 80084d6:	bd30      	popcc	{r4, r5, pc}
 80084d8:	f001 4500 	and.w	r5, r1, #2147483648	; 0x80000000
 80084dc:	f045 41fe 	orr.w	r1, r5, #2130706432	; 0x7f000000
 80084e0:	f441 0170 	orr.w	r1, r1, #15728640	; 0xf00000
 80084e4:	f04f 0000 	mov.w	r0, #0
 80084e8:	bd30      	pop	{r4, r5, pc}
 80084ea:	ea7f 5c64 	mvns.w	ip, r4, asr #21
 80084ee:	bf1a      	itte	ne
 80084f0:	4619      	movne	r1, r3
 80084f2:	4610      	movne	r0, r2
 80084f4:	ea7f 5c65 	mvnseq.w	ip, r5, asr #21
 80084f8:	bf1c      	itt	ne
 80084fa:	460b      	movne	r3, r1
 80084fc:	4602      	movne	r2, r0
 80084fe:	ea50 3401 	orrs.w	r4, r0, r1, lsl #12
 8008502:	bf06      	itte	eq
 8008504:	ea52 3503 	orrseq.w	r5, r2, r3, lsl #12
 8008508:	ea91 0f03 	teqeq	r1, r3
 800850c:	f441 2100 	orrne.w	r1, r1, #524288	; 0x80000
 8008510:	bd30      	pop	{r4, r5, pc}
 8008512:	bf00      	nop

08008514 <__aeabi_ui2d>:
 8008514:	f090 0f00 	teq	r0, #0
 8008518:	bf04      	itt	eq
 800851a:	2100      	moveq	r1, #0
 800851c:	4770      	bxeq	lr
 800851e:	b530      	push	{r4, r5, lr}
 8008520:	f44f 6480 	mov.w	r4, #1024	; 0x400
 8008524:	f104 0432 	add.w	r4, r4, #50	; 0x32
 8008528:	f04f 0500 	mov.w	r5, #0
 800852c:	f04f 0100 	mov.w	r1, #0
 8008530:	e750      	b.n	80083d4 <__adddf3+0x138>
 8008532:	bf00      	nop

08008534 <__aeabi_i2d>:
 8008534:	f090 0f00 	teq	r0, #0
 8008538:	bf04      	itt	eq
 800853a:	2100      	moveq	r1, #0
 800853c:	4770      	bxeq	lr
 800853e:	b530      	push	{r4, r5, lr}
 8008540:	f44f 6480 	mov.w	r4, #1024	; 0x400
 8008544:	f104 0432 	add.w	r4, r4, #50	; 0x32
 8008548:	f010 4500 	ands.w	r5, r0, #2147483648	; 0x80000000
 800854c:	bf48      	it	mi
 800854e:	4240      	negmi	r0, r0
 8008550:	f04f 0100 	mov.w	r1, #0
 8008554:	e73e      	b.n	80083d4 <__adddf3+0x138>
 8008556:	bf00      	nop

08008558 <__aeabi_f2d>:
 8008558:	0042      	lsls	r2, r0, #1
 800855a:	ea4f 01e2 	mov.w	r1, r2, asr #3
 800855e:	ea4f 0131 	mov.w	r1, r1, rrx
 8008562:	ea4f 7002 	mov.w	r0, r2, lsl #28
 8008566:	bf1f      	itttt	ne
 8008568:	f012 437f 	andsne.w	r3, r2, #4278190080	; 0xff000000
 800856c:	f093 4f7f 	teqne	r3, #4278190080	; 0xff000000
 8008570:	f081 5160 	eorne.w	r1, r1, #939524096	; 0x38000000
 8008574:	4770      	bxne	lr
 8008576:	f092 0f00 	teq	r2, #0
 800857a:	bf14      	ite	ne
 800857c:	f093 4f7f 	teqne	r3, #4278190080	; 0xff000000
 8008580:	4770      	bxeq	lr
 8008582:	b530      	push	{r4, r5, lr}
 8008584:	f44f 7460 	mov.w	r4, #896	; 0x380
 8008588:	f001 4500 	and.w	r5, r1, #2147483648	; 0x80000000
 800858c:	f021 4100 	bic.w	r1, r1, #2147483648	; 0x80000000
 8008590:	e720      	b.n	80083d4 <__adddf3+0x138>
 8008592:	bf00      	nop

08008594 <__aeabi_ul2d>:
 8008594:	ea50 0201 	orrs.w	r2, r0, r1
 8008598:	bf08      	it	eq
 800859a:	4770      	bxeq	lr
 800859c:	b530      	push	{r4, r5, lr}
 800859e:	f04f 0500 	mov.w	r5, #0
 80085a2:	e00a      	b.n	80085ba <__aeabi_l2d+0x16>

080085a4 <__aeabi_l2d>:
 80085a4:	ea50 0201 	orrs.w	r2, r0, r1
 80085a8:	bf08      	it	eq
 80085aa:	4770      	bxeq	lr
 80085ac:	b530      	push	{r4, r5, lr}
 80085ae:	f011 4500 	ands.w	r5, r1, #2147483648	; 0x80000000
 80085b2:	d502      	bpl.n	80085ba <__aeabi_l2d+0x16>
 80085b4:	4240      	negs	r0, r0
 80085b6:	eb61 0141 	sbc.w	r1, r1, r1, lsl #1
 80085ba:	f44f 6480 	mov.w	r4, #1024	; 0x400
 80085be:	f104 0432 	add.w	r4, r4, #50	; 0x32
 80085c2:	ea5f 5c91 	movs.w	ip, r1, lsr #22
 80085c6:	f43f aedc 	beq.w	8008382 <__adddf3+0xe6>
 80085ca:	f04f 0203 	mov.w	r2, #3
 80085ce:	ea5f 0cdc 	movs.w	ip, ip, lsr #3
 80085d2:	bf18      	it	ne
 80085d4:	3203      	addne	r2, #3
 80085d6:	ea5f 0cdc 	movs.w	ip, ip, lsr #3
 80085da:	bf18      	it	ne
 80085dc:	3203      	addne	r2, #3
 80085de:	eb02 02dc 	add.w	r2, r2, ip, lsr #3
 80085e2:	f1c2 0320 	rsb	r3, r2, #32
 80085e6:	fa00 fc03 	lsl.w	ip, r0, r3
 80085ea:	fa20 f002 	lsr.w	r0, r0, r2
 80085ee:	fa01 fe03 	lsl.w	lr, r1, r3
 80085f2:	ea40 000e 	orr.w	r0, r0, lr
 80085f6:	fa21 f102 	lsr.w	r1, r1, r2
 80085fa:	4414      	add	r4, r2
 80085fc:	e6c1      	b.n	8008382 <__adddf3+0xe6>
 80085fe:	bf00      	nop

08008600 <__aeabi_dmul>:
 8008600:	b570      	push	{r4, r5, r6, lr}
 8008602:	f04f 0cff 	mov.w	ip, #255	; 0xff
 8008606:	f44c 6ce0 	orr.w	ip, ip, #1792	; 0x700
 800860a:	ea1c 5411 	ands.w	r4, ip, r1, lsr #20
 800860e:	bf1d      	ittte	ne
 8008610:	ea1c 5513 	andsne.w	r5, ip, r3, lsr #20
 8008614:	ea94 0f0c 	teqne	r4, ip
 8008618:	ea95 0f0c 	teqne	r5, ip
 800861c:	f000 f8de 	bleq	80087dc <__aeabi_dmul+0x1dc>
 8008620:	442c      	add	r4, r5
 8008622:	ea81 0603 	eor.w	r6, r1, r3
 8008626:	ea21 514c 	bic.w	r1, r1, ip, lsl #21
 800862a:	ea23 534c 	bic.w	r3, r3, ip, lsl #21
 800862e:	ea50 3501 	orrs.w	r5, r0, r1, lsl #12
 8008632:	bf18      	it	ne
 8008634:	ea52 3503 	orrsne.w	r5, r2, r3, lsl #12
 8008638:	f441 1180 	orr.w	r1, r1, #1048576	; 0x100000
 800863c:	f443 1380 	orr.w	r3, r3, #1048576	; 0x100000
 8008640:	d038      	beq.n	80086b4 <__aeabi_dmul+0xb4>
 8008642:	fba0 ce02 	umull	ip, lr, r0, r2
 8008646:	f04f 0500 	mov.w	r5, #0
 800864a:	fbe1 e502 	umlal	lr, r5, r1, r2
 800864e:	f006 4200 	and.w	r2, r6, #2147483648	; 0x80000000
 8008652:	fbe0 e503 	umlal	lr, r5, r0, r3
 8008656:	f04f 0600 	mov.w	r6, #0
 800865a:	fbe1 5603 	umlal	r5, r6, r1, r3
 800865e:	f09c 0f00 	teq	ip, #0
 8008662:	bf18      	it	ne
 8008664:	f04e 0e01 	orrne.w	lr, lr, #1
 8008668:	f1a4 04ff 	sub.w	r4, r4, #255	; 0xff
 800866c:	f5b6 7f00 	cmp.w	r6, #512	; 0x200
 8008670:	f564 7440 	sbc.w	r4, r4, #768	; 0x300
 8008674:	d204      	bcs.n	8008680 <__aeabi_dmul+0x80>
 8008676:	ea5f 0e4e 	movs.w	lr, lr, lsl #1
 800867a:	416d      	adcs	r5, r5
 800867c:	eb46 0606 	adc.w	r6, r6, r6
 8008680:	ea42 21c6 	orr.w	r1, r2, r6, lsl #11
 8008684:	ea41 5155 	orr.w	r1, r1, r5, lsr #21
 8008688:	ea4f 20c5 	mov.w	r0, r5, lsl #11
 800868c:	ea40 505e 	orr.w	r0, r0, lr, lsr #21
 8008690:	ea4f 2ece 	mov.w	lr, lr, lsl #11
 8008694:	f1b4 0cfd 	subs.w	ip, r4, #253	; 0xfd
 8008698:	bf88      	it	hi
 800869a:	f5bc 6fe0 	cmphi.w	ip, #1792	; 0x700
 800869e:	d81e      	bhi.n	80086de <__aeabi_dmul+0xde>
 80086a0:	f1be 4f00 	cmp.w	lr, #2147483648	; 0x80000000
 80086a4:	bf08      	it	eq
 80086a6:	ea5f 0e50 	movseq.w	lr, r0, lsr #1
 80086aa:	f150 0000 	adcs.w	r0, r0, #0
 80086ae:	eb41 5104 	adc.w	r1, r1, r4, lsl #20
 80086b2:	bd70      	pop	{r4, r5, r6, pc}
 80086b4:	f006 4600 	and.w	r6, r6, #2147483648	; 0x80000000
 80086b8:	ea46 0101 	orr.w	r1, r6, r1
 80086bc:	ea40 0002 	orr.w	r0, r0, r2
 80086c0:	ea81 0103 	eor.w	r1, r1, r3
 80086c4:	ebb4 045c 	subs.w	r4, r4, ip, lsr #1
 80086c8:	bfc2      	ittt	gt
 80086ca:	ebd4 050c 	rsbsgt	r5, r4, ip
 80086ce:	ea41 5104 	orrgt.w	r1, r1, r4, lsl #20
 80086d2:	bd70      	popgt	{r4, r5, r6, pc}
 80086d4:	f441 1180 	orr.w	r1, r1, #1048576	; 0x100000
 80086d8:	f04f 0e00 	mov.w	lr, #0
 80086dc:	3c01      	subs	r4, #1
 80086de:	f300 80ab 	bgt.w	8008838 <__aeabi_dmul+0x238>
 80086e2:	f114 0f36 	cmn.w	r4, #54	; 0x36
 80086e6:	bfde      	ittt	le
 80086e8:	2000      	movle	r0, #0
 80086ea:	f001 4100 	andle.w	r1, r1, #2147483648	; 0x80000000
 80086ee:	bd70      	pople	{r4, r5, r6, pc}
 80086f0:	f1c4 0400 	rsb	r4, r4, #0
 80086f4:	3c20      	subs	r4, #32
 80086f6:	da35      	bge.n	8008764 <__aeabi_dmul+0x164>
 80086f8:	340c      	adds	r4, #12
 80086fa:	dc1b      	bgt.n	8008734 <__aeabi_dmul+0x134>
 80086fc:	f104 0414 	add.w	r4, r4, #20
 8008700:	f1c4 0520 	rsb	r5, r4, #32
 8008704:	fa00 f305 	lsl.w	r3, r0, r5
 8008708:	fa20 f004 	lsr.w	r0, r0, r4
 800870c:	fa01 f205 	lsl.w	r2, r1, r5
 8008710:	ea40 0002 	orr.w	r0, r0, r2
 8008714:	f001 4200 	and.w	r2, r1, #2147483648	; 0x80000000
 8008718:	f021 4100 	bic.w	r1, r1, #2147483648	; 0x80000000
 800871c:	eb10 70d3 	adds.w	r0, r0, r3, lsr #31
 8008720:	fa21 f604 	lsr.w	r6, r1, r4
 8008724:	eb42 0106 	adc.w	r1, r2, r6
 8008728:	ea5e 0e43 	orrs.w	lr, lr, r3, lsl #1
 800872c:	bf08      	it	eq
 800872e:	ea20 70d3 	biceq.w	r0, r0, r3, lsr #31
 8008732:	bd70      	pop	{r4, r5, r6, pc}
 8008734:	f1c4 040c 	rsb	r4, r4, #12
 8008738:	f1c4 0520 	rsb	r5, r4, #32
 800873c:	fa00 f304 	lsl.w	r3, r0, r4
 8008740:	fa20 f005 	lsr.w	r0, r0, r5
 8008744:	fa01 f204 	lsl.w	r2, r1, r4
 8008748:	ea40 0002 	orr.w	r0, r0, r2
 800874c:	f001 4100 	and.w	r1, r1, #2147483648	; 0x80000000
 8008750:	eb10 70d3 	adds.w	r0, r0, r3, lsr #31
 8008754:	f141 0100 	adc.w	r1, r1, #0
 8008758:	ea5e 0e43 	orrs.w	lr, lr, r3, lsl #1
 800875c:	bf08      	it	eq
 800875e:	ea20 70d3 	biceq.w	r0, r0, r3, lsr #31
 8008762:	bd70      	pop	{r4, r5, r6, pc}
 8008764:	f1c4 0520 	rsb	r5, r4, #32
 8008768:	fa00 f205 	lsl.w	r2, r0, r5
 800876c:	ea4e 0e02 	orr.w	lr, lr, r2
 8008770:	fa20 f304 	lsr.w	r3, r0, r4
 8008774:	fa01 f205 	lsl.w	r2, r1, r5
 8008778:	ea43 0302 	orr.w	r3, r3, r2
 800877c:	fa21 f004 	lsr.w	r0, r1, r4
 8008780:	f001 4100 	and.w	r1, r1, #2147483648	; 0x80000000
 8008784:	fa21 f204 	lsr.w	r2, r1, r4
 8008788:	ea20 0002 	bic.w	r0, r0, r2
 800878c:	eb00 70d3 	add.w	r0, r0, r3, lsr #31
 8008790:	ea5e 0e43 	orrs.w	lr, lr, r3, lsl #1
 8008794:	bf08      	it	eq
 8008796:	ea20 70d3 	biceq.w	r0, r0, r3, lsr #31
 800879a:	bd70      	pop	{r4, r5, r6, pc}
 800879c:	f094 0f00 	teq	r4, #0
 80087a0:	d10f      	bne.n	80087c2 <__aeabi_dmul+0x1c2>
 80087a2:	f001 4600 	and.w	r6, r1, #2147483648	; 0x80000000
 80087a6:	0040      	lsls	r0, r0, #1
 80087a8:	eb41 0101 	adc.w	r1, r1, r1
 80087ac:	f411 1f80 	tst.w	r1, #1048576	; 0x100000
 80087b0:	bf08      	it	eq
 80087b2:	3c01      	subeq	r4, #1
 80087b4:	d0f7      	beq.n	80087a6 <__aeabi_dmul+0x1a6>
 80087b6:	ea41 0106 	orr.w	r1, r1, r6
 80087ba:	f095 0f00 	teq	r5, #0
 80087be:	bf18      	it	ne
 80087c0:	4770      	bxne	lr
 80087c2:	f003 4600 	and.w	r6, r3, #2147483648	; 0x80000000
 80087c6:	0052      	lsls	r2, r2, #1
 80087c8:	eb43 0303 	adc.w	r3, r3, r3
 80087cc:	f413 1f80 	tst.w	r3, #1048576	; 0x100000
 80087d0:	bf08      	it	eq
 80087d2:	3d01      	subeq	r5, #1
 80087d4:	d0f7      	beq.n	80087c6 <__aeabi_dmul+0x1c6>
 80087d6:	ea43 0306 	orr.w	r3, r3, r6
 80087da:	4770      	bx	lr
 80087dc:	ea94 0f0c 	teq	r4, ip
 80087e0:	ea0c 5513 	and.w	r5, ip, r3, lsr #20
 80087e4:	bf18      	it	ne
 80087e6:	ea95 0f0c 	teqne	r5, ip
 80087ea:	d00c      	beq.n	8008806 <__aeabi_dmul+0x206>
 80087ec:	ea50 0641 	orrs.w	r6, r0, r1, lsl #1
 80087f0:	bf18      	it	ne
 80087f2:	ea52 0643 	orrsne.w	r6, r2, r3, lsl #1
 80087f6:	d1d1      	bne.n	800879c <__aeabi_dmul+0x19c>
 80087f8:	ea81 0103 	eor.w	r1, r1, r3
 80087fc:	f001 4100 	and.w	r1, r1, #2147483648	; 0x80000000
 8008800:	f04f 0000 	mov.w	r0, #0
 8008804:	bd70      	pop	{r4, r5, r6, pc}
 8008806:	ea50 0641 	orrs.w	r6, r0, r1, lsl #1
 800880a:	bf06      	itte	eq
 800880c:	4610      	moveq	r0, r2
 800880e:	4619      	moveq	r1, r3
 8008810:	ea52 0643 	orrsne.w	r6, r2, r3, lsl #1
 8008814:	d019      	beq.n	800884a <__aeabi_dmul+0x24a>
 8008816:	ea94 0f0c 	teq	r4, ip
 800881a:	d102      	bne.n	8008822 <__aeabi_dmul+0x222>
 800881c:	ea50 3601 	orrs.w	r6, r0, r1, lsl #12
 8008820:	d113      	bne.n	800884a <__aeabi_dmul+0x24a>
 8008822:	ea95 0f0c 	teq	r5, ip
 8008826:	d105      	bne.n	8008834 <__aeabi_dmul+0x234>
 8008828:	ea52 3603 	orrs.w	r6, r2, r3, lsl #12
 800882c:	bf1c      	itt	ne
 800882e:	4610      	movne	r0, r2
 8008830:	4619      	movne	r1, r3
 8008832:	d10a      	bne.n	800884a <__aeabi_dmul+0x24a>
 8008834:	ea81 0103 	eor.w	r1, r1, r3
 8008838:	f001 4100 	and.w	r1, r1, #2147483648	; 0x80000000
 800883c:	f041 41fe 	orr.w	r1, r1, #2130706432	; 0x7f000000
 8008840:	f441 0170 	orr.w	r1, r1, #15728640	; 0xf00000
 8008844:	f04f 0000 	mov.w	r0, #0
 8008848:	bd70      	pop	{r4, r5, r6, pc}
 800884a:	f041 41fe 	orr.w	r1, r1, #2130706432	; 0x7f000000
 800884e:	f441 0178 	orr.w	r1, r1, #16252928	; 0xf80000
 8008852:	bd70      	pop	{r4, r5, r6, pc}

08008854 <__aeabi_ddiv>:
 8008854:	b570      	push	{r4, r5, r6, lr}
 8008856:	f04f 0cff 	mov.w	ip, #255	; 0xff
 800885a:	f44c 6ce0 	orr.w	ip, ip, #1792	; 0x700
 800885e:	ea1c 5411 	ands.w	r4, ip, r1, lsr #20
 8008862:	bf1d      	ittte	ne
 8008864:	ea1c 5513 	andsne.w	r5, ip, r3, lsr #20
 8008868:	ea94 0f0c 	teqne	r4, ip
 800886c:	ea95 0f0c 	teqne	r5, ip
 8008870:	f000 f8a7 	bleq	80089c2 <__aeabi_ddiv+0x16e>
 8008874:	eba4 0405 	sub.w	r4, r4, r5
 8008878:	ea81 0e03 	eor.w	lr, r1, r3
 800887c:	ea52 3503 	orrs.w	r5, r2, r3, lsl #12
 8008880:	ea4f 3101 	mov.w	r1, r1, lsl #12
 8008884:	f000 8088 	beq.w	8008998 <__aeabi_ddiv+0x144>
 8008888:	ea4f 3303 	mov.w	r3, r3, lsl #12
 800888c:	f04f 5580 	mov.w	r5, #268435456	; 0x10000000
 8008890:	ea45 1313 	orr.w	r3, r5, r3, lsr #4
 8008894:	ea43 6312 	orr.w	r3, r3, r2, lsr #24
 8008898:	ea4f 2202 	mov.w	r2, r2, lsl #8
 800889c:	ea45 1511 	orr.w	r5, r5, r1, lsr #4
 80088a0:	ea45 6510 	orr.w	r5, r5, r0, lsr #24
 80088a4:	ea4f 2600 	mov.w	r6, r0, lsl #8
 80088a8:	f00e 4100 	and.w	r1, lr, #2147483648	; 0x80000000
 80088ac:	429d      	cmp	r5, r3
 80088ae:	bf08      	it	eq
 80088b0:	4296      	cmpeq	r6, r2
 80088b2:	f144 04fd 	adc.w	r4, r4, #253	; 0xfd
 80088b6:	f504 7440 	add.w	r4, r4, #768	; 0x300
 80088ba:	d202      	bcs.n	80088c2 <__aeabi_ddiv+0x6e>
 80088bc:	085b      	lsrs	r3, r3, #1
 80088be:	ea4f 0232 	mov.w	r2, r2, rrx
 80088c2:	1ab6      	subs	r6, r6, r2
 80088c4:	eb65 0503 	sbc.w	r5, r5, r3
 80088c8:	085b      	lsrs	r3, r3, #1
 80088ca:	ea4f 0232 	mov.w	r2, r2, rrx
 80088ce:	f44f 1080 	mov.w	r0, #1048576	; 0x100000
 80088d2:	f44f 2c00 	mov.w	ip, #524288	; 0x80000
 80088d6:	ebb6 0e02 	subs.w	lr, r6, r2
 80088da:	eb75 0e03 	sbcs.w	lr, r5, r3
 80088de:	bf22      	ittt	cs
 80088e0:	1ab6      	subcs	r6, r6, r2
 80088e2:	4675      	movcs	r5, lr
 80088e4:	ea40 000c 	orrcs.w	r0, r0, ip
 80088e8:	085b      	lsrs	r3, r3, #1
 80088ea:	ea4f 0232 	mov.w	r2, r2, rrx
 80088ee:	ebb6 0e02 	subs.w	lr, r6, r2
 80088f2:	eb75 0e03 	sbcs.w	lr, r5, r3
 80088f6:	bf22      	ittt	cs
 80088f8:	1ab6      	subcs	r6, r6, r2
 80088fa:	4675      	movcs	r5, lr
 80088fc:	ea40 005c 	orrcs.w	r0, r0, ip, lsr #1
 8008900:	085b      	lsrs	r3, r3, #1
 8008902:	ea4f 0232 	mov.w	r2, r2, rrx
 8008906:	ebb6 0e02 	subs.w	lr, r6, r2
 800890a:	eb75 0e03 	sbcs.w	lr, r5, r3
 800890e:	bf22      	ittt	cs
 8008910:	1ab6      	subcs	r6, r6, r2
 8008912:	4675      	movcs	r5, lr
 8008914:	ea40 009c 	orrcs.w	r0, r0, ip, lsr #2
 8008918:	085b      	lsrs	r3, r3, #1
 800891a:	ea4f 0232 	mov.w	r2, r2, rrx
 800891e:	ebb6 0e02 	subs.w	lr, r6, r2
 8008922:	eb75 0e03 	sbcs.w	lr, r5, r3
 8008926:	bf22      	ittt	cs
 8008928:	1ab6      	subcs	r6, r6, r2
 800892a:	4675      	movcs	r5, lr
 800892c:	ea40 00dc 	orrcs.w	r0, r0, ip, lsr #3
 8008930:	ea55 0e06 	orrs.w	lr, r5, r6
 8008934:	d018      	beq.n	8008968 <__aeabi_ddiv+0x114>
 8008936:	ea4f 1505 	mov.w	r5, r5, lsl #4
 800893a:	ea45 7516 	orr.w	r5, r5, r6, lsr #28
 800893e:	ea4f 1606 	mov.w	r6, r6, lsl #4
 8008942:	ea4f 03c3 	mov.w	r3, r3, lsl #3
 8008946:	ea43 7352 	orr.w	r3, r3, r2, lsr #29
 800894a:	ea4f 02c2 	mov.w	r2, r2, lsl #3
 800894e:	ea5f 1c1c 	movs.w	ip, ip, lsr #4
 8008952:	d1c0      	bne.n	80088d6 <__aeabi_ddiv+0x82>
 8008954:	f411 1f80 	tst.w	r1, #1048576	; 0x100000
 8008958:	d10b      	bne.n	8008972 <__aeabi_ddiv+0x11e>
 800895a:	ea41 0100 	orr.w	r1, r1, r0
 800895e:	f04f 0000 	mov.w	r0, #0
 8008962:	f04f 4c00 	mov.w	ip, #2147483648	; 0x80000000
 8008966:	e7b6      	b.n	80088d6 <__aeabi_ddiv+0x82>
 8008968:	f411 1f80 	tst.w	r1, #1048576	; 0x100000
 800896c:	bf04      	itt	eq
 800896e:	4301      	orreq	r1, r0
 8008970:	2000      	moveq	r0, #0
 8008972:	f1b4 0cfd 	subs.w	ip, r4, #253	; 0xfd
 8008976:	bf88      	it	hi
 8008978:	f5bc 6fe0 	cmphi.w	ip, #1792	; 0x700
 800897c:	f63f aeaf 	bhi.w	80086de <__aeabi_dmul+0xde>
 8008980:	ebb5 0c03 	subs.w	ip, r5, r3
 8008984:	bf04      	itt	eq
 8008986:	ebb6 0c02 	subseq.w	ip, r6, r2
 800898a:	ea5f 0c50 	movseq.w	ip, r0, lsr #1
 800898e:	f150 0000 	adcs.w	r0, r0, #0
 8008992:	eb41 5104 	adc.w	r1, r1, r4, lsl #20
 8008996:	bd70      	pop	{r4, r5, r6, pc}
 8008998:	f00e 4e00 	and.w	lr, lr, #2147483648	; 0x80000000
 800899c:	ea4e 3111 	orr.w	r1, lr, r1, lsr #12
 80089a0:	eb14 045c 	adds.w	r4, r4, ip, lsr #1
 80089a4:	bfc2      	ittt	gt
 80089a6:	ebd4 050c 	rsbsgt	r5, r4, ip
 80089aa:	ea41 5104 	orrgt.w	r1, r1, r4, lsl #20
 80089ae:	bd70      	popgt	{r4, r5, r6, pc}
 80089b0:	f441 1180 	orr.w	r1, r1, #1048576	; 0x100000
 80089b4:	f04f 0e00 	mov.w	lr, #0
 80089b8:	3c01      	subs	r4, #1
 80089ba:	e690      	b.n	80086de <__aeabi_dmul+0xde>
 80089bc:	ea45 0e06 	orr.w	lr, r5, r6
 80089c0:	e68d      	b.n	80086de <__aeabi_dmul+0xde>
 80089c2:	ea0c 5513 	and.w	r5, ip, r3, lsr #20
 80089c6:	ea94 0f0c 	teq	r4, ip
 80089ca:	bf08      	it	eq
 80089cc:	ea95 0f0c 	teqeq	r5, ip
 80089d0:	f43f af3b 	beq.w	800884a <__aeabi_dmul+0x24a>
 80089d4:	ea94 0f0c 	teq	r4, ip
 80089d8:	d10a      	bne.n	80089f0 <__aeabi_ddiv+0x19c>
 80089da:	ea50 3401 	orrs.w	r4, r0, r1, lsl #12
 80089de:	f47f af34 	bne.w	800884a <__aeabi_dmul+0x24a>
 80089e2:	ea95 0f0c 	teq	r5, ip
 80089e6:	f47f af25 	bne.w	8008834 <__aeabi_dmul+0x234>
 80089ea:	4610      	mov	r0, r2
 80089ec:	4619      	mov	r1, r3
 80089ee:	e72c      	b.n	800884a <__aeabi_dmul+0x24a>
 80089f0:	ea95 0f0c 	teq	r5, ip
 80089f4:	d106      	bne.n	8008a04 <__aeabi_ddiv+0x1b0>
 80089f6:	ea52 3503 	orrs.w	r5, r2, r3, lsl #12
 80089fa:	f43f aefd 	beq.w	80087f8 <__aeabi_dmul+0x1f8>
 80089fe:	4610      	mov	r0, r2
 8008a00:	4619      	mov	r1, r3
 8008a02:	e722      	b.n	800884a <__aeabi_dmul+0x24a>
 8008a04:	ea50 0641 	orrs.w	r6, r0, r1, lsl #1
 8008a08:	bf18      	it	ne
 8008a0a:	ea52 0643 	orrsne.w	r6, r2, r3, lsl #1
 8008a0e:	f47f aec5 	bne.w	800879c <__aeabi_dmul+0x19c>
 8008a12:	ea50 0441 	orrs.w	r4, r0, r1, lsl #1
 8008a16:	f47f af0d 	bne.w	8008834 <__aeabi_dmul+0x234>
 8008a1a:	ea52 0543 	orrs.w	r5, r2, r3, lsl #1
 8008a1e:	f47f aeeb 	bne.w	80087f8 <__aeabi_dmul+0x1f8>
 8008a22:	e712      	b.n	800884a <__aeabi_dmul+0x24a>

08008a24 <__gedf2>:
 8008a24:	f04f 3cff 	mov.w	ip, #4294967295
 8008a28:	e006      	b.n	8008a38 <__cmpdf2+0x4>
 8008a2a:	bf00      	nop

08008a2c <__ledf2>:
 8008a2c:	f04f 0c01 	mov.w	ip, #1
 8008a30:	e002      	b.n	8008a38 <__cmpdf2+0x4>
 8008a32:	bf00      	nop

08008a34 <__cmpdf2>:
 8008a34:	f04f 0c01 	mov.w	ip, #1
 8008a38:	f84d cd04 	str.w	ip, [sp, #-4]!
 8008a3c:	ea4f 0c41 	mov.w	ip, r1, lsl #1
 8008a40:	ea7f 5c6c 	mvns.w	ip, ip, asr #21
 8008a44:	ea4f 0c43 	mov.w	ip, r3, lsl #1
 8008a48:	bf18      	it	ne
 8008a4a:	ea7f 5c6c 	mvnsne.w	ip, ip, asr #21
 8008a4e:	d01b      	beq.n	8008a88 <__cmpdf2+0x54>
 8008a50:	b001      	add	sp, #4
 8008a52:	ea50 0c41 	orrs.w	ip, r0, r1, lsl #1
 8008a56:	bf0c      	ite	eq
 8008a58:	ea52 0c43 	orrseq.w	ip, r2, r3, lsl #1
 8008a5c:	ea91 0f03 	teqne	r1, r3
 8008a60:	bf02      	ittt	eq
 8008a62:	ea90 0f02 	teqeq	r0, r2
 8008a66:	2000      	moveq	r0, #0
 8008a68:	4770      	bxeq	lr
 8008a6a:	f110 0f00 	cmn.w	r0, #0
 8008a6e:	ea91 0f03 	teq	r1, r3
 8008a72:	bf58      	it	pl
 8008a74:	4299      	cmppl	r1, r3
 8008a76:	bf08      	it	eq
 8008a78:	4290      	cmpeq	r0, r2
 8008a7a:	bf2c      	ite	cs
 8008a7c:	17d8      	asrcs	r0, r3, #31
 8008a7e:	ea6f 70e3 	mvncc.w	r0, r3, asr #31
 8008a82:	f040 0001 	orr.w	r0, r0, #1
 8008a86:	4770      	bx	lr
 8008a88:	ea4f 0c41 	mov.w	ip, r1, lsl #1
 8008a8c:	ea7f 5c6c 	mvns.w	ip, ip, asr #21
 8008a90:	d102      	bne.n	8008a98 <__cmpdf2+0x64>
 8008a92:	ea50 3c01 	orrs.w	ip, r0, r1, lsl #12
 8008a96:	d107      	bne.n	8008aa8 <__cmpdf2+0x74>
 8008a98:	ea4f 0c43 	mov.w	ip, r3, lsl #1
 8008a9c:	ea7f 5c6c 	mvns.w	ip, ip, asr #21
 8008aa0:	d1d6      	bne.n	8008a50 <__cmpdf2+0x1c>
 8008aa2:	ea52 3c03 	orrs.w	ip, r2, r3, lsl #12
 8008aa6:	d0d3      	beq.n	8008a50 <__cmpdf2+0x1c>
 8008aa8:	f85d 0b04 	ldr.w	r0, [sp], #4
 8008aac:	4770      	bx	lr
 8008aae:	bf00      	nop

08008ab0 <__aeabi_cdrcmple>:
 8008ab0:	4684      	mov	ip, r0
 8008ab2:	4610      	mov	r0, r2
 8008ab4:	4662      	mov	r2, ip
 8008ab6:	468c      	mov	ip, r1
 8008ab8:	4619      	mov	r1, r3
 8008aba:	4663      	mov	r3, ip
 8008abc:	e000      	b.n	8008ac0 <__aeabi_cdcmpeq>
 8008abe:	bf00      	nop

08008ac0 <__aeabi_cdcmpeq>:
 8008ac0:	b501      	push	{r0, lr}
 8008ac2:	f7ff ffb7 	bl	8008a34 <__cmpdf2>
 8008ac6:	2800      	cmp	r0, #0
 8008ac8:	bf48      	it	mi
 8008aca:	f110 0f00 	cmnmi.w	r0, #0
 8008ace:	bd01      	pop	{r0, pc}

08008ad0 <__aeabi_dcmpeq>:
 8008ad0:	f84d ed08 	str.w	lr, [sp, #-8]!
 8008ad4:	f7ff fff4 	bl	8008ac0 <__aeabi_cdcmpeq>
 8008ad8:	bf0c      	ite	eq
 8008ada:	2001      	moveq	r0, #1
 8008adc:	2000      	movne	r0, #0
 8008ade:	f85d fb08 	ldr.w	pc, [sp], #8
 8008ae2:	bf00      	nop

08008ae4 <__aeabi_dcmplt>:
 8008ae4:	f84d ed08 	str.w	lr, [sp, #-8]!
 8008ae8:	f7ff ffea 	bl	8008ac0 <__aeabi_cdcmpeq>
 8008aec:	bf34      	ite	cc
 8008aee:	2001      	movcc	r0, #1
 8008af0:	2000      	movcs	r0, #0
 8008af2:	f85d fb08 	ldr.w	pc, [sp], #8
 8008af6:	bf00      	nop

08008af8 <__aeabi_dcmple>:
 8008af8:	f84d ed08 	str.w	lr, [sp, #-8]!
 8008afc:	f7ff ffe0 	bl	8008ac0 <__aeabi_cdcmpeq>
 8008b00:	bf94      	ite	ls
 8008b02:	2001      	movls	r0, #1
 8008b04:	2000      	movhi	r0, #0
 8008b06:	f85d fb08 	ldr.w	pc, [sp], #8
 8008b0a:	bf00      	nop

08008b0c <__aeabi_dcmpge>:
 8008b0c:	f84d ed08 	str.w	lr, [sp, #-8]!
 8008b10:	f7ff ffce 	bl	8008ab0 <__aeabi_cdrcmple>
 8008b14:	bf94      	ite	ls
 8008b16:	2001      	movls	r0, #1
 8008b18:	2000      	movhi	r0, #0
 8008b1a:	f85d fb08 	ldr.w	pc, [sp], #8
 8008b1e:	bf00      	nop

08008b20 <__aeabi_dcmpgt>:
 8008b20:	f84d ed08 	str.w	lr, [sp, #-8]!
 8008b24:	f7ff ffc4 	bl	8008ab0 <__aeabi_cdrcmple>
 8008b28:	bf34      	ite	cc
 8008b2a:	2001      	movcc	r0, #1
 8008b2c:	2000      	movcs	r0, #0
 8008b2e:	f85d fb08 	ldr.w	pc, [sp], #8
 8008b32:	bf00      	nop

08008b34 <__aeabi_dcmpun>:
 8008b34:	ea4f 0c41 	mov.w	ip, r1, lsl #1
 8008b38:	ea7f 5c6c 	mvns.w	ip, ip, asr #21
 8008b3c:	d102      	bne.n	8008b44 <__aeabi_dcmpun+0x10>
 8008b3e:	ea50 3c01 	orrs.w	ip, r0, r1, lsl #12
 8008b42:	d10a      	bne.n	8008b5a <__aeabi_dcmpun+0x26>
 8008b44:	ea4f 0c43 	mov.w	ip, r3, lsl #1
 8008b48:	ea7f 5c6c 	mvns.w	ip, ip, asr #21
 8008b4c:	d102      	bne.n	8008b54 <__aeabi_dcmpun+0x20>
 8008b4e:	ea52 3c03 	orrs.w	ip, r2, r3, lsl #12
 8008b52:	d102      	bne.n	8008b5a <__aeabi_dcmpun+0x26>
 8008b54:	f04f 0000 	mov.w	r0, #0
 8008b58:	4770      	bx	lr
 8008b5a:	f04f 0001 	mov.w	r0, #1
 8008b5e:	4770      	bx	lr

08008b60 <__aeabi_d2iz>:
 8008b60:	ea4f 0241 	mov.w	r2, r1, lsl #1
 8008b64:	f512 1200 	adds.w	r2, r2, #2097152	; 0x200000
 8008b68:	d215      	bcs.n	8008b96 <__aeabi_d2iz+0x36>
 8008b6a:	d511      	bpl.n	8008b90 <__aeabi_d2iz+0x30>
 8008b6c:	f46f 7378 	mvn.w	r3, #992	; 0x3e0
 8008b70:	ebb3 5262 	subs.w	r2, r3, r2, asr #21
 8008b74:	d912      	bls.n	8008b9c <__aeabi_d2iz+0x3c>
 8008b76:	ea4f 23c1 	mov.w	r3, r1, lsl #11
 8008b7a:	f043 4300 	orr.w	r3, r3, #2147483648	; 0x80000000
 8008b7e:	ea43 5350 	orr.w	r3, r3, r0, lsr #21
 8008b82:	f011 4f00 	tst.w	r1, #2147483648	; 0x80000000
 8008b86:	fa23 f002 	lsr.w	r0, r3, r2
 8008b8a:	bf18      	it	ne
 8008b8c:	4240      	negne	r0, r0
 8008b8e:	4770      	bx	lr
 8008b90:	f04f 0000 	mov.w	r0, #0
 8008b94:	4770      	bx	lr
 8008b96:	ea50 3001 	orrs.w	r0, r0, r1, lsl #12
 8008b9a:	d105      	bne.n	8008ba8 <__aeabi_d2iz+0x48>
 8008b9c:	f011 4000 	ands.w	r0, r1, #2147483648	; 0x80000000
 8008ba0:	bf08      	it	eq
 8008ba2:	f06f 4000 	mvneq.w	r0, #2147483648	; 0x80000000
 8008ba6:	4770      	bx	lr
 8008ba8:	f04f 0000 	mov.w	r0, #0
 8008bac:	4770      	bx	lr
 8008bae:	bf00      	nop

08008bb0 <__aeabi_d2f>:
 8008bb0:	ea4f 0241 	mov.w	r2, r1, lsl #1
 8008bb4:	f1b2 43e0 	subs.w	r3, r2, #1879048192	; 0x70000000
 8008bb8:	bf24      	itt	cs
 8008bba:	f5b3 1c00 	subscs.w	ip, r3, #2097152	; 0x200000
 8008bbe:	f1dc 5cfe 	rsbscs	ip, ip, #532676608	; 0x1fc00000
 8008bc2:	d90d      	bls.n	8008be0 <__aeabi_d2f+0x30>
 8008bc4:	f001 4c00 	and.w	ip, r1, #2147483648	; 0x80000000
 8008bc8:	ea4f 02c0 	mov.w	r2, r0, lsl #3
 8008bcc:	ea4c 7050 	orr.w	r0, ip, r0, lsr #29
 8008bd0:	f1b2 4f00 	cmp.w	r2, #2147483648	; 0x80000000
 8008bd4:	eb40 0083 	adc.w	r0, r0, r3, lsl #2
 8008bd8:	bf08      	it	eq
 8008bda:	f020 0001 	biceq.w	r0, r0, #1
 8008bde:	4770      	bx	lr
 8008be0:	f011 4f80 	tst.w	r1, #1073741824	; 0x40000000
 8008be4:	d121      	bne.n	8008c2a <__aeabi_d2f+0x7a>
 8008be6:	f113 7238 	adds.w	r2, r3, #48234496	; 0x2e00000
 8008bea:	bfbc      	itt	lt
 8008bec:	f001 4000 	andlt.w	r0, r1, #2147483648	; 0x80000000
 8008bf0:	4770      	bxlt	lr
 8008bf2:	f441 1180 	orr.w	r1, r1, #1048576	; 0x100000
 8008bf6:	ea4f 5252 	mov.w	r2, r2, lsr #21
 8008bfa:	f1c2 0218 	rsb	r2, r2, #24
 8008bfe:	f1c2 0c20 	rsb	ip, r2, #32
 8008c02:	fa10 f30c 	lsls.w	r3, r0, ip
 8008c06:	fa20 f002 	lsr.w	r0, r0, r2
 8008c0a:	bf18      	it	ne
 8008c0c:	f040 0001 	orrne.w	r0, r0, #1
 8008c10:	ea4f 23c1 	mov.w	r3, r1, lsl #11
 8008c14:	ea4f 23d3 	mov.w	r3, r3, lsr #11
 8008c18:	fa03 fc0c 	lsl.w	ip, r3, ip
 8008c1c:	ea40 000c 	orr.w	r0, r0, ip
 8008c20:	fa23 f302 	lsr.w	r3, r3, r2
 8008c24:	ea4f 0343 	mov.w	r3, r3, lsl #1
 8008c28:	e7cc      	b.n	8008bc4 <__aeabi_d2f+0x14>
 8008c2a:	ea7f 5362 	mvns.w	r3, r2, asr #21
 8008c2e:	d107      	bne.n	8008c40 <__aeabi_d2f+0x90>
 8008c30:	ea50 3301 	orrs.w	r3, r0, r1, lsl #12
 8008c34:	bf1e      	ittt	ne
 8008c36:	f04f 40fe 	movne.w	r0, #2130706432	; 0x7f000000
 8008c3a:	f440 0040 	orrne.w	r0, r0, #12582912	; 0xc00000
 8008c3e:	4770      	bxne	lr
 8008c40:	f001 4000 	and.w	r0, r1, #2147483648	; 0x80000000
 8008c44:	f040 40fe 	orr.w	r0, r0, #2130706432	; 0x7f000000
 8008c48:	f440 0000 	orr.w	r0, r0, #8388608	; 0x800000
 8008c4c:	4770      	bx	lr
 8008c4e:	bf00      	nop

08008c50 <__aeabi_uldivmod>:
 8008c50:	b953      	cbnz	r3, 8008c68 <__aeabi_uldivmod+0x18>
 8008c52:	b94a      	cbnz	r2, 8008c68 <__aeabi_uldivmod+0x18>
 8008c54:	2900      	cmp	r1, #0
 8008c56:	bf08      	it	eq
 8008c58:	2800      	cmpeq	r0, #0
 8008c5a:	bf1c      	itt	ne
 8008c5c:	f04f 31ff 	movne.w	r1, #4294967295
 8008c60:	f04f 30ff 	movne.w	r0, #4294967295
 8008c64:	f000 b97a 	b.w	8008f5c <__aeabi_idiv0>
 8008c68:	f1ad 0c08 	sub.w	ip, sp, #8
 8008c6c:	e96d ce04 	strd	ip, lr, [sp, #-16]!
 8008c70:	f000 f806 	bl	8008c80 <__udivmoddi4>
 8008c74:	f8dd e004 	ldr.w	lr, [sp, #4]
 8008c78:	e9dd 2302 	ldrd	r2, r3, [sp, #8]
 8008c7c:	b004      	add	sp, #16
 8008c7e:	4770      	bx	lr

08008c80 <__udivmoddi4>:
 8008c80:	e92d 47f0 	stmdb	sp!, {r4, r5, r6, r7, r8, r9, sl, lr}
 8008c84:	468c      	mov	ip, r1
 8008c86:	460d      	mov	r5, r1
 8008c88:	4604      	mov	r4, r0
 8008c8a:	9e08      	ldr	r6, [sp, #32]
 8008c8c:	2b00      	cmp	r3, #0
 8008c8e:	d151      	bne.n	8008d34 <__udivmoddi4+0xb4>
 8008c90:	428a      	cmp	r2, r1
 8008c92:	4617      	mov	r7, r2
 8008c94:	d96d      	bls.n	8008d72 <__udivmoddi4+0xf2>
 8008c96:	fab2 fe82 	clz	lr, r2
 8008c9a:	f1be 0f00 	cmp.w	lr, #0
 8008c9e:	d00b      	beq.n	8008cb8 <__udivmoddi4+0x38>
 8008ca0:	f1ce 0c20 	rsb	ip, lr, #32
 8008ca4:	fa01 f50e 	lsl.w	r5, r1, lr
 8008ca8:	fa20 fc0c 	lsr.w	ip, r0, ip
 8008cac:	fa02 f70e 	lsl.w	r7, r2, lr
 8008cb0:	ea4c 0c05 	orr.w	ip, ip, r5
 8008cb4:	fa00 f40e 	lsl.w	r4, r0, lr
 8008cb8:	ea4f 4a17 	mov.w	sl, r7, lsr #16
 8008cbc:	0c25      	lsrs	r5, r4, #16
 8008cbe:	fbbc f8fa 	udiv	r8, ip, sl
 8008cc2:	fa1f f987 	uxth.w	r9, r7
 8008cc6:	fb0a cc18 	mls	ip, sl, r8, ip
 8008cca:	ea45 450c 	orr.w	r5, r5, ip, lsl #16
 8008cce:	fb08 f309 	mul.w	r3, r8, r9
 8008cd2:	42ab      	cmp	r3, r5
 8008cd4:	d90a      	bls.n	8008cec <__udivmoddi4+0x6c>
 8008cd6:	19ed      	adds	r5, r5, r7
 8008cd8:	f108 32ff 	add.w	r2, r8, #4294967295
 8008cdc:	f080 8123 	bcs.w	8008f26 <__udivmoddi4+0x2a6>
 8008ce0:	42ab      	cmp	r3, r5
 8008ce2:	f240 8120 	bls.w	8008f26 <__udivmoddi4+0x2a6>
 8008ce6:	f1a8 0802 	sub.w	r8, r8, #2
 8008cea:	443d      	add	r5, r7
 8008cec:	1aed      	subs	r5, r5, r3
 8008cee:	b2a4      	uxth	r4, r4
 8008cf0:	fbb5 f0fa 	udiv	r0, r5, sl
 8008cf4:	fb0a 5510 	mls	r5, sl, r0, r5
 8008cf8:	ea44 4405 	orr.w	r4, r4, r5, lsl #16
 8008cfc:	fb00 f909 	mul.w	r9, r0, r9
 8008d00:	45a1      	cmp	r9, r4
 8008d02:	d909      	bls.n	8008d18 <__udivmoddi4+0x98>
 8008d04:	19e4      	adds	r4, r4, r7
 8008d06:	f100 33ff 	add.w	r3, r0, #4294967295
 8008d0a:	f080 810a 	bcs.w	8008f22 <__udivmoddi4+0x2a2>
 8008d0e:	45a1      	cmp	r9, r4
 8008d10:	f240 8107 	bls.w	8008f22 <__udivmoddi4+0x2a2>
 8008d14:	3802      	subs	r0, #2
 8008d16:	443c      	add	r4, r7
 8008d18:	eba4 0409 	sub.w	r4, r4, r9
 8008d1c:	ea40 4008 	orr.w	r0, r0, r8, lsl #16
 8008d20:	2100      	movs	r1, #0
 8008d22:	2e00      	cmp	r6, #0
 8008d24:	d061      	beq.n	8008dea <__udivmoddi4+0x16a>
 8008d26:	fa24 f40e 	lsr.w	r4, r4, lr
 8008d2a:	2300      	movs	r3, #0
 8008d2c:	6034      	str	r4, [r6, #0]
 8008d2e:	6073      	str	r3, [r6, #4]
 8008d30:	e8bd 87f0 	ldmia.w	sp!, {r4, r5, r6, r7, r8, r9, sl, pc}
 8008d34:	428b      	cmp	r3, r1
 8008d36:	d907      	bls.n	8008d48 <__udivmoddi4+0xc8>
 8008d38:	2e00      	cmp	r6, #0
 8008d3a:	d054      	beq.n	8008de6 <__udivmoddi4+0x166>
 8008d3c:	2100      	movs	r1, #0
 8008d3e:	e886 0021 	stmia.w	r6, {r0, r5}
 8008d42:	4608      	mov	r0, r1
 8008d44:	e8bd 87f0 	ldmia.w	sp!, {r4, r5, r6, r7, r8, r9, sl, pc}
 8008d48:	fab3 f183 	clz	r1, r3
 8008d4c:	2900      	cmp	r1, #0
 8008d4e:	f040 808e 	bne.w	8008e6e <__udivmoddi4+0x1ee>
 8008d52:	42ab      	cmp	r3, r5
 8008d54:	d302      	bcc.n	8008d5c <__udivmoddi4+0xdc>
 8008d56:	4282      	cmp	r2, r0
 8008d58:	f200 80fa 	bhi.w	8008f50 <__udivmoddi4+0x2d0>
 8008d5c:	1a84      	subs	r4, r0, r2
 8008d5e:	eb65 0503 	sbc.w	r5, r5, r3
 8008d62:	2001      	movs	r0, #1
 8008d64:	46ac      	mov	ip, r5
 8008d66:	2e00      	cmp	r6, #0
 8008d68:	d03f      	beq.n	8008dea <__udivmoddi4+0x16a>
 8008d6a:	e886 1010 	stmia.w	r6, {r4, ip}
 8008d6e:	e8bd 87f0 	ldmia.w	sp!, {r4, r5, r6, r7, r8, r9, sl, pc}
 8008d72:	b912      	cbnz	r2, 8008d7a <__udivmoddi4+0xfa>
 8008d74:	2701      	movs	r7, #1
 8008d76:	fbb7 f7f2 	udiv	r7, r7, r2
 8008d7a:	fab7 fe87 	clz	lr, r7
 8008d7e:	f1be 0f00 	cmp.w	lr, #0
 8008d82:	d134      	bne.n	8008dee <__udivmoddi4+0x16e>
 8008d84:	1beb      	subs	r3, r5, r7
 8008d86:	0c3a      	lsrs	r2, r7, #16
 8008d88:	fa1f fc87 	uxth.w	ip, r7
 8008d8c:	2101      	movs	r1, #1
 8008d8e:	fbb3 f8f2 	udiv	r8, r3, r2
 8008d92:	0c25      	lsrs	r5, r4, #16
 8008d94:	fb02 3318 	mls	r3, r2, r8, r3
 8008d98:	ea45 4503 	orr.w	r5, r5, r3, lsl #16
 8008d9c:	fb0c f308 	mul.w	r3, ip, r8
 8008da0:	42ab      	cmp	r3, r5
 8008da2:	d907      	bls.n	8008db4 <__udivmoddi4+0x134>
 8008da4:	19ed      	adds	r5, r5, r7
 8008da6:	f108 30ff 	add.w	r0, r8, #4294967295
 8008daa:	d202      	bcs.n	8008db2 <__udivmoddi4+0x132>
 8008dac:	42ab      	cmp	r3, r5
 8008dae:	f200 80d1 	bhi.w	8008f54 <__udivmoddi4+0x2d4>
 8008db2:	4680      	mov	r8, r0
 8008db4:	1aed      	subs	r5, r5, r3
 8008db6:	b2a3      	uxth	r3, r4
 8008db8:	fbb5 f0f2 	udiv	r0, r5, r2
 8008dbc:	fb02 5510 	mls	r5, r2, r0, r5
 8008dc0:	ea43 4405 	orr.w	r4, r3, r5, lsl #16
 8008dc4:	fb0c fc00 	mul.w	ip, ip, r0
 8008dc8:	45a4      	cmp	ip, r4
 8008dca:	d907      	bls.n	8008ddc <__udivmoddi4+0x15c>
 8008dcc:	19e4      	adds	r4, r4, r7
 8008dce:	f100 33ff 	add.w	r3, r0, #4294967295
 8008dd2:	d202      	bcs.n	8008dda <__udivmoddi4+0x15a>
 8008dd4:	45a4      	cmp	ip, r4
 8008dd6:	f200 80b8 	bhi.w	8008f4a <__udivmoddi4+0x2ca>
 8008dda:	4618      	mov	r0, r3
 8008ddc:	eba4 040c 	sub.w	r4, r4, ip
 8008de0:	ea40 4008 	orr.w	r0, r0, r8, lsl #16
 8008de4:	e79d      	b.n	8008d22 <__udivmoddi4+0xa2>
 8008de6:	4631      	mov	r1, r6
 8008de8:	4630      	mov	r0, r6
 8008dea:	e8bd 87f0 	ldmia.w	sp!, {r4, r5, r6, r7, r8, r9, sl, pc}
 8008dee:	f1ce 0420 	rsb	r4, lr, #32
 8008df2:	fa05 f30e 	lsl.w	r3, r5, lr
 8008df6:	fa07 f70e 	lsl.w	r7, r7, lr
 8008dfa:	fa20 f804 	lsr.w	r8, r0, r4
 8008dfe:	0c3a      	lsrs	r2, r7, #16
 8008e00:	fa25 f404 	lsr.w	r4, r5, r4
 8008e04:	ea48 0803 	orr.w	r8, r8, r3
 8008e08:	fbb4 f1f2 	udiv	r1, r4, r2
 8008e0c:	ea4f 4518 	mov.w	r5, r8, lsr #16
 8008e10:	fb02 4411 	mls	r4, r2, r1, r4
 8008e14:	fa1f fc87 	uxth.w	ip, r7
 8008e18:	ea45 4504 	orr.w	r5, r5, r4, lsl #16
 8008e1c:	fb01 f30c 	mul.w	r3, r1, ip
 8008e20:	42ab      	cmp	r3, r5
 8008e22:	fa00 f40e 	lsl.w	r4, r0, lr
 8008e26:	d909      	bls.n	8008e3c <__udivmoddi4+0x1bc>
 8008e28:	19ed      	adds	r5, r5, r7
 8008e2a:	f101 30ff 	add.w	r0, r1, #4294967295
 8008e2e:	f080 808a 	bcs.w	8008f46 <__udivmoddi4+0x2c6>
 8008e32:	42ab      	cmp	r3, r5
 8008e34:	f240 8087 	bls.w	8008f46 <__udivmoddi4+0x2c6>
 8008e38:	3902      	subs	r1, #2
 8008e3a:	443d      	add	r5, r7
 8008e3c:	1aeb      	subs	r3, r5, r3
 8008e3e:	fa1f f588 	uxth.w	r5, r8
 8008e42:	fbb3 f0f2 	udiv	r0, r3, r2
 8008e46:	fb02 3310 	mls	r3, r2, r0, r3
 8008e4a:	ea45 4503 	orr.w	r5, r5, r3, lsl #16
 8008e4e:	fb00 f30c 	mul.w	r3, r0, ip
 8008e52:	42ab      	cmp	r3, r5
 8008e54:	d907      	bls.n	8008e66 <__udivmoddi4+0x1e6>
 8008e56:	19ed      	adds	r5, r5, r7
 8008e58:	f100 38ff 	add.w	r8, r0, #4294967295
 8008e5c:	d26f      	bcs.n	8008f3e <__udivmoddi4+0x2be>
 8008e5e:	42ab      	cmp	r3, r5
 8008e60:	d96d      	bls.n	8008f3e <__udivmoddi4+0x2be>
 8008e62:	3802      	subs	r0, #2
 8008e64:	443d      	add	r5, r7
 8008e66:	1aeb      	subs	r3, r5, r3
 8008e68:	ea40 4101 	orr.w	r1, r0, r1, lsl #16
 8008e6c:	e78f      	b.n	8008d8e <__udivmoddi4+0x10e>
 8008e6e:	f1c1 0720 	rsb	r7, r1, #32
 8008e72:	fa22 f807 	lsr.w	r8, r2, r7
 8008e76:	408b      	lsls	r3, r1
 8008e78:	fa05 f401 	lsl.w	r4, r5, r1
 8008e7c:	ea48 0303 	orr.w	r3, r8, r3
 8008e80:	fa20 fe07 	lsr.w	lr, r0, r7
 8008e84:	ea4f 4c13 	mov.w	ip, r3, lsr #16
 8008e88:	40fd      	lsrs	r5, r7
 8008e8a:	ea4e 0e04 	orr.w	lr, lr, r4
 8008e8e:	fbb5 f9fc 	udiv	r9, r5, ip
 8008e92:	ea4f 441e 	mov.w	r4, lr, lsr #16
 8008e96:	fb0c 5519 	mls	r5, ip, r9, r5
 8008e9a:	fa1f f883 	uxth.w	r8, r3
 8008e9e:	ea44 4505 	orr.w	r5, r4, r5, lsl #16
 8008ea2:	fb09 f408 	mul.w	r4, r9, r8
 8008ea6:	42ac      	cmp	r4, r5
 8008ea8:	fa02 f201 	lsl.w	r2, r2, r1
 8008eac:	fa00 fa01 	lsl.w	sl, r0, r1
 8008eb0:	d908      	bls.n	8008ec4 <__udivmoddi4+0x244>
 8008eb2:	18ed      	adds	r5, r5, r3
 8008eb4:	f109 30ff 	add.w	r0, r9, #4294967295
 8008eb8:	d243      	bcs.n	8008f42 <__udivmoddi4+0x2c2>
 8008eba:	42ac      	cmp	r4, r5
 8008ebc:	d941      	bls.n	8008f42 <__udivmoddi4+0x2c2>
 8008ebe:	f1a9 0902 	sub.w	r9, r9, #2
 8008ec2:	441d      	add	r5, r3
 8008ec4:	1b2d      	subs	r5, r5, r4
 8008ec6:	fa1f fe8e 	uxth.w	lr, lr
 8008eca:	fbb5 f0fc 	udiv	r0, r5, ip
 8008ece:	fb0c 5510 	mls	r5, ip, r0, r5
 8008ed2:	ea4e 4405 	orr.w	r4, lr, r5, lsl #16
 8008ed6:	fb00 f808 	mul.w	r8, r0, r8
 8008eda:	45a0      	cmp	r8, r4
 8008edc:	d907      	bls.n	8008eee <__udivmoddi4+0x26e>
 8008ede:	18e4      	adds	r4, r4, r3
 8008ee0:	f100 35ff 	add.w	r5, r0, #4294967295
 8008ee4:	d229      	bcs.n	8008f3a <__udivmoddi4+0x2ba>
 8008ee6:	45a0      	cmp	r8, r4
 8008ee8:	d927      	bls.n	8008f3a <__udivmoddi4+0x2ba>
 8008eea:	3802      	subs	r0, #2
 8008eec:	441c      	add	r4, r3
 8008eee:	ea40 4009 	orr.w	r0, r0, r9, lsl #16
 8008ef2:	eba4 0408 	sub.w	r4, r4, r8
 8008ef6:	fba0 8902 	umull	r8, r9, r0, r2
 8008efa:	454c      	cmp	r4, r9
 8008efc:	46c6      	mov	lr, r8
 8008efe:	464d      	mov	r5, r9
 8008f00:	d315      	bcc.n	8008f2e <__udivmoddi4+0x2ae>
 8008f02:	d012      	beq.n	8008f2a <__udivmoddi4+0x2aa>
 8008f04:	b156      	cbz	r6, 8008f1c <__udivmoddi4+0x29c>
 8008f06:	ebba 030e 	subs.w	r3, sl, lr
 8008f0a:	eb64 0405 	sbc.w	r4, r4, r5
 8008f0e:	fa04 f707 	lsl.w	r7, r4, r7
 8008f12:	40cb      	lsrs	r3, r1
 8008f14:	431f      	orrs	r7, r3
 8008f16:	40cc      	lsrs	r4, r1
 8008f18:	6037      	str	r7, [r6, #0]
 8008f1a:	6074      	str	r4, [r6, #4]
 8008f1c:	2100      	movs	r1, #0
 8008f1e:	e8bd 87f0 	ldmia.w	sp!, {r4, r5, r6, r7, r8, r9, sl, pc}
 8008f22:	4618      	mov	r0, r3
 8008f24:	e6f8      	b.n	8008d18 <__udivmoddi4+0x98>
 8008f26:	4690      	mov	r8, r2
 8008f28:	e6e0      	b.n	8008cec <__udivmoddi4+0x6c>
 8008f2a:	45c2      	cmp	sl, r8
 8008f2c:	d2ea      	bcs.n	8008f04 <__udivmoddi4+0x284>
 8008f2e:	ebb8 0e02 	subs.w	lr, r8, r2
 8008f32:	eb69 0503 	sbc.w	r5, r9, r3
 8008f36:	3801      	subs	r0, #1
 8008f38:	e7e4      	b.n	8008f04 <__udivmoddi4+0x284>
 8008f3a:	4628      	mov	r0, r5
 8008f3c:	e7d7      	b.n	8008eee <__udivmoddi4+0x26e>
 8008f3e:	4640      	mov	r0, r8
 8008f40:	e791      	b.n	8008e66 <__udivmoddi4+0x1e6>
 8008f42:	4681      	mov	r9, r0
 8008f44:	e7be      	b.n	8008ec4 <__udivmoddi4+0x244>
 8008f46:	4601      	mov	r1, r0
 8008f48:	e778      	b.n	8008e3c <__udivmoddi4+0x1bc>
 8008f4a:	3802      	subs	r0, #2
 8008f4c:	443c      	add	r4, r7
 8008f4e:	e745      	b.n	8008ddc <__udivmoddi4+0x15c>
 8008f50:	4608      	mov	r0, r1
 8008f52:	e708      	b.n	8008d66 <__udivmoddi4+0xe6>
 8008f54:	f1a8 0802 	sub.w	r8, r8, #2
 8008f58:	443d      	add	r5, r7
 8008f5a:	e72b      	b.n	8008db4 <__udivmoddi4+0x134>

08008f5c <__aeabi_idiv0>:
 8008f5c:	4770      	bx	lr
 8008f5e:	bf00      	nop

08008f60 <uart_tftlcd_GetLcdPixelWidth>:

uint16_t uart_tftlcd_GetLcdPixelWidth(void)
{
  /* Return LCD PIXEL WIDTH */
  return LCD_PIXEL_WIDTH;
}
 8008f60:	f44f 70f0 	mov.w	r0, #480	; 0x1e0
 8008f64:	4770      	bx	lr

08008f66 <uart_tftlcd_GetLcdPixelHeight>:

uint16_t uart_tftlcd_GetLcdPixelHeight(void)
{
  /* Return LCD PIXEL HEIGHT */
  return LCD_PIXEL_HEIGHT;
}
 8008f66:	f44f 7087 	mov.w	r0, #270	; 0x10e
 8008f6a:	4770      	bx	lr

08008f6c <uart_tftlcd_Init>:
{
 8008f6c:	b508      	push	{r3, lr}
	 HAL_GPIO_WritePin(LCD_POWER_GPIO_Port, LCD_POWER_Pin, GPIO_PIN_SET);
 8008f6e:	2201      	movs	r2, #1
 8008f70:	f44f 7180 	mov.w	r1, #256	; 0x100
 8008f74:	4807      	ldr	r0, [pc, #28]	; (8008f94 <uart_tftlcd_Init+0x28>)
 8008f76:	f000 fe9b 	bl	8009cb0 <HAL_GPIO_WritePin>
	 HAL_Delay(500);
 8008f7a:	f44f 70fa 	mov.w	r0, #500	; 0x1f4
 8008f7e:	f000 f997 	bl	80092b0 <HAL_Delay>
	TFT_Serial((uint8_t*)"bkcmd=0");
 8008f82:	4805      	ldr	r0, [pc, #20]	; (8008f98 <uart_tftlcd_Init+0x2c>)
 8008f84:	f001 feda 	bl	800ad3c <TFT_Serial>
	TFT_Serial((uint8_t*)"page 1");
 8008f88:	4804      	ldr	r0, [pc, #16]	; (8008f9c <uart_tftlcd_Init+0x30>)
}
 8008f8a:	e8bd 4008 	ldmia.w	sp!, {r3, lr}
	TFT_Serial((uint8_t*)"page 1");
 8008f8e:	f001 bed5 	b.w	800ad3c <TFT_Serial>
 8008f92:	bf00      	nop
 8008f94:	40020800 	.word	0x40020800
 8008f98:	080116db 	.word	0x080116db
 8008f9c:	080116e3 	.word	0x080116e3

08008fa0 <uart_touch_TS_DetectTouch>:
  * @param  DeviceAddr: Device address on communication Bus.
  * @retval Touch detected state.
  */
uint8_t uart_touch_TS_DetectTouch(uint16_t DeviceAddr)
{
	if(touch_state == pba_true)
 8008fa0:	4a04      	ldr	r2, [pc, #16]	; (8008fb4 <uart_touch_TS_DetectTouch+0x14>)
 8008fa2:	7810      	ldrb	r0, [r2, #0]
 8008fa4:	b2c3      	uxtb	r3, r0
 8008fa6:	2b01      	cmp	r3, #1
 8008fa8:	f04f 0000 	mov.w	r0, #0
	{
		touch_state = pba_false;
 8008fac:	bf04      	itt	eq
 8008fae:	7010      	strbeq	r0, [r2, #0]

		return 1;
 8008fb0:	4618      	moveq	r0, r3
	}
	else return 0;
}
 8008fb2:	4770      	bx	lr
 8008fb4:	200017e9 	.word	0x200017e9

08008fb8 <uart_touch_TS_GetXY>:
  * @param  X: Pointer to X position value
  * @param  Y: Pointer to Y position value
  * @retval None.
  */
void uart_touch_TS_GetXY(uint16_t DeviceAddr, uint16_t *X, uint16_t *Y)
{
 8008fb8:	b510      	push	{r4, lr}
	*X = ((uint16_t)g_touch_buff[1] << 8) + g_touch_buff[2];
 8008fba:	4b06      	ldr	r3, [pc, #24]	; (8008fd4 <uart_touch_TS_GetXY+0x1c>)
 8008fbc:	785c      	ldrb	r4, [r3, #1]
 8008fbe:	7898      	ldrb	r0, [r3, #2]
 8008fc0:	eb00 2004 	add.w	r0, r0, r4, lsl #8
 8008fc4:	8008      	strh	r0, [r1, #0]
	*Y = ((uint16_t)g_touch_buff[3] << 8) + g_touch_buff[4];
 8008fc6:	78d9      	ldrb	r1, [r3, #3]
 8008fc8:	791b      	ldrb	r3, [r3, #4]
 8008fca:	eb03 2301 	add.w	r3, r3, r1, lsl #8
 8008fce:	8013      	strh	r3, [r2, #0]
 8008fd0:	bd10      	pop	{r4, pc}
 8008fd2:	bf00      	nop
 8008fd4:	200019a0 	.word	0x200019a0

08008fd8 <BSP_LCD_Init>:
LCD_DrawPropTypeDef DrawProp[MAX_LAYER_NUMBER];
uint32_t ActiveLayer = 0;
void Debug_serial(char *buff);

uint8_t BSP_LCD_Init(void)
{
 8008fd8:	b508      	push	{r3, lr}
	/* Select the device */
	LcdDrv = &uart_tftlcd_drv;
 8008fda:	4a0a      	ldr	r2, [pc, #40]	; (8009004 <BSP_LCD_Init+0x2c>)
 8008fdc:	4b0a      	ldr	r3, [pc, #40]	; (8009008 <BSP_LCD_Init+0x30>)
 8008fde:	6013      	str	r3, [r2, #0]

	/* LCD Init */
	LcdDrv->Init();
 8008fe0:	681b      	ldr	r3, [r3, #0]
 8008fe2:	4798      	blx	r3

	//Init font info
	DrawProp[ActiveLayer].Width = 8;
 8008fe4:	4b09      	ldr	r3, [pc, #36]	; (800900c <BSP_LCD_Init+0x34>)
 8008fe6:	490a      	ldr	r1, [pc, #40]	; (8009010 <BSP_LCD_Init+0x38>)
 8008fe8:	681a      	ldr	r2, [r3, #0]
 8008fea:	230c      	movs	r3, #12
 8008fec:	4353      	muls	r3, r2
 8008fee:	18ca      	adds	r2, r1, r3
 8008ff0:	2008      	movs	r0, #8
 8008ff2:	8110      	strh	r0, [r2, #8]
	DrawProp[ActiveLayer].Height = 16;
 8008ff4:	2010      	movs	r0, #16
 8008ff6:	8150      	strh	r0, [r2, #10]
  * @brief  Sets the LCD text color.
  * @param  Color: Text color code RGB(5-6-5)
  */
void BSP_LCD_SetTextColor(uint32_t Color)
{
  DrawProp[ActiveLayer].TextColor = Color;
 8008ff8:	2000      	movs	r0, #0
 8008ffa:	50c8      	str	r0, [r1, r3]
  * @brief  Sets the LCD background color.
  * @param  Color: Background color code RGB(5-6-5)
  */
void BSP_LCD_SetBackColor(uint32_t Color)
{
  DrawProp[ActiveLayer].BackColor = Color;
 8008ffc:	2305      	movs	r3, #5
 8008ffe:	6053      	str	r3, [r2, #4]
}
 8009000:	bd08      	pop	{r3, pc}
 8009002:	bf00      	nop
 8009004:	20001930 	.word	0x20001930
 8009008:	20000000 	.word	0x20000000
 800900c:	2000179c 	.word	0x2000179c
 8009010:	20001924 	.word	0x20001924

08009014 <BSP_LCD_SetTextColor>:
  DrawProp[ActiveLayer].TextColor = Color;
 8009014:	4b03      	ldr	r3, [pc, #12]	; (8009024 <BSP_LCD_SetTextColor+0x10>)
 8009016:	681a      	ldr	r2, [r3, #0]
 8009018:	230c      	movs	r3, #12
 800901a:	4353      	muls	r3, r2
 800901c:	4a02      	ldr	r2, [pc, #8]	; (8009028 <BSP_LCD_SetTextColor+0x14>)
 800901e:	50d0      	str	r0, [r2, r3]
 8009020:	4770      	bx	lr
 8009022:	bf00      	nop
 8009024:	2000179c 	.word	0x2000179c
 8009028:	20001924 	.word	0x20001924

0800902c <BSP_LCD_GetXSize>:
/**
  * @brief  Gets the LCD X size.
  * @retval Used LCD X size
  */
uint32_t BSP_LCD_GetXSize(void)
{
 800902c:	b508      	push	{r3, lr}
  return LcdDrv->GetLcdPixelWidth();
 800902e:	4b02      	ldr	r3, [pc, #8]	; (8009038 <BSP_LCD_GetXSize+0xc>)
 8009030:	681b      	ldr	r3, [r3, #0]
 8009032:	6a9b      	ldr	r3, [r3, #40]	; 0x28
 8009034:	4798      	blx	r3
}
 8009036:	bd08      	pop	{r3, pc}
 8009038:	20001930 	.word	0x20001930

0800903c <BSP_LCD_Clear>:

	TFT_Serial(lcd_buffer);
}

void BSP_LCD_Clear(uint32_t color)
{
 800903c:	e92d 41ff 	stmdb	sp!, {r0, r1, r2, r3, r4, r5, r6, r7, r8, lr}
	char *text = NULL;

	if(color == WHITE)
 8009040:	b370      	cbz	r0, 80090a0 <BSP_LCD_Clear+0x64>
	  text = "WHITE";
	else if(color == RED)
 8009042:	2801      	cmp	r0, #1
 8009044:	d02e      	beq.n	80090a4 <BSP_LCD_Clear+0x68>
	  text = "RED";
	else if(color == GREEN)
 8009046:	2802      	cmp	r0, #2
 8009048:	d02e      	beq.n	80090a8 <BSP_LCD_Clear+0x6c>
	  text = "GREEN";
	else if(color == BLUE)
 800904a:	2803      	cmp	r0, #3
 800904c:	d02e      	beq.n	80090ac <BSP_LCD_Clear+0x70>
	  text = "BLUE";
	else if(color == YELLOW)
 800904e:	2804      	cmp	r0, #4
 8009050:	d02e      	beq.n	80090b0 <BSP_LCD_Clear+0x74>
	  text = "YELLOW";
	else if(color == BLACK)
		  text = "BLACK";
 8009052:	4b18      	ldr	r3, [pc, #96]	; (80090b4 <BSP_LCD_Clear+0x78>)
 8009054:	4c18      	ldr	r4, [pc, #96]	; (80090b8 <BSP_LCD_Clear+0x7c>)
 8009056:	2805      	cmp	r0, #5
 8009058:	bf08      	it	eq
 800905a:	461c      	moveq	r4, r3
	else
	  text = "WHITE";

	for(int Line = 0; Line < 13; Line++)
	{
		sprintf((char*)lcd_buffer, "fill %d,%d,%d,%d,%s", 4, (Line * DrawProp[ActiveLayer].Height) + 62
 800905c:	f8df 8078 	ldr.w	r8, [pc, #120]	; 80090d8 <BSP_LCD_Clear+0x9c>
 8009060:	4f16      	ldr	r7, [pc, #88]	; (80090bc <BSP_LCD_Clear+0x80>)
 8009062:	4e17      	ldr	r6, [pc, #92]	; (80090c0 <BSP_LCD_Clear+0x84>)
	for(int Line = 0; Line < 13; Line++)
 8009064:	2500      	movs	r5, #0
		sprintf((char*)lcd_buffer, "fill %d,%d,%d,%d,%s", 4, (Line * DrawProp[ActiveLayer].Height) + 62
 8009066:	f8d8 2000 	ldr.w	r2, [r8]
 800906a:	230c      	movs	r3, #12
 800906c:	fb03 7202 	mla	r2, r3, r2, r7
 8009070:	4630      	mov	r0, r6
 8009072:	8951      	ldrh	r1, [r2, #10]
 8009074:	9101      	str	r1, [sp, #4]
 8009076:	9402      	str	r4, [sp, #8]
 8009078:	fb05 f301 	mul.w	r3, r5, r1
									,41*DrawProp[ActiveLayer].Width, DrawProp[ActiveLayer].Height, text);
 800907c:	8911      	ldrh	r1, [r2, #8]
		sprintf((char*)lcd_buffer, "fill %d,%d,%d,%d,%s", 4, (Line * DrawProp[ActiveLayer].Height) + 62
 800907e:	2229      	movs	r2, #41	; 0x29
 8009080:	434a      	muls	r2, r1
 8009082:	9200      	str	r2, [sp, #0]
 8009084:	333e      	adds	r3, #62	; 0x3e
 8009086:	2204      	movs	r2, #4
 8009088:	490e      	ldr	r1, [pc, #56]	; (80090c4 <BSP_LCD_Clear+0x88>)
 800908a:	f006 fa7f 	bl	800f58c <siprintf>
	for(int Line = 0; Line < 13; Line++)
 800908e:	3501      	adds	r5, #1

		TFT_Serial(lcd_buffer);
 8009090:	4630      	mov	r0, r6
 8009092:	f001 fe53 	bl	800ad3c <TFT_Serial>
	for(int Line = 0; Line < 13; Line++)
 8009096:	2d0d      	cmp	r5, #13
 8009098:	d1e5      	bne.n	8009066 <BSP_LCD_Clear+0x2a>
	}
}
 800909a:	b004      	add	sp, #16
 800909c:	e8bd 81f0 	ldmia.w	sp!, {r4, r5, r6, r7, r8, pc}
	  text = "WHITE";
 80090a0:	4c05      	ldr	r4, [pc, #20]	; (80090b8 <BSP_LCD_Clear+0x7c>)
 80090a2:	e7db      	b.n	800905c <BSP_LCD_Clear+0x20>
	  text = "RED";
 80090a4:	4c08      	ldr	r4, [pc, #32]	; (80090c8 <BSP_LCD_Clear+0x8c>)
 80090a6:	e7d9      	b.n	800905c <BSP_LCD_Clear+0x20>
	  text = "GREEN";
 80090a8:	4c08      	ldr	r4, [pc, #32]	; (80090cc <BSP_LCD_Clear+0x90>)
 80090aa:	e7d7      	b.n	800905c <BSP_LCD_Clear+0x20>
	  text = "BLUE";
 80090ac:	4c08      	ldr	r4, [pc, #32]	; (80090d0 <BSP_LCD_Clear+0x94>)
 80090ae:	e7d5      	b.n	800905c <BSP_LCD_Clear+0x20>
	  text = "YELLOW";
 80090b0:	4c08      	ldr	r4, [pc, #32]	; (80090d4 <BSP_LCD_Clear+0x98>)
 80090b2:	e7d3      	b.n	800905c <BSP_LCD_Clear+0x20>
 80090b4:	0801171a 	.word	0x0801171a
 80090b8:	080116ea 	.word	0x080116ea
 80090bc:	20001924 	.word	0x20001924
 80090c0:	200017f8 	.word	0x200017f8
 80090c4:	08011706 	.word	0x08011706
 80090c8:	080116f0 	.word	0x080116f0
 80090cc:	080116f4 	.word	0x080116f4
 80090d0:	080116fa 	.word	0x080116fa
 80090d4:	080116ff 	.word	0x080116ff
 80090d8:	2000179c 	.word	0x2000179c

080090dc <BSP_LCD_DisplayStringAtLine>:
	//uint8_t size = 0;
	//uint8_t *ptr_buffer = NULL;
	char *fore_col = NULL;
	char *back_col = NULL;

	if(DrawProp[ActiveLayer].TextColor == WHITE) fore_col = "WHITE";
 80090dc:	4b2b      	ldr	r3, [pc, #172]	; (800918c <BSP_LCD_DisplayStringAtLine+0xb0>)
{
 80090de:	b570      	push	{r4, r5, r6, lr}
	if(DrawProp[ActiveLayer].TextColor == WHITE) fore_col = "WHITE";
 80090e0:	681d      	ldr	r5, [r3, #0]
 80090e2:	4e2b      	ldr	r6, [pc, #172]	; (8009190 <BSP_LCD_DisplayStringAtLine+0xb4>)
 80090e4:	230c      	movs	r3, #12
 80090e6:	436b      	muls	r3, r5
{
 80090e8:	b086      	sub	sp, #24
	if(DrawProp[ActiveLayer].TextColor == WHITE) fore_col = "WHITE";
 80090ea:	58f2      	ldr	r2, [r6, r3]
 80090ec:	2a00      	cmp	r2, #0
 80090ee:	d039      	beq.n	8009164 <BSP_LCD_DisplayStringAtLine+0x88>
	else if(DrawProp[ActiveLayer].TextColor == RED) fore_col = "RED";
 80090f0:	2a01      	cmp	r2, #1
 80090f2:	d039      	beq.n	8009168 <BSP_LCD_DisplayStringAtLine+0x8c>
	else if(DrawProp[ActiveLayer].TextColor == GREEN) fore_col = "GREEN";
 80090f4:	2a02      	cmp	r2, #2
 80090f6:	d039      	beq.n	800916c <BSP_LCD_DisplayStringAtLine+0x90>
	else if(DrawProp[ActiveLayer].TextColor == BLUE) fore_col = "BLUE";
 80090f8:	2a03      	cmp	r2, #3
 80090fa:	d039      	beq.n	8009170 <BSP_LCD_DisplayStringAtLine+0x94>
	else if(DrawProp[ActiveLayer].TextColor == YELLOW) fore_col = "YELLOW";
 80090fc:	2a04      	cmp	r2, #4
 80090fe:	d039      	beq.n	8009174 <BSP_LCD_DisplayStringAtLine+0x98>
	else if(DrawProp[ActiveLayer].TextColor == BLACK) fore_col = "BLACK";
 8009100:	2a05      	cmp	r2, #5
 8009102:	4a24      	ldr	r2, [pc, #144]	; (8009194 <BSP_LCD_DisplayStringAtLine+0xb8>)
 8009104:	bf18      	it	ne
 8009106:	2200      	movne	r2, #0

	if(DrawProp[ActiveLayer].BackColor == WHITE) back_col = "WHITE";
 8009108:	230c      	movs	r3, #12
 800910a:	fb03 6305 	mla	r3, r3, r5, r6
 800910e:	685c      	ldr	r4, [r3, #4]
 8009110:	2c00      	cmp	r4, #0
 8009112:	d031      	beq.n	8009178 <BSP_LCD_DisplayStringAtLine+0x9c>
	else if(DrawProp[ActiveLayer].BackColor == RED) back_col = "RED";
 8009114:	2c01      	cmp	r4, #1
 8009116:	d031      	beq.n	800917c <BSP_LCD_DisplayStringAtLine+0xa0>
	else if(DrawProp[ActiveLayer].BackColor == GREEN) back_col = "GREEN";
 8009118:	2c02      	cmp	r4, #2
 800911a:	d031      	beq.n	8009180 <BSP_LCD_DisplayStringAtLine+0xa4>
	else if(DrawProp[ActiveLayer].BackColor == BLUE) back_col = "BLUE";
 800911c:	2c03      	cmp	r4, #3
 800911e:	d031      	beq.n	8009184 <BSP_LCD_DisplayStringAtLine+0xa8>
	else if(DrawProp[ActiveLayer].BackColor == YELLOW) back_col = "YELLOW";
 8009120:	2c04      	cmp	r4, #4
 8009122:	d031      	beq.n	8009188 <BSP_LCD_DisplayStringAtLine+0xac>
	else if(DrawProp[ActiveLayer].BackColor == BLACK) back_col = "BLACK";
 8009124:	2c05      	cmp	r4, #5
 8009126:	4c1b      	ldr	r4, [pc, #108]	; (8009194 <BSP_LCD_DisplayStringAtLine+0xb8>)
 8009128:	bf18      	it	ne
 800912a:	2400      	movne	r4, #0
	while(*ptr_buffer++)
	{
		size ++;
	}
*/
	sprintf((char*)lcd_buffer, "xstr %d,%d,%d,%d,4,%s,%s,%d,1,1,\"%s\"", 4, (Line * DrawProp[ActiveLayer].Height) + 62
 800912c:	230c      	movs	r3, #12
 800912e:	fb03 6505 	mla	r5, r3, r5, r6
 8009132:	896e      	ldrh	r6, [r5, #10]
 8009134:	9105      	str	r1, [sp, #20]
 8009136:	2100      	movs	r1, #0
 8009138:	9202      	str	r2, [sp, #8]
 800913a:	9104      	str	r1, [sp, #16]
 800913c:	9403      	str	r4, [sp, #12]
 800913e:	9601      	str	r6, [sp, #4]
					,41*DrawProp[ActiveLayer].Width, DrawProp[ActiveLayer].Height, fore_col, back_col, 0, ptr);
 8009140:	8929      	ldrh	r1, [r5, #8]
	sprintf((char*)lcd_buffer, "xstr %d,%d,%d,%d,4,%s,%s,%d,1,1,\"%s\"", 4, (Line * DrawProp[ActiveLayer].Height) + 62
 8009142:	2229      	movs	r2, #41	; 0x29
 8009144:	fb06 f300 	mul.w	r3, r6, r0
 8009148:	434a      	muls	r2, r1
 800914a:	9200      	str	r2, [sp, #0]
 800914c:	333e      	adds	r3, #62	; 0x3e
 800914e:	2204      	movs	r2, #4
 8009150:	4911      	ldr	r1, [pc, #68]	; (8009198 <BSP_LCD_DisplayStringAtLine+0xbc>)
 8009152:	4812      	ldr	r0, [pc, #72]	; (800919c <BSP_LCD_DisplayStringAtLine+0xc0>)
 8009154:	f006 fa1a 	bl	800f58c <siprintf>
#if 0
	Debug_serial((char*)lcd_buffer);
	Debug_serial("\r\n");
#endif

	TFT_Serial(lcd_buffer);
 8009158:	4810      	ldr	r0, [pc, #64]	; (800919c <BSP_LCD_DisplayStringAtLine+0xc0>)
}
 800915a:	b006      	add	sp, #24
 800915c:	e8bd 4070 	ldmia.w	sp!, {r4, r5, r6, lr}
	TFT_Serial(lcd_buffer);
 8009160:	f001 bdec 	b.w	800ad3c <TFT_Serial>
	if(DrawProp[ActiveLayer].TextColor == WHITE) fore_col = "WHITE";
 8009164:	4a0e      	ldr	r2, [pc, #56]	; (80091a0 <BSP_LCD_DisplayStringAtLine+0xc4>)
 8009166:	e7cf      	b.n	8009108 <BSP_LCD_DisplayStringAtLine+0x2c>
	else if(DrawProp[ActiveLayer].TextColor == RED) fore_col = "RED";
 8009168:	4a0e      	ldr	r2, [pc, #56]	; (80091a4 <BSP_LCD_DisplayStringAtLine+0xc8>)
 800916a:	e7cd      	b.n	8009108 <BSP_LCD_DisplayStringAtLine+0x2c>
	else if(DrawProp[ActiveLayer].TextColor == GREEN) fore_col = "GREEN";
 800916c:	4a0e      	ldr	r2, [pc, #56]	; (80091a8 <BSP_LCD_DisplayStringAtLine+0xcc>)
 800916e:	e7cb      	b.n	8009108 <BSP_LCD_DisplayStringAtLine+0x2c>
	else if(DrawProp[ActiveLayer].TextColor == BLUE) fore_col = "BLUE";
 8009170:	4a0e      	ldr	r2, [pc, #56]	; (80091ac <BSP_LCD_DisplayStringAtLine+0xd0>)
 8009172:	e7c9      	b.n	8009108 <BSP_LCD_DisplayStringAtLine+0x2c>
	else if(DrawProp[ActiveLayer].TextColor == YELLOW) fore_col = "YELLOW";
 8009174:	4a0e      	ldr	r2, [pc, #56]	; (80091b0 <BSP_LCD_DisplayStringAtLine+0xd4>)
 8009176:	e7c7      	b.n	8009108 <BSP_LCD_DisplayStringAtLine+0x2c>
	if(DrawProp[ActiveLayer].BackColor == WHITE) back_col = "WHITE";
 8009178:	4c09      	ldr	r4, [pc, #36]	; (80091a0 <BSP_LCD_DisplayStringAtLine+0xc4>)
 800917a:	e7d7      	b.n	800912c <BSP_LCD_DisplayStringAtLine+0x50>
	else if(DrawProp[ActiveLayer].BackColor == RED) back_col = "RED";
 800917c:	4c09      	ldr	r4, [pc, #36]	; (80091a4 <BSP_LCD_DisplayStringAtLine+0xc8>)
 800917e:	e7d5      	b.n	800912c <BSP_LCD_DisplayStringAtLine+0x50>
	else if(DrawProp[ActiveLayer].BackColor == GREEN) back_col = "GREEN";
 8009180:	4c09      	ldr	r4, [pc, #36]	; (80091a8 <BSP_LCD_DisplayStringAtLine+0xcc>)
 8009182:	e7d3      	b.n	800912c <BSP_LCD_DisplayStringAtLine+0x50>
	else if(DrawProp[ActiveLayer].BackColor == BLUE) back_col = "BLUE";
 8009184:	4c09      	ldr	r4, [pc, #36]	; (80091ac <BSP_LCD_DisplayStringAtLine+0xd0>)
 8009186:	e7d1      	b.n	800912c <BSP_LCD_DisplayStringAtLine+0x50>
	else if(DrawProp[ActiveLayer].BackColor == YELLOW) back_col = "YELLOW";
 8009188:	4c09      	ldr	r4, [pc, #36]	; (80091b0 <BSP_LCD_DisplayStringAtLine+0xd4>)
 800918a:	e7cf      	b.n	800912c <BSP_LCD_DisplayStringAtLine+0x50>
 800918c:	2000179c 	.word	0x2000179c
 8009190:	20001924 	.word	0x20001924
 8009194:	0801171a 	.word	0x0801171a
 8009198:	08011720 	.word	0x08011720
 800919c:	200017f8 	.word	0x200017f8
 80091a0:	080116ea 	.word	0x080116ea
 80091a4:	080116f0 	.word	0x080116f0
 80091a8:	080116f4 	.word	0x080116f4
 80091ac:	080116fa 	.word	0x080116fa
 80091b0:	080116ff 	.word	0x080116ff

080091b4 <BSP_TS_Init>:
  */
uint8_t BSP_TS_Init(uint16_t xSize, uint16_t ySize)
{
	uint8_t status = TS_OK;

	ts_driver = &uart_touch_ts_drv;
 80091b4:	4b02      	ldr	r3, [pc, #8]	; (80091c0 <BSP_TS_Init+0xc>)
 80091b6:	4a03      	ldr	r2, [pc, #12]	; (80091c4 <BSP_TS_Init+0x10>)
 80091b8:	601a      	str	r2, [r3, #0]

	return status;
}
 80091ba:	2000      	movs	r0, #0
 80091bc:	4770      	bx	lr
 80091be:	bf00      	nop
 80091c0:	200017a0 	.word	0x200017a0
 80091c4:	20000038 	.word	0x20000038

080091c8 <BSP_TS_GetState>:

uint8_t BSP_TS_GetState(TS_StateTypeDef *TS_State)
{
 80091c8:	b573      	push	{r0, r1, r4, r5, r6, lr}
  uint16_t x = 0, y = 0;

  TS_State->TouchDetected = ts_driver->DetectTouch(0);
 80091ca:	4e10      	ldr	r6, [pc, #64]	; (800920c <BSP_TS_GetState+0x44>)
 80091cc:	6833      	ldr	r3, [r6, #0]
  uint16_t x = 0, y = 0;
 80091ce:	2400      	movs	r4, #0
{
 80091d0:	4605      	mov	r5, r0
  uint16_t x = 0, y = 0;
 80091d2:	f8ad 4004 	strh.w	r4, [sp, #4]
 80091d6:	f8ad 4006 	strh.w	r4, [sp, #6]
  TS_State->TouchDetected = ts_driver->DetectTouch(0);
 80091da:	691b      	ldr	r3, [r3, #16]
 80091dc:	4620      	mov	r0, r4
 80091de:	4798      	blx	r3
 80091e0:	b280      	uxth	r0, r0
 80091e2:	8028      	strh	r0, [r5, #0]

  if(TS_State->TouchDetected)
 80091e4:	b178      	cbz	r0, 8009206 <BSP_TS_GetState+0x3e>
  {
	  ts_driver->GetXY(0, &x, &y);
 80091e6:	6833      	ldr	r3, [r6, #0]
 80091e8:	4620      	mov	r0, r4
 80091ea:	695b      	ldr	r3, [r3, #20]
 80091ec:	f10d 0206 	add.w	r2, sp, #6
 80091f0:	a901      	add	r1, sp, #4
 80091f2:	4798      	blx	r3

	  TS_State->x = x;
 80091f4:	f8bd 3004 	ldrh.w	r3, [sp, #4]
 80091f8:	806b      	strh	r3, [r5, #2]
	  TS_State->y = y;
 80091fa:	f8bd 3006 	ldrh.w	r3, [sp, #6]
 80091fe:	80ab      	strh	r3, [r5, #4]

	  return TS_OK;
 8009200:	4620      	mov	r0, r4
  }

  return TS_ERROR;
}
 8009202:	b002      	add	sp, #8
 8009204:	bd70      	pop	{r4, r5, r6, pc}
  return TS_ERROR;
 8009206:	2001      	movs	r0, #1
 8009208:	e7fb      	b.n	8009202 <BSP_TS_GetState+0x3a>
 800920a:	bf00      	nop
 800920c:	200017a0 	.word	0x200017a0

08009210 <HAL_InitTick>:
  *       implementation  in user file.
  * @param TickPriority Tick interrupt priority.
  * @retval HAL status
  */
__weak HAL_StatusTypeDef HAL_InitTick(uint32_t TickPriority)
{
 8009210:	b538      	push	{r3, r4, r5, lr}
  /* Configure the SysTick to have interrupt in 1ms time basis*/
  if (HAL_SYSTICK_Config(SystemCoreClock / (1000U / uwTickFreq)) > 0U)
 8009212:	4a0e      	ldr	r2, [pc, #56]	; (800924c <HAL_InitTick+0x3c>)
 8009214:	4b0e      	ldr	r3, [pc, #56]	; (8009250 <HAL_InitTick+0x40>)
{
 8009216:	4605      	mov	r5, r0
  if (HAL_SYSTICK_Config(SystemCoreClock / (1000U / uwTickFreq)) > 0U)
 8009218:	7818      	ldrb	r0, [r3, #0]
 800921a:	f44f 737a 	mov.w	r3, #1000	; 0x3e8
 800921e:	fbb3 f3f0 	udiv	r3, r3, r0
 8009222:	6810      	ldr	r0, [r2, #0]
 8009224:	fbb0 f0f3 	udiv	r0, r0, r3
 8009228:	f000 fac4 	bl	80097b4 <HAL_SYSTICK_Config>
 800922c:	4604      	mov	r4, r0
 800922e:	b958      	cbnz	r0, 8009248 <HAL_InitTick+0x38>
  {
    return HAL_ERROR;
  }

  /* Configure the SysTick IRQ priority */
  if (TickPriority < (1UL << __NVIC_PRIO_BITS))
 8009230:	2d0f      	cmp	r5, #15
 8009232:	d809      	bhi.n	8009248 <HAL_InitTick+0x38>
  {
    HAL_NVIC_SetPriority(SysTick_IRQn, TickPriority, 0U);
 8009234:	4602      	mov	r2, r0
 8009236:	4629      	mov	r1, r5
 8009238:	f04f 30ff 	mov.w	r0, #4294967295
 800923c:	f000 fa78 	bl	8009730 <HAL_NVIC_SetPriority>
    uwTickPrio = TickPriority;
 8009240:	4b04      	ldr	r3, [pc, #16]	; (8009254 <HAL_InitTick+0x44>)
 8009242:	4620      	mov	r0, r4
 8009244:	601d      	str	r5, [r3, #0]
 8009246:	bd38      	pop	{r3, r4, r5, pc}
    return HAL_ERROR;
 8009248:	2001      	movs	r0, #1
    return HAL_ERROR;
  }

  /* Return function status */
  return HAL_OK;
}
 800924a:	bd38      	pop	{r3, r4, r5, pc}
 800924c:	200015ac 	.word	0x200015ac
 8009250:	20000060 	.word	0x20000060
 8009254:	20000064 	.word	0x20000064

08009258 <HAL_Init>:
{
 8009258:	b508      	push	{r3, lr}
  __HAL_FLASH_INSTRUCTION_CACHE_ENABLE();
 800925a:	4b0b      	ldr	r3, [pc, #44]	; (8009288 <HAL_Init+0x30>)
 800925c:	681a      	ldr	r2, [r3, #0]
 800925e:	f442 7200 	orr.w	r2, r2, #512	; 0x200
 8009262:	601a      	str	r2, [r3, #0]
  __HAL_FLASH_DATA_CACHE_ENABLE();
 8009264:	681a      	ldr	r2, [r3, #0]
 8009266:	f442 6280 	orr.w	r2, r2, #1024	; 0x400
 800926a:	601a      	str	r2, [r3, #0]
  __HAL_FLASH_PREFETCH_BUFFER_ENABLE();
 800926c:	681a      	ldr	r2, [r3, #0]
 800926e:	f442 7280 	orr.w	r2, r2, #256	; 0x100
 8009272:	601a      	str	r2, [r3, #0]
  HAL_NVIC_SetPriorityGrouping(NVIC_PRIORITYGROUP_4);
 8009274:	2003      	movs	r0, #3
 8009276:	f000 fa49 	bl	800970c <HAL_NVIC_SetPriorityGrouping>
  HAL_InitTick(TICK_INT_PRIORITY);
 800927a:	2000      	movs	r0, #0
 800927c:	f7ff ffc8 	bl	8009210 <HAL_InitTick>
  HAL_MspInit();
 8009280:	f004 fa62 	bl	800d748 <HAL_MspInit>
}
 8009284:	2000      	movs	r0, #0
 8009286:	bd08      	pop	{r3, pc}
 8009288:	40023c00 	.word	0x40023c00

0800928c <HAL_IncTick>:
  *      implementations in user file.
  * @retval None
  */
__weak void HAL_IncTick(void)
{
  uwTick += uwTickFreq;
 800928c:	4a03      	ldr	r2, [pc, #12]	; (800929c <HAL_IncTick+0x10>)
 800928e:	4b04      	ldr	r3, [pc, #16]	; (80092a0 <HAL_IncTick+0x14>)
 8009290:	6811      	ldr	r1, [r2, #0]
 8009292:	781b      	ldrb	r3, [r3, #0]
 8009294:	440b      	add	r3, r1
 8009296:	6013      	str	r3, [r2, #0]
 8009298:	4770      	bx	lr
 800929a:	bf00      	nop
 800929c:	20001934 	.word	0x20001934
 80092a0:	20000060 	.word	0x20000060

080092a4 <HAL_GetTick>:
  *       implementations in user file.
  * @retval tick value
  */
__weak uint32_t HAL_GetTick(void)
{
  return uwTick;
 80092a4:	4b01      	ldr	r3, [pc, #4]	; (80092ac <HAL_GetTick+0x8>)
 80092a6:	6818      	ldr	r0, [r3, #0]
}
 80092a8:	4770      	bx	lr
 80092aa:	bf00      	nop
 80092ac:	20001934 	.word	0x20001934

080092b0 <HAL_Delay>:
  *       implementations in user file.
  * @param Delay specifies the delay time length, in milliseconds.
  * @retval None
  */
__weak void HAL_Delay(uint32_t Delay)
{
 80092b0:	b538      	push	{r3, r4, r5, lr}
 80092b2:	4604      	mov	r4, r0
  uint32_t tickstart = HAL_GetTick();
 80092b4:	f7ff fff6 	bl	80092a4 <HAL_GetTick>
  uint32_t wait = Delay;

  /* Add a freq to guarantee minimum wait */
  if (wait < HAL_MAX_DELAY)
 80092b8:	1c63      	adds	r3, r4, #1
  {
    wait += (uint32_t)(uwTickFreq);
 80092ba:	bf1c      	itt	ne
 80092bc:	4b05      	ldrne	r3, [pc, #20]	; (80092d4 <HAL_Delay+0x24>)
 80092be:	781b      	ldrbne	r3, [r3, #0]
  uint32_t tickstart = HAL_GetTick();
 80092c0:	4605      	mov	r5, r0
    wait += (uint32_t)(uwTickFreq);
 80092c2:	bf18      	it	ne
 80092c4:	18e4      	addne	r4, r4, r3
  }

  while((HAL_GetTick() - tickstart) < wait)
 80092c6:	f7ff ffed 	bl	80092a4 <HAL_GetTick>
 80092ca:	1b40      	subs	r0, r0, r5
 80092cc:	4284      	cmp	r4, r0
 80092ce:	d8fa      	bhi.n	80092c6 <HAL_Delay+0x16>
  {
  }
}
 80092d0:	bd38      	pop	{r3, r4, r5, pc}
 80092d2:	bf00      	nop
 80092d4:	20000060 	.word	0x20000060

080092d8 <HAL_ADC_Init>:
  * @param  hadc pointer to a ADC_HandleTypeDef structure that contains
  *         the configuration information for the specified ADC.  
  * @retval HAL status
  */
HAL_StatusTypeDef HAL_ADC_Init(ADC_HandleTypeDef* hadc)
{
 80092d8:	b538      	push	{r3, r4, r5, lr}
  HAL_StatusTypeDef tmp_hal_status = HAL_OK;
  
  /* Check ADC handle */
  if(hadc == NULL)
 80092da:	4604      	mov	r4, r0
 80092dc:	2800      	cmp	r0, #0
 80092de:	f000 809b 	beq.w	8009418 <HAL_ADC_Init+0x140>
  if(hadc->Init.ExternalTrigConv != ADC_SOFTWARE_START)
  {
    assert_param(IS_ADC_EXT_TRIG_EDGE(hadc->Init.ExternalTrigConvEdge));
  }
  
  if(hadc->State == HAL_ADC_STATE_RESET)
 80092e2:	6c05      	ldr	r5, [r0, #64]	; 0x40
 80092e4:	b925      	cbnz	r5, 80092f0 <HAL_ADC_Init+0x18>

    /* Init the low level hardware */
    hadc->MspInitCallback(hadc);
#else
    /* Init the low level hardware */
    HAL_ADC_MspInit(hadc);
 80092e6:	f004 fa4b 	bl	800d780 <HAL_ADC_MspInit>
#endif /* USE_HAL_ADC_REGISTER_CALLBACKS */

    /* Initialize ADC error code */
    ADC_CLEAR_ERRORCODE(hadc);
 80092ea:	6465      	str	r5, [r4, #68]	; 0x44
    
    /* Allocate lock resource and initialize it */
    hadc->Lock = HAL_UNLOCKED;
 80092ec:	f884 503c 	strb.w	r5, [r4, #60]	; 0x3c
  }
  
  /* Configuration of ADC parameters if previous preliminary actions are      */ 
  /* correctly completed.                                                     */
  if (HAL_IS_BIT_CLR(hadc->State, HAL_ADC_STATE_ERROR_INTERNAL))
 80092f0:	6c23      	ldr	r3, [r4, #64]	; 0x40
 80092f2:	06db      	lsls	r3, r3, #27
 80092f4:	f100 808e 	bmi.w	8009414 <HAL_ADC_Init+0x13c>
  {
    /* Set ADC state */
    ADC_STATE_CLR_SET(hadc->State,
 80092f8:	6c23      	ldr	r3, [r4, #64]	; 0x40
 80092fa:	f423 5388 	bic.w	r3, r3, #4352	; 0x1100
 80092fe:	f023 0302 	bic.w	r3, r3, #2
 8009302:	f043 0302 	orr.w	r3, r3, #2
 8009306:	6423      	str	r3, [r4, #64]	; 0x40
  /* (Depending on STM32F4 product, there may be up to 3 ADCs and 1 common */
  /* control register)                                                    */
  tmpADC_Common = ADC_COMMON_REGISTER(hadc);
  
  /* Set the ADC clock prescaler */
  tmpADC_Common->CCR &= ~(ADC_CCR_ADCPRE);
 8009308:	4b44      	ldr	r3, [pc, #272]	; (800941c <HAL_ADC_Init+0x144>)
 800930a:	685a      	ldr	r2, [r3, #4]
 800930c:	f422 3240 	bic.w	r2, r2, #196608	; 0x30000
 8009310:	605a      	str	r2, [r3, #4]
  tmpADC_Common->CCR |=  hadc->Init.ClockPrescaler;
 8009312:	685a      	ldr	r2, [r3, #4]
 8009314:	6861      	ldr	r1, [r4, #4]
 8009316:	430a      	orrs	r2, r1
 8009318:	605a      	str	r2, [r3, #4]
  
  /* Set ADC scan mode */
  hadc->Instance->CR1 &= ~(ADC_CR1_SCAN);
 800931a:	6823      	ldr	r3, [r4, #0]
  hadc->Instance->CR1 |=  ADC_CR1_SCANCONV(hadc->Init.ScanConvMode);
 800931c:	6921      	ldr	r1, [r4, #16]
  hadc->Instance->CR1 &= ~(ADC_CR1_SCAN);
 800931e:	685a      	ldr	r2, [r3, #4]
 8009320:	f422 7280 	bic.w	r2, r2, #256	; 0x100
 8009324:	605a      	str	r2, [r3, #4]
  hadc->Instance->CR1 |=  ADC_CR1_SCANCONV(hadc->Init.ScanConvMode);
 8009326:	685a      	ldr	r2, [r3, #4]
 8009328:	ea42 2201 	orr.w	r2, r2, r1, lsl #8
 800932c:	605a      	str	r2, [r3, #4]
  
  /* Set ADC resolution */
  hadc->Instance->CR1 &= ~(ADC_CR1_RES);
 800932e:	685a      	ldr	r2, [r3, #4]
  hadc->Instance->CR1 |=  hadc->Init.Resolution;
 8009330:	68a1      	ldr	r1, [r4, #8]
  hadc->Instance->CR1 &= ~(ADC_CR1_RES);
 8009332:	f022 7240 	bic.w	r2, r2, #50331648	; 0x3000000
 8009336:	605a      	str	r2, [r3, #4]
  hadc->Instance->CR1 |=  hadc->Init.Resolution;
 8009338:	685a      	ldr	r2, [r3, #4]
 800933a:	430a      	orrs	r2, r1
 800933c:	605a      	str	r2, [r3, #4]
  
  /* Set ADC data alignment */
  hadc->Instance->CR2 &= ~(ADC_CR2_ALIGN);
 800933e:	689a      	ldr	r2, [r3, #8]
  hadc->Instance->CR2 |= hadc->Init.DataAlign;
 8009340:	68e1      	ldr	r1, [r4, #12]
  hadc->Instance->CR2 &= ~(ADC_CR2_ALIGN);
 8009342:	f422 6200 	bic.w	r2, r2, #2048	; 0x800
 8009346:	609a      	str	r2, [r3, #8]
  hadc->Instance->CR2 |= hadc->Init.DataAlign;
 8009348:	689a      	ldr	r2, [r3, #8]
 800934a:	430a      	orrs	r2, r1
 800934c:	609a      	str	r2, [r3, #8]
  /* Enable external trigger if trigger selection is different of software  */
  /* start.                                                                 */
  /* Note: This configuration keeps the hardware feature of parameter       */
  /*       ExternalTrigConvEdge "trigger edge none" equivalent to           */
  /*       software start.                                                  */
  if(hadc->Init.ExternalTrigConv != ADC_SOFTWARE_START)
 800934e:	4934      	ldr	r1, [pc, #208]	; (8009420 <HAL_ADC_Init+0x148>)
 8009350:	6aa2      	ldr	r2, [r4, #40]	; 0x28
 8009352:	428a      	cmp	r2, r1
 8009354:	d052      	beq.n	80093fc <HAL_ADC_Init+0x124>
  {
    /* Select external trigger to start conversion */
    hadc->Instance->CR2 &= ~(ADC_CR2_EXTSEL);
 8009356:	6899      	ldr	r1, [r3, #8]
 8009358:	f021 6170 	bic.w	r1, r1, #251658240	; 0xf000000
 800935c:	6099      	str	r1, [r3, #8]
    hadc->Instance->CR2 |= hadc->Init.ExternalTrigConv;
 800935e:	6899      	ldr	r1, [r3, #8]
 8009360:	430a      	orrs	r2, r1
 8009362:	609a      	str	r2, [r3, #8]
    
    /* Select external trigger polarity */
    hadc->Instance->CR2 &= ~(ADC_CR2_EXTEN);
 8009364:	689a      	ldr	r2, [r3, #8]
    hadc->Instance->CR2 |= hadc->Init.ExternalTrigConvEdge;
 8009366:	6ae1      	ldr	r1, [r4, #44]	; 0x2c
    hadc->Instance->CR2 &= ~(ADC_CR2_EXTEN);
 8009368:	f022 5240 	bic.w	r2, r2, #805306368	; 0x30000000
 800936c:	609a      	str	r2, [r3, #8]
    hadc->Instance->CR2 |= hadc->Init.ExternalTrigConvEdge;
 800936e:	689a      	ldr	r2, [r3, #8]
 8009370:	430a      	orrs	r2, r1
  }
  else
  {
    /* Reset the external trigger */
    hadc->Instance->CR2 &= ~(ADC_CR2_EXTSEL);
    hadc->Instance->CR2 &= ~(ADC_CR2_EXTEN);
 8009372:	609a      	str	r2, [r3, #8]
  }
  
  /* Enable or disable ADC continuous conversion mode */
  hadc->Instance->CR2 &= ~(ADC_CR2_CONT);
 8009374:	689a      	ldr	r2, [r3, #8]
  hadc->Instance->CR2 |= ADC_CR2_CONTINUOUS((uint32_t)hadc->Init.ContinuousConvMode);
 8009376:	7e21      	ldrb	r1, [r4, #24]
  hadc->Instance->CR2 &= ~(ADC_CR2_CONT);
 8009378:	f022 0202 	bic.w	r2, r2, #2
 800937c:	609a      	str	r2, [r3, #8]
  hadc->Instance->CR2 |= ADC_CR2_CONTINUOUS((uint32_t)hadc->Init.ContinuousConvMode);
 800937e:	689a      	ldr	r2, [r3, #8]
 8009380:	ea42 0241 	orr.w	r2, r2, r1, lsl #1
 8009384:	609a      	str	r2, [r3, #8]
  
  if(hadc->Init.DiscontinuousConvMode != DISABLE)
 8009386:	f894 2020 	ldrb.w	r2, [r4, #32]
 800938a:	2a00      	cmp	r2, #0
 800938c:	d03e      	beq.n	800940c <HAL_ADC_Init+0x134>
  {
    assert_param(IS_ADC_REGULAR_DISC_NUMBER(hadc->Init.NbrOfDiscConversion));
  
    /* Enable the selected ADC regular discontinuous mode */
    hadc->Instance->CR1 |= (uint32_t)ADC_CR1_DISCEN;
 800938e:	685a      	ldr	r2, [r3, #4]
    
    /* Set the number of channels to be converted in discontinuous mode */
    hadc->Instance->CR1 &= ~(ADC_CR1_DISCNUM);
    hadc->Instance->CR1 |=  ADC_CR1_DISCONTINUOUS(hadc->Init.NbrOfDiscConversion);
 8009390:	6a61      	ldr	r1, [r4, #36]	; 0x24
    hadc->Instance->CR1 |= (uint32_t)ADC_CR1_DISCEN;
 8009392:	f442 6200 	orr.w	r2, r2, #2048	; 0x800
 8009396:	605a      	str	r2, [r3, #4]
    hadc->Instance->CR1 &= ~(ADC_CR1_DISCNUM);
 8009398:	685a      	ldr	r2, [r3, #4]
 800939a:	f422 4260 	bic.w	r2, r2, #57344	; 0xe000
 800939e:	605a      	str	r2, [r3, #4]
    hadc->Instance->CR1 |=  ADC_CR1_DISCONTINUOUS(hadc->Init.NbrOfDiscConversion);
 80093a0:	685a      	ldr	r2, [r3, #4]
 80093a2:	3901      	subs	r1, #1
 80093a4:	ea42 3241 	orr.w	r2, r2, r1, lsl #13
  }
  else
  {
    /* Disable the selected ADC regular discontinuous mode */
    hadc->Instance->CR1 &= ~(ADC_CR1_DISCEN);
 80093a8:	605a      	str	r2, [r3, #4]
  }
  
  /* Set ADC number of conversion */
  hadc->Instance->SQR1 &= ~(ADC_SQR1_L);
 80093aa:	6ada      	ldr	r2, [r3, #44]	; 0x2c
  hadc->Instance->SQR1 |=  ADC_SQR1(hadc->Init.NbrOfConversion);
 80093ac:	69e1      	ldr	r1, [r4, #28]
  hadc->Instance->SQR1 &= ~(ADC_SQR1_L);
 80093ae:	f422 0270 	bic.w	r2, r2, #15728640	; 0xf00000
 80093b2:	62da      	str	r2, [r3, #44]	; 0x2c
  hadc->Instance->SQR1 |=  ADC_SQR1(hadc->Init.NbrOfConversion);
 80093b4:	6ada      	ldr	r2, [r3, #44]	; 0x2c
 80093b6:	3901      	subs	r1, #1
 80093b8:	ea42 5201 	orr.w	r2, r2, r1, lsl #20
 80093bc:	62da      	str	r2, [r3, #44]	; 0x2c
  
  /* Enable or disable ADC DMA continuous request */
  hadc->Instance->CR2 &= ~(ADC_CR2_DDS);
 80093be:	689a      	ldr	r2, [r3, #8]
  hadc->Instance->CR2 |= ADC_CR2_DMAContReq((uint32_t)hadc->Init.DMAContinuousRequests);
 80093c0:	f894 1030 	ldrb.w	r1, [r4, #48]	; 0x30
  hadc->Instance->CR2 &= ~(ADC_CR2_DDS);
 80093c4:	f422 7200 	bic.w	r2, r2, #512	; 0x200
 80093c8:	609a      	str	r2, [r3, #8]
  hadc->Instance->CR2 |= ADC_CR2_DMAContReq((uint32_t)hadc->Init.DMAContinuousRequests);
 80093ca:	689a      	ldr	r2, [r3, #8]
 80093cc:	ea42 2241 	orr.w	r2, r2, r1, lsl #9
 80093d0:	609a      	str	r2, [r3, #8]
  
  /* Enable or disable ADC end of conversion selection */
  hadc->Instance->CR2 &= ~(ADC_CR2_EOCS);
 80093d2:	689a      	ldr	r2, [r3, #8]
  hadc->Instance->CR2 |= ADC_CR2_EOCSelection(hadc->Init.EOCSelection);
 80093d4:	6961      	ldr	r1, [r4, #20]
  hadc->Instance->CR2 &= ~(ADC_CR2_EOCS);
 80093d6:	f422 6280 	bic.w	r2, r2, #1024	; 0x400
 80093da:	609a      	str	r2, [r3, #8]
  hadc->Instance->CR2 |= ADC_CR2_EOCSelection(hadc->Init.EOCSelection);
 80093dc:	689a      	ldr	r2, [r3, #8]
    ADC_CLEAR_ERRORCODE(hadc);
 80093de:	2000      	movs	r0, #0
  hadc->Instance->CR2 |= ADC_CR2_EOCSelection(hadc->Init.EOCSelection);
 80093e0:	ea42 2281 	orr.w	r2, r2, r1, lsl #10
 80093e4:	609a      	str	r2, [r3, #8]
    ADC_CLEAR_ERRORCODE(hadc);
 80093e6:	6460      	str	r0, [r4, #68]	; 0x44
    ADC_STATE_CLR_SET(hadc->State,
 80093e8:	6c23      	ldr	r3, [r4, #64]	; 0x40
 80093ea:	f023 0303 	bic.w	r3, r3, #3
 80093ee:	f043 0301 	orr.w	r3, r3, #1
 80093f2:	6423      	str	r3, [r4, #64]	; 0x40
  __HAL_UNLOCK(hadc);
 80093f4:	2300      	movs	r3, #0
 80093f6:	f884 303c 	strb.w	r3, [r4, #60]	; 0x3c
  return tmp_hal_status;
 80093fa:	bd38      	pop	{r3, r4, r5, pc}
    hadc->Instance->CR2 &= ~(ADC_CR2_EXTSEL);
 80093fc:	689a      	ldr	r2, [r3, #8]
 80093fe:	f022 6270 	bic.w	r2, r2, #251658240	; 0xf000000
 8009402:	609a      	str	r2, [r3, #8]
    hadc->Instance->CR2 &= ~(ADC_CR2_EXTEN);
 8009404:	689a      	ldr	r2, [r3, #8]
 8009406:	f022 5240 	bic.w	r2, r2, #805306368	; 0x30000000
 800940a:	e7b2      	b.n	8009372 <HAL_ADC_Init+0x9a>
    hadc->Instance->CR1 &= ~(ADC_CR1_DISCEN);
 800940c:	685a      	ldr	r2, [r3, #4]
 800940e:	f422 6200 	bic.w	r2, r2, #2048	; 0x800
 8009412:	e7c9      	b.n	80093a8 <HAL_ADC_Init+0xd0>
    tmp_hal_status = HAL_ERROR;
 8009414:	2001      	movs	r0, #1
 8009416:	e7ed      	b.n	80093f4 <HAL_ADC_Init+0x11c>
    return HAL_ERROR;
 8009418:	2001      	movs	r0, #1
}
 800941a:	bd38      	pop	{r3, r4, r5, pc}
 800941c:	40012300 	.word	0x40012300
 8009420:	0f000001 	.word	0x0f000001

08009424 <HAL_ADC_Start>:
{
 8009424:	b082      	sub	sp, #8
  __IO uint32_t counter = 0U;
 8009426:	2300      	movs	r3, #0
 8009428:	9301      	str	r3, [sp, #4]
  __HAL_LOCK(hadc);
 800942a:	f890 303c 	ldrb.w	r3, [r0, #60]	; 0x3c
 800942e:	2b01      	cmp	r3, #1
 8009430:	d04e      	beq.n	80094d0 <HAL_ADC_Start+0xac>
 8009432:	2301      	movs	r3, #1
 8009434:	f880 303c 	strb.w	r3, [r0, #60]	; 0x3c
  if((hadc->Instance->CR2 & ADC_CR2_ADON) != ADC_CR2_ADON)
 8009438:	6803      	ldr	r3, [r0, #0]
 800943a:	689a      	ldr	r2, [r3, #8]
 800943c:	07d1      	lsls	r1, r2, #31
 800943e:	d505      	bpl.n	800944c <HAL_ADC_Start+0x28>
  if(HAL_IS_BIT_SET(hadc->Instance->CR2, ADC_CR2_ADON))
 8009440:	689a      	ldr	r2, [r3, #8]
 8009442:	07d2      	lsls	r2, r2, #31
 8009444:	d414      	bmi.n	8009470 <HAL_ADC_Start+0x4c>
  return HAL_OK;
 8009446:	2000      	movs	r0, #0
}
 8009448:	b002      	add	sp, #8
 800944a:	4770      	bx	lr
    __HAL_ADC_ENABLE(hadc);
 800944c:	689a      	ldr	r2, [r3, #8]
    counter = (ADC_STAB_DELAY_US * (SystemCoreClock / 1000000U));
 800944e:	4921      	ldr	r1, [pc, #132]	; (80094d4 <HAL_ADC_Start+0xb0>)
    __HAL_ADC_ENABLE(hadc);
 8009450:	f042 0201 	orr.w	r2, r2, #1
 8009454:	609a      	str	r2, [r3, #8]
    counter = (ADC_STAB_DELAY_US * (SystemCoreClock / 1000000U));
 8009456:	4a20      	ldr	r2, [pc, #128]	; (80094d8 <HAL_ADC_Start+0xb4>)
 8009458:	6812      	ldr	r2, [r2, #0]
 800945a:	fbb2 f2f1 	udiv	r2, r2, r1
 800945e:	eb02 0242 	add.w	r2, r2, r2, lsl #1
      counter--;
 8009462:	9201      	str	r2, [sp, #4]
    while(counter != 0U)
 8009464:	9a01      	ldr	r2, [sp, #4]
 8009466:	2a00      	cmp	r2, #0
 8009468:	d0ea      	beq.n	8009440 <HAL_ADC_Start+0x1c>
      counter--;
 800946a:	9a01      	ldr	r2, [sp, #4]
 800946c:	3a01      	subs	r2, #1
 800946e:	e7f8      	b.n	8009462 <HAL_ADC_Start+0x3e>
    ADC_STATE_CLR_SET(hadc->State,
 8009470:	6c02      	ldr	r2, [r0, #64]	; 0x40
 8009472:	f422 62e0 	bic.w	r2, r2, #1792	; 0x700
 8009476:	f022 0201 	bic.w	r2, r2, #1
 800947a:	f442 7280 	orr.w	r2, r2, #256	; 0x100
 800947e:	6402      	str	r2, [r0, #64]	; 0x40
    if (READ_BIT(hadc->Instance->CR1, ADC_CR1_JAUTO) != RESET)
 8009480:	685a      	ldr	r2, [r3, #4]
 8009482:	0551      	lsls	r1, r2, #21
      ADC_STATE_CLR_SET(hadc->State, HAL_ADC_STATE_INJ_EOC, HAL_ADC_STATE_INJ_BUSY);  
 8009484:	bf41      	itttt	mi
 8009486:	6c02      	ldrmi	r2, [r0, #64]	; 0x40
 8009488:	f422 5240 	bicmi.w	r2, r2, #12288	; 0x3000
 800948c:	f442 5280 	orrmi.w	r2, r2, #4096	; 0x1000
 8009490:	6402      	strmi	r2, [r0, #64]	; 0x40
    if (HAL_IS_BIT_SET(hadc->State, HAL_ADC_STATE_INJ_BUSY))
 8009492:	6c02      	ldr	r2, [r0, #64]	; 0x40
 8009494:	f412 5280 	ands.w	r2, r2, #4096	; 0x1000
      CLEAR_BIT(hadc->ErrorCode, (HAL_ADC_ERROR_OVR | HAL_ADC_ERROR_DMA));         
 8009498:	bf1c      	itt	ne
 800949a:	6c42      	ldrne	r2, [r0, #68]	; 0x44
 800949c:	f022 0206 	bicne.w	r2, r2, #6
      ADC_CLEAR_ERRORCODE(hadc);
 80094a0:	6442      	str	r2, [r0, #68]	; 0x44
    __HAL_UNLOCK(hadc);
 80094a2:	2200      	movs	r2, #0
 80094a4:	f880 203c 	strb.w	r2, [r0, #60]	; 0x3c
    __HAL_ADC_CLEAR_FLAG(hadc, ADC_FLAG_EOC | ADC_FLAG_OVR);
 80094a8:	f06f 0222 	mvn.w	r2, #34	; 0x22
 80094ac:	601a      	str	r2, [r3, #0]
    if(HAL_IS_BIT_CLR(tmpADC_Common->CCR, ADC_CCR_MULTI))
 80094ae:	4a0b      	ldr	r2, [pc, #44]	; (80094dc <HAL_ADC_Start+0xb8>)
 80094b0:	6852      	ldr	r2, [r2, #4]
 80094b2:	06d2      	lsls	r2, r2, #27
 80094b4:	d108      	bne.n	80094c8 <HAL_ADC_Start+0xa4>
      if((hadc->Instance == ADC1) && ((hadc->Instance->CR2 & ADC_CR2_EXTEN) == RESET))
 80094b6:	6898      	ldr	r0, [r3, #8]
 80094b8:	f010 5040 	ands.w	r0, r0, #805306368	; 0x30000000
 80094bc:	d1c3      	bne.n	8009446 <HAL_ADC_Start+0x22>
          hadc->Instance->CR2 |= (uint32_t)ADC_CR2_SWSTART;
 80094be:	689a      	ldr	r2, [r3, #8]
 80094c0:	f042 4280 	orr.w	r2, r2, #1073741824	; 0x40000000
 80094c4:	609a      	str	r2, [r3, #8]
 80094c6:	e7bf      	b.n	8009448 <HAL_ADC_Start+0x24>
      if((hadc->Instance == ADC1) && ((hadc->Instance->CR2 & ADC_CR2_EXTEN) == RESET))
 80094c8:	4a05      	ldr	r2, [pc, #20]	; (80094e0 <HAL_ADC_Start+0xbc>)
 80094ca:	4293      	cmp	r3, r2
 80094cc:	d1bb      	bne.n	8009446 <HAL_ADC_Start+0x22>
 80094ce:	e7f2      	b.n	80094b6 <HAL_ADC_Start+0x92>
  __HAL_LOCK(hadc);
 80094d0:	2002      	movs	r0, #2
 80094d2:	e7b9      	b.n	8009448 <HAL_ADC_Start+0x24>
 80094d4:	000f4240 	.word	0x000f4240
 80094d8:	200015ac 	.word	0x200015ac
 80094dc:	40012300 	.word	0x40012300
 80094e0:	40012000 	.word	0x40012000

080094e4 <HAL_ADC_Stop>:
  __HAL_LOCK(hadc);
 80094e4:	f890 303c 	ldrb.w	r3, [r0, #60]	; 0x3c
 80094e8:	2b01      	cmp	r3, #1
 80094ea:	d017      	beq.n	800951c <HAL_ADC_Stop+0x38>
 80094ec:	2301      	movs	r3, #1
 80094ee:	f880 303c 	strb.w	r3, [r0, #60]	; 0x3c
  __HAL_ADC_DISABLE(hadc);
 80094f2:	6803      	ldr	r3, [r0, #0]
 80094f4:	689a      	ldr	r2, [r3, #8]
 80094f6:	f022 0201 	bic.w	r2, r2, #1
 80094fa:	609a      	str	r2, [r3, #8]
  if(HAL_IS_BIT_CLR(hadc->Instance->CR2, ADC_CR2_ADON))
 80094fc:	689b      	ldr	r3, [r3, #8]
 80094fe:	07db      	lsls	r3, r3, #31
 8009500:	d407      	bmi.n	8009512 <HAL_ADC_Stop+0x2e>
    ADC_STATE_CLR_SET(hadc->State,
 8009502:	6c03      	ldr	r3, [r0, #64]	; 0x40
 8009504:	f423 5388 	bic.w	r3, r3, #4352	; 0x1100
 8009508:	f023 0301 	bic.w	r3, r3, #1
 800950c:	f043 0301 	orr.w	r3, r3, #1
 8009510:	6403      	str	r3, [r0, #64]	; 0x40
  __HAL_UNLOCK(hadc);
 8009512:	2300      	movs	r3, #0
 8009514:	f880 303c 	strb.w	r3, [r0, #60]	; 0x3c
  return HAL_OK;
 8009518:	4618      	mov	r0, r3
 800951a:	4770      	bx	lr
  __HAL_LOCK(hadc);
 800951c:	2002      	movs	r0, #2
}
 800951e:	4770      	bx	lr

08009520 <HAL_ADC_PollForConversion>:
  if (HAL_IS_BIT_SET(hadc->Instance->CR2, ADC_CR2_EOCS) &&
 8009520:	6803      	ldr	r3, [r0, #0]
 8009522:	689a      	ldr	r2, [r3, #8]
{
 8009524:	b570      	push	{r4, r5, r6, lr}
  if (HAL_IS_BIT_SET(hadc->Instance->CR2, ADC_CR2_EOCS) &&
 8009526:	0556      	lsls	r6, r2, #21
{
 8009528:	4604      	mov	r4, r0
 800952a:	460d      	mov	r5, r1
  if (HAL_IS_BIT_SET(hadc->Instance->CR2, ADC_CR2_EOCS) &&
 800952c:	d50b      	bpl.n	8009546 <HAL_ADC_PollForConversion+0x26>
      HAL_IS_BIT_SET(hadc->Instance->CR2, ADC_CR2_DMA)    )
 800952e:	689b      	ldr	r3, [r3, #8]
  if (HAL_IS_BIT_SET(hadc->Instance->CR2, ADC_CR2_EOCS) &&
 8009530:	05d8      	lsls	r0, r3, #23
 8009532:	d508      	bpl.n	8009546 <HAL_ADC_PollForConversion+0x26>
    SET_BIT(hadc->State, HAL_ADC_STATE_ERROR_CONFIG);
 8009534:	6c23      	ldr	r3, [r4, #64]	; 0x40
 8009536:	f043 0320 	orr.w	r3, r3, #32
 800953a:	6423      	str	r3, [r4, #64]	; 0x40
    __HAL_UNLOCK(hadc);
 800953c:	2300      	movs	r3, #0
 800953e:	f884 303c 	strb.w	r3, [r4, #60]	; 0x3c
    return HAL_ERROR;
 8009542:	2001      	movs	r0, #1
 8009544:	bd70      	pop	{r4, r5, r6, pc}
  tickstart = HAL_GetTick();
 8009546:	f7ff fead 	bl	80092a4 <HAL_GetTick>
 800954a:	4606      	mov	r6, r0
  while(!(__HAL_ADC_GET_FLAG(hadc, ADC_FLAG_EOC)))
 800954c:	6823      	ldr	r3, [r4, #0]
 800954e:	681a      	ldr	r2, [r3, #0]
 8009550:	0792      	lsls	r2, r2, #30
 8009552:	d50c      	bpl.n	800956e <HAL_ADC_PollForConversion+0x4e>
  __HAL_ADC_CLEAR_FLAG(hadc, ADC_FLAG_STRT | ADC_FLAG_EOC);
 8009554:	f06f 0212 	mvn.w	r2, #18
 8009558:	601a      	str	r2, [r3, #0]
  SET_BIT(hadc->State, HAL_ADC_STATE_REG_EOC);
 800955a:	6c22      	ldr	r2, [r4, #64]	; 0x40
 800955c:	f442 7200 	orr.w	r2, r2, #512	; 0x200
 8009560:	6422      	str	r2, [r4, #64]	; 0x40
  if(ADC_IS_SOFTWARE_START_REGULAR(hadc)                   &&
 8009562:	689a      	ldr	r2, [r3, #8]
 8009564:	f012 5f40 	tst.w	r2, #805306368	; 0x30000000
 8009568:	d013      	beq.n	8009592 <HAL_ADC_PollForConversion+0x72>
  return HAL_OK;
 800956a:	2000      	movs	r0, #0
 800956c:	bd70      	pop	{r4, r5, r6, pc}
    if(Timeout != HAL_MAX_DELAY)
 800956e:	1c69      	adds	r1, r5, #1
 8009570:	d0ed      	beq.n	800954e <HAL_ADC_PollForConversion+0x2e>
      if((Timeout == 0U) || ((HAL_GetTick() - tickstart ) > Timeout))
 8009572:	b945      	cbnz	r5, 8009586 <HAL_ADC_PollForConversion+0x66>
        SET_BIT(hadc->State, HAL_ADC_STATE_TIMEOUT);
 8009574:	6c23      	ldr	r3, [r4, #64]	; 0x40
 8009576:	f043 0304 	orr.w	r3, r3, #4
 800957a:	6423      	str	r3, [r4, #64]	; 0x40
        __HAL_UNLOCK(hadc);
 800957c:	2300      	movs	r3, #0
 800957e:	f884 303c 	strb.w	r3, [r4, #60]	; 0x3c
        return HAL_TIMEOUT;
 8009582:	2003      	movs	r0, #3
 8009584:	bd70      	pop	{r4, r5, r6, pc}
      if((Timeout == 0U) || ((HAL_GetTick() - tickstart ) > Timeout))
 8009586:	f7ff fe8d 	bl	80092a4 <HAL_GetTick>
 800958a:	1b80      	subs	r0, r0, r6
 800958c:	4285      	cmp	r5, r0
 800958e:	d2dd      	bcs.n	800954c <HAL_ADC_PollForConversion+0x2c>
 8009590:	e7f0      	b.n	8009574 <HAL_ADC_PollForConversion+0x54>
  if(ADC_IS_SOFTWARE_START_REGULAR(hadc)                   &&
 8009592:	7e22      	ldrb	r2, [r4, #24]
 8009594:	2a00      	cmp	r2, #0
 8009596:	d1e8      	bne.n	800956a <HAL_ADC_PollForConversion+0x4a>
     (HAL_IS_BIT_CLR(hadc->Instance->SQR1, ADC_SQR1_L) ||
 8009598:	6ada      	ldr	r2, [r3, #44]	; 0x2c
     (hadc->Init.ContinuousConvMode == DISABLE)            &&
 800959a:	f412 0f70 	tst.w	r2, #15728640	; 0xf00000
 800959e:	d002      	beq.n	80095a6 <HAL_ADC_PollForConversion+0x86>
      HAL_IS_BIT_CLR(hadc->Instance->CR2, ADC_CR2_EOCS)  )   )
 80095a0:	689b      	ldr	r3, [r3, #8]
     (HAL_IS_BIT_CLR(hadc->Instance->SQR1, ADC_SQR1_L) ||
 80095a2:	055b      	lsls	r3, r3, #21
 80095a4:	d4e1      	bmi.n	800956a <HAL_ADC_PollForConversion+0x4a>
    CLEAR_BIT(hadc->State, HAL_ADC_STATE_REG_BUSY);   
 80095a6:	6c23      	ldr	r3, [r4, #64]	; 0x40
 80095a8:	f423 7380 	bic.w	r3, r3, #256	; 0x100
 80095ac:	6423      	str	r3, [r4, #64]	; 0x40
    if (HAL_IS_BIT_CLR(hadc->State, HAL_ADC_STATE_INJ_BUSY))
 80095ae:	6c20      	ldr	r0, [r4, #64]	; 0x40
 80095b0:	f410 5080 	ands.w	r0, r0, #4096	; 0x1000
 80095b4:	d1d9      	bne.n	800956a <HAL_ADC_PollForConversion+0x4a>
      SET_BIT(hadc->State, HAL_ADC_STATE_READY);
 80095b6:	6c23      	ldr	r3, [r4, #64]	; 0x40
 80095b8:	f043 0301 	orr.w	r3, r3, #1
 80095bc:	6423      	str	r3, [r4, #64]	; 0x40
}
 80095be:	bd70      	pop	{r4, r5, r6, pc}

080095c0 <HAL_ADC_GetValue>:
  return hadc->Instance->DR;
 80095c0:	6803      	ldr	r3, [r0, #0]
 80095c2:	6cd8      	ldr	r0, [r3, #76]	; 0x4c
}
 80095c4:	4770      	bx	lr
	...

080095c8 <HAL_ADC_ConfigChannel>:
{
 80095c8:	b5f7      	push	{r0, r1, r2, r4, r5, r6, r7, lr}
  __IO uint32_t counter = 0U;
 80095ca:	2300      	movs	r3, #0
 80095cc:	9301      	str	r3, [sp, #4]
  __HAL_LOCK(hadc);
 80095ce:	f890 303c 	ldrb.w	r3, [r0, #60]	; 0x3c
 80095d2:	2b01      	cmp	r3, #1
 80095d4:	d06e      	beq.n	80096b4 <HAL_ADC_ConfigChannel+0xec>
  if (sConfig->Channel > ADC_CHANNEL_9)
 80095d6:	680d      	ldr	r5, [r1, #0]
 80095d8:	6804      	ldr	r4, [r0, #0]
 80095da:	688a      	ldr	r2, [r1, #8]
  __HAL_LOCK(hadc);
 80095dc:	2301      	movs	r3, #1
  if (sConfig->Channel > ADC_CHANNEL_9)
 80095de:	2d09      	cmp	r5, #9
  __HAL_LOCK(hadc);
 80095e0:	f880 303c 	strb.w	r3, [r0, #60]	; 0x3c
 80095e4:	b2ae      	uxth	r6, r5
  if (sConfig->Channel > ADC_CHANNEL_9)
 80095e6:	d92a      	bls.n	800963e <HAL_ADC_ConfigChannel+0x76>
    hadc->Instance->SMPR1 &= ~ADC_SMPR1(ADC_SMPR1_SMP10, sConfig->Channel);
 80095e8:	eb06 0346 	add.w	r3, r6, r6, lsl #1
 80095ec:	68e7      	ldr	r7, [r4, #12]
 80095ee:	3b1e      	subs	r3, #30
 80095f0:	f04f 0e07 	mov.w	lr, #7
 80095f4:	fa0e fe03 	lsl.w	lr, lr, r3
 80095f8:	ea27 070e 	bic.w	r7, r7, lr
 80095fc:	60e7      	str	r7, [r4, #12]
    hadc->Instance->SMPR1 |= ADC_SMPR1(sConfig->SamplingTime, sConfig->Channel);
 80095fe:	68e7      	ldr	r7, [r4, #12]
 8009600:	fa02 f303 	lsl.w	r3, r2, r3
 8009604:	433b      	orrs	r3, r7
 8009606:	60e3      	str	r3, [r4, #12]
  if (sConfig->Rank < 7U)
 8009608:	684a      	ldr	r2, [r1, #4]
 800960a:	2a06      	cmp	r2, #6
 800960c:	ea4f 0382 	mov.w	r3, r2, lsl #2
 8009610:	d825      	bhi.n	800965e <HAL_ADC_ConfigChannel+0x96>
    hadc->Instance->SQR3 &= ~ADC_SQR3_RK(ADC_SQR3_SQ1, sConfig->Rank);
 8009612:	4413      	add	r3, r2
 8009614:	6b67      	ldr	r7, [r4, #52]	; 0x34
 8009616:	1f59      	subs	r1, r3, #5
 8009618:	231f      	movs	r3, #31
 800961a:	408b      	lsls	r3, r1
 800961c:	ea27 0303 	bic.w	r3, r7, r3
 8009620:	6363      	str	r3, [r4, #52]	; 0x34
    hadc->Instance->SQR3 |= ADC_SQR3_RK(sConfig->Channel, sConfig->Rank);
 8009622:	6b62      	ldr	r2, [r4, #52]	; 0x34
 8009624:	fa06 f101 	lsl.w	r1, r6, r1
 8009628:	4311      	orrs	r1, r2
 800962a:	6361      	str	r1, [r4, #52]	; 0x34
  if ((hadc->Instance == ADC1) && (sConfig->Channel == ADC_CHANNEL_VBAT))
 800962c:	4b32      	ldr	r3, [pc, #200]	; (80096f8 <HAL_ADC_ConfigChannel+0x130>)
 800962e:	429c      	cmp	r4, r3
 8009630:	d034      	beq.n	800969c <HAL_ADC_ConfigChannel+0xd4>
  __HAL_UNLOCK(hadc);
 8009632:	2300      	movs	r3, #0
 8009634:	f880 303c 	strb.w	r3, [r0, #60]	; 0x3c
  return HAL_OK;
 8009638:	4618      	mov	r0, r3
}
 800963a:	b003      	add	sp, #12
 800963c:	bdf0      	pop	{r4, r5, r6, r7, pc}
    hadc->Instance->SMPR2 &= ~ADC_SMPR2(ADC_SMPR2_SMP0, sConfig->Channel);
 800963e:	6927      	ldr	r7, [r4, #16]
 8009640:	eb05 0345 	add.w	r3, r5, r5, lsl #1
 8009644:	f04f 0e07 	mov.w	lr, #7
 8009648:	fa0e fe03 	lsl.w	lr, lr, r3
 800964c:	ea27 070e 	bic.w	r7, r7, lr
 8009650:	6127      	str	r7, [r4, #16]
    hadc->Instance->SMPR2 |= ADC_SMPR2(sConfig->SamplingTime, sConfig->Channel);
 8009652:	6927      	ldr	r7, [r4, #16]
 8009654:	fa02 f303 	lsl.w	r3, r2, r3
 8009658:	433b      	orrs	r3, r7
 800965a:	6123      	str	r3, [r4, #16]
 800965c:	e7d4      	b.n	8009608 <HAL_ADC_ConfigChannel+0x40>
  else if (sConfig->Rank < 13U)
 800965e:	2a0c      	cmp	r2, #12
 8009660:	d80e      	bhi.n	8009680 <HAL_ADC_ConfigChannel+0xb8>
    hadc->Instance->SQR2 &= ~ADC_SQR2_RK(ADC_SQR2_SQ7, sConfig->Rank);
 8009662:	4413      	add	r3, r2
 8009664:	6b21      	ldr	r1, [r4, #48]	; 0x30
 8009666:	f1a3 0223 	sub.w	r2, r3, #35	; 0x23
 800966a:	231f      	movs	r3, #31
 800966c:	4093      	lsls	r3, r2
 800966e:	ea21 0303 	bic.w	r3, r1, r3
 8009672:	6323      	str	r3, [r4, #48]	; 0x30
    hadc->Instance->SQR2 |= ADC_SQR2_RK(sConfig->Channel, sConfig->Rank);
 8009674:	6b23      	ldr	r3, [r4, #48]	; 0x30
 8009676:	fa06 f202 	lsl.w	r2, r6, r2
 800967a:	431a      	orrs	r2, r3
 800967c:	6322      	str	r2, [r4, #48]	; 0x30
 800967e:	e7d5      	b.n	800962c <HAL_ADC_ConfigChannel+0x64>
    hadc->Instance->SQR1 &= ~ADC_SQR1_RK(ADC_SQR1_SQ13, sConfig->Rank);
 8009680:	4413      	add	r3, r2
 8009682:	6ae1      	ldr	r1, [r4, #44]	; 0x2c
 8009684:	3b41      	subs	r3, #65	; 0x41
 8009686:	221f      	movs	r2, #31
 8009688:	409a      	lsls	r2, r3
 800968a:	ea21 0202 	bic.w	r2, r1, r2
 800968e:	62e2      	str	r2, [r4, #44]	; 0x2c
    hadc->Instance->SQR1 |= ADC_SQR1_RK(sConfig->Channel, sConfig->Rank);
 8009690:	6ae2      	ldr	r2, [r4, #44]	; 0x2c
 8009692:	fa06 f103 	lsl.w	r1, r6, r3
 8009696:	4311      	orrs	r1, r2
 8009698:	62e1      	str	r1, [r4, #44]	; 0x2c
 800969a:	e7c7      	b.n	800962c <HAL_ADC_ConfigChannel+0x64>
  if ((hadc->Instance == ADC1) && (sConfig->Channel == ADC_CHANNEL_VBAT))
 800969c:	2d12      	cmp	r5, #18
 800969e:	d10b      	bne.n	80096b8 <HAL_ADC_ConfigChannel+0xf0>
      tmpADC_Common->CCR &= ~ADC_CCR_TSVREFE;
 80096a0:	4b16      	ldr	r3, [pc, #88]	; (80096fc <HAL_ADC_ConfigChannel+0x134>)
 80096a2:	685a      	ldr	r2, [r3, #4]
 80096a4:	f422 0200 	bic.w	r2, r2, #8388608	; 0x800000
 80096a8:	605a      	str	r2, [r3, #4]
    tmpADC_Common->CCR |= ADC_CCR_VBATE;
 80096aa:	685a      	ldr	r2, [r3, #4]
 80096ac:	f442 0280 	orr.w	r2, r2, #4194304	; 0x400000
 80096b0:	605a      	str	r2, [r3, #4]
 80096b2:	e7be      	b.n	8009632 <HAL_ADC_ConfigChannel+0x6a>
  __HAL_LOCK(hadc);
 80096b4:	2002      	movs	r0, #2
 80096b6:	e7c0      	b.n	800963a <HAL_ADC_ConfigChannel+0x72>
  if ((hadc->Instance == ADC1) && ((sConfig->Channel == ADC_CHANNEL_TEMPSENSOR) || (sConfig->Channel == ADC_CHANNEL_VREFINT)))
 80096b8:	4b11      	ldr	r3, [pc, #68]	; (8009700 <HAL_ADC_ConfigChannel+0x138>)
 80096ba:	429d      	cmp	r5, r3
 80096bc:	d001      	beq.n	80096c2 <HAL_ADC_ConfigChannel+0xfa>
 80096be:	2d11      	cmp	r5, #17
 80096c0:	d1b7      	bne.n	8009632 <HAL_ADC_ConfigChannel+0x6a>
      tmpADC_Common->CCR &= ~ADC_CCR_VBATE;
 80096c2:	4b0e      	ldr	r3, [pc, #56]	; (80096fc <HAL_ADC_ConfigChannel+0x134>)
 80096c4:	685a      	ldr	r2, [r3, #4]
 80096c6:	f422 0280 	bic.w	r2, r2, #4194304	; 0x400000
 80096ca:	605a      	str	r2, [r3, #4]
    tmpADC_Common->CCR |= ADC_CCR_TSVREFE;
 80096cc:	685a      	ldr	r2, [r3, #4]
 80096ce:	f442 0200 	orr.w	r2, r2, #8388608	; 0x800000
 80096d2:	605a      	str	r2, [r3, #4]
    if((sConfig->Channel == ADC_CHANNEL_TEMPSENSOR))
 80096d4:	4b0a      	ldr	r3, [pc, #40]	; (8009700 <HAL_ADC_ConfigChannel+0x138>)
 80096d6:	429d      	cmp	r5, r3
 80096d8:	d1ab      	bne.n	8009632 <HAL_ADC_ConfigChannel+0x6a>
      counter = (ADC_TEMPSENSOR_DELAY_US * (SystemCoreClock / 1000000U));
 80096da:	4b0a      	ldr	r3, [pc, #40]	; (8009704 <HAL_ADC_ConfigChannel+0x13c>)
 80096dc:	4a0a      	ldr	r2, [pc, #40]	; (8009708 <HAL_ADC_ConfigChannel+0x140>)
 80096de:	681b      	ldr	r3, [r3, #0]
 80096e0:	fbb3 f2f2 	udiv	r2, r3, r2
 80096e4:	230a      	movs	r3, #10
 80096e6:	4353      	muls	r3, r2
        counter--;
 80096e8:	9301      	str	r3, [sp, #4]
      while(counter != 0U)
 80096ea:	9b01      	ldr	r3, [sp, #4]
 80096ec:	2b00      	cmp	r3, #0
 80096ee:	d0a0      	beq.n	8009632 <HAL_ADC_ConfigChannel+0x6a>
        counter--;
 80096f0:	9b01      	ldr	r3, [sp, #4]
 80096f2:	3b01      	subs	r3, #1
 80096f4:	e7f8      	b.n	80096e8 <HAL_ADC_ConfigChannel+0x120>
 80096f6:	bf00      	nop
 80096f8:	40012000 	.word	0x40012000
 80096fc:	40012300 	.word	0x40012300
 8009700:	10000012 	.word	0x10000012
 8009704:	200015ac 	.word	0x200015ac
 8009708:	000f4240 	.word	0x000f4240

0800970c <HAL_NVIC_SetPriorityGrouping>:
__STATIC_INLINE void __NVIC_SetPriorityGrouping(uint32_t PriorityGroup)
{
  uint32_t reg_value;
  uint32_t PriorityGroupTmp = (PriorityGroup & (uint32_t)0x07UL);             /* only values 0..7 are used          */

  reg_value  =  SCB->AIRCR;                                                   /* read old register configuration    */
 800970c:	4a07      	ldr	r2, [pc, #28]	; (800972c <HAL_NVIC_SetPriorityGrouping+0x20>)
 800970e:	68d3      	ldr	r3, [r2, #12]
  reg_value &= ~((uint32_t)(SCB_AIRCR_VECTKEY_Msk | SCB_AIRCR_PRIGROUP_Msk)); /* clear bits to change               */
 8009710:	f423 63e0 	bic.w	r3, r3, #1792	; 0x700
 8009714:	041b      	lsls	r3, r3, #16
 8009716:	0c1b      	lsrs	r3, r3, #16
 8009718:	f043 63bf 	orr.w	r3, r3, #100139008	; 0x5f80000
  reg_value  =  (reg_value                                   |
                ((uint32_t)0x5FAUL << SCB_AIRCR_VECTKEY_Pos) |
                (PriorityGroupTmp << SCB_AIRCR_PRIGROUP_Pos)  );              /* Insert write key and priority group */
 800971c:	0200      	lsls	r0, r0, #8
 800971e:	f443 3300 	orr.w	r3, r3, #131072	; 0x20000
 8009722:	f400 60e0 	and.w	r0, r0, #1792	; 0x700
  reg_value  =  (reg_value                                   |
 8009726:	4303      	orrs	r3, r0
  SCB->AIRCR =  reg_value;
 8009728:	60d3      	str	r3, [r2, #12]
 800972a:	4770      	bx	lr
 800972c:	e000ed00 	.word	0xe000ed00

08009730 <HAL_NVIC_SetPriority>:
  \details Reads the priority grouping field from the NVIC Interrupt Controller.
  \return                Priority grouping field (SCB->AIRCR [10:8] PRIGROUP field).
 */
__STATIC_INLINE uint32_t __NVIC_GetPriorityGrouping(void)
{
  return ((uint32_t)((SCB->AIRCR & SCB_AIRCR_PRIGROUP_Msk) >> SCB_AIRCR_PRIGROUP_Pos));
 8009730:	4b17      	ldr	r3, [pc, #92]	; (8009790 <HAL_NVIC_SetPriority+0x60>)
  *         This parameter can be a value between 0 and 15
  *         A lower priority value indicates a higher priority.          
  * @retval None
  */
void HAL_NVIC_SetPriority(IRQn_Type IRQn, uint32_t PreemptPriority, uint32_t SubPriority)
{ 
 8009732:	b530      	push	{r4, r5, lr}
 8009734:	68dc      	ldr	r4, [r3, #12]
 8009736:	f3c4 2402 	ubfx	r4, r4, #8, #3
{
  uint32_t PriorityGroupTmp = (PriorityGroup & (uint32_t)0x07UL);   /* only values 0..7 are used          */
  uint32_t PreemptPriorityBits;
  uint32_t SubPriorityBits;

  PreemptPriorityBits = ((7UL - PriorityGroupTmp) > (uint32_t)(__NVIC_PRIO_BITS)) ? (uint32_t)(__NVIC_PRIO_BITS) : (uint32_t)(7UL - PriorityGroupTmp);
 800973a:	f1c4 0307 	rsb	r3, r4, #7
  SubPriorityBits     = ((PriorityGroupTmp + (uint32_t)(__NVIC_PRIO_BITS)) < (uint32_t)7UL) ? (uint32_t)0UL : (uint32_t)((PriorityGroupTmp - 7UL) + (uint32_t)(__NVIC_PRIO_BITS));
 800973e:	1d25      	adds	r5, r4, #4
  PreemptPriorityBits = ((7UL - PriorityGroupTmp) > (uint32_t)(__NVIC_PRIO_BITS)) ? (uint32_t)(__NVIC_PRIO_BITS) : (uint32_t)(7UL - PriorityGroupTmp);
 8009740:	2b04      	cmp	r3, #4
 8009742:	bf28      	it	cs
 8009744:	2304      	movcs	r3, #4
  SubPriorityBits     = ((PriorityGroupTmp + (uint32_t)(__NVIC_PRIO_BITS)) < (uint32_t)7UL) ? (uint32_t)0UL : (uint32_t)((PriorityGroupTmp - 7UL) + (uint32_t)(__NVIC_PRIO_BITS));
 8009746:	2d06      	cmp	r5, #6

  return (
           ((PreemptPriority & (uint32_t)((1UL << (PreemptPriorityBits)) - 1UL)) << SubPriorityBits) |
 8009748:	f04f 0501 	mov.w	r5, #1
 800974c:	fa05 f303 	lsl.w	r3, r5, r3
 8009750:	f103 33ff 	add.w	r3, r3, #4294967295
  SubPriorityBits     = ((PriorityGroupTmp + (uint32_t)(__NVIC_PRIO_BITS)) < (uint32_t)7UL) ? (uint32_t)0UL : (uint32_t)((PriorityGroupTmp - 7UL) + (uint32_t)(__NVIC_PRIO_BITS));
 8009754:	bf8c      	ite	hi
 8009756:	3c03      	subhi	r4, #3
 8009758:	2400      	movls	r4, #0
           ((PreemptPriority & (uint32_t)((1UL << (PreemptPriorityBits)) - 1UL)) << SubPriorityBits) |
 800975a:	4019      	ands	r1, r3
 800975c:	40a1      	lsls	r1, r4
           ((SubPriority     & (uint32_t)((1UL << (SubPriorityBits    )) - 1UL)))
 800975e:	fa05 f404 	lsl.w	r4, r5, r4
 8009762:	3c01      	subs	r4, #1
 8009764:	4022      	ands	r2, r4
  if ((int32_t)(IRQn) >= 0)
 8009766:	2800      	cmp	r0, #0
           ((PreemptPriority & (uint32_t)((1UL << (PreemptPriorityBits)) - 1UL)) << SubPriorityBits) |
 8009768:	ea42 0201 	orr.w	r2, r2, r1
 800976c:	ea4f 1202 	mov.w	r2, r2, lsl #4
    NVIC->IP[((uint32_t)IRQn)]               = (uint8_t)((priority << (8U - __NVIC_PRIO_BITS)) & (uint32_t)0xFFUL);
 8009770:	bfad      	iteet	ge
 8009772:	f100 4060 	addge.w	r0, r0, #3758096384	; 0xe0000000
    SCB->SHP[(((uint32_t)IRQn) & 0xFUL)-4UL] = (uint8_t)((priority << (8U - __NVIC_PRIO_BITS)) & (uint32_t)0xFFUL);
 8009776:	f000 000f 	andlt.w	r0, r0, #15
 800977a:	4b06      	ldrlt	r3, [pc, #24]	; (8009794 <HAL_NVIC_SetPriority+0x64>)
    NVIC->IP[((uint32_t)IRQn)]               = (uint8_t)((priority << (8U - __NVIC_PRIO_BITS)) & (uint32_t)0xFFUL);
 800977c:	f500 4061 	addge.w	r0, r0, #57600	; 0xe100
    SCB->SHP[(((uint32_t)IRQn) & 0xFUL)-4UL] = (uint8_t)((priority << (8U - __NVIC_PRIO_BITS)) & (uint32_t)0xFFUL);
 8009780:	bfb5      	itete	lt
 8009782:	b2d2      	uxtblt	r2, r2
    NVIC->IP[((uint32_t)IRQn)]               = (uint8_t)((priority << (8U - __NVIC_PRIO_BITS)) & (uint32_t)0xFFUL);
 8009784:	b2d2      	uxtbge	r2, r2
    SCB->SHP[(((uint32_t)IRQn) & 0xFUL)-4UL] = (uint8_t)((priority << (8U - __NVIC_PRIO_BITS)) & (uint32_t)0xFFUL);
 8009786:	541a      	strblt	r2, [r3, r0]
    NVIC->IP[((uint32_t)IRQn)]               = (uint8_t)((priority << (8U - __NVIC_PRIO_BITS)) & (uint32_t)0xFFUL);
 8009788:	f880 2300 	strbge.w	r2, [r0, #768]	; 0x300
 800978c:	bd30      	pop	{r4, r5, pc}
 800978e:	bf00      	nop
 8009790:	e000ed00 	.word	0xe000ed00
 8009794:	e000ed14 	.word	0xe000ed14

08009798 <HAL_NVIC_EnableIRQ>:
  if ((int32_t)(IRQn) >= 0)
 8009798:	2800      	cmp	r0, #0
 800979a:	db08      	blt.n	80097ae <HAL_NVIC_EnableIRQ+0x16>
    NVIC->ISER[(((uint32_t)IRQn) >> 5UL)] = (uint32_t)(1UL << (((uint32_t)IRQn) & 0x1FUL));
 800979c:	0942      	lsrs	r2, r0, #5
 800979e:	2301      	movs	r3, #1
 80097a0:	f000 001f 	and.w	r0, r0, #31
 80097a4:	fa03 f000 	lsl.w	r0, r3, r0
 80097a8:	4b01      	ldr	r3, [pc, #4]	; (80097b0 <HAL_NVIC_EnableIRQ+0x18>)
 80097aa:	f843 0022 	str.w	r0, [r3, r2, lsl #2]
 80097ae:	4770      	bx	lr
 80097b0:	e000e100 	.word	0xe000e100

080097b4 <HAL_SYSTICK_Config>:
           function <b>SysTick_Config</b> is not included. In this case, the file <b><i>device</i>.h</b>
           must contain a vendor-specific implementation of this function.
 */
__STATIC_INLINE uint32_t SysTick_Config(uint32_t ticks)
{
  if ((ticks - 1UL) > SysTick_LOAD_RELOAD_Msk)
 80097b4:	3801      	subs	r0, #1
 80097b6:	f1b0 7f80 	cmp.w	r0, #16777216	; 0x1000000
 80097ba:	d20a      	bcs.n	80097d2 <HAL_SYSTICK_Config+0x1e>
  {
    return (1UL);                                                   /* Reload value impossible */
  }

  SysTick->LOAD  = (uint32_t)(ticks - 1UL);                         /* set reload register */
 80097bc:	4b06      	ldr	r3, [pc, #24]	; (80097d8 <HAL_SYSTICK_Config+0x24>)
    SCB->SHP[(((uint32_t)IRQn) & 0xFUL)-4UL] = (uint8_t)((priority << (8U - __NVIC_PRIO_BITS)) & (uint32_t)0xFFUL);
 80097be:	4a07      	ldr	r2, [pc, #28]	; (80097dc <HAL_SYSTICK_Config+0x28>)
  SysTick->LOAD  = (uint32_t)(ticks - 1UL);                         /* set reload register */
 80097c0:	6058      	str	r0, [r3, #4]
    SCB->SHP[(((uint32_t)IRQn) & 0xFUL)-4UL] = (uint8_t)((priority << (8U - __NVIC_PRIO_BITS)) & (uint32_t)0xFFUL);
 80097c2:	21f0      	movs	r1, #240	; 0xf0
 80097c4:	f882 1023 	strb.w	r1, [r2, #35]	; 0x23
  NVIC_SetPriority (SysTick_IRQn, (1UL << __NVIC_PRIO_BITS) - 1UL); /* set Priority for Systick Interrupt */
  SysTick->VAL   = 0UL;                                             /* Load the SysTick Counter Value */
 80097c8:	2000      	movs	r0, #0
  SysTick->CTRL  = SysTick_CTRL_CLKSOURCE_Msk |
 80097ca:	2207      	movs	r2, #7
  SysTick->VAL   = 0UL;                                             /* Load the SysTick Counter Value */
 80097cc:	6098      	str	r0, [r3, #8]
  SysTick->CTRL  = SysTick_CTRL_CLKSOURCE_Msk |
 80097ce:	601a      	str	r2, [r3, #0]
 80097d0:	4770      	bx	lr
    return (1UL);                                                   /* Reload value impossible */
 80097d2:	2001      	movs	r0, #1
  *                  - 1  Function failed.
  */
uint32_t HAL_SYSTICK_Config(uint32_t TicksNumb)
{
   return SysTick_Config(TicksNumb);
}
 80097d4:	4770      	bx	lr
 80097d6:	bf00      	nop
 80097d8:	e000e010 	.word	0xe000e010
 80097dc:	e000ed00 	.word	0xe000ed00

080097e0 <DMA_CalcBaseAndBitshift>:
  *                     the configuration information for the specified DMA Stream. 
  * @retval Stream base address
  */
static uint32_t DMA_CalcBaseAndBitshift(DMA_HandleTypeDef *hdma)
{
  uint32_t stream_number = (((uint32_t)hdma->Instance & 0xFFU) - 16U) / 24U;
 80097e0:	6803      	ldr	r3, [r0, #0]
 80097e2:	b2da      	uxtb	r2, r3
 80097e4:	f423 737f 	bic.w	r3, r3, #1020	; 0x3fc
 80097e8:	f023 0303 	bic.w	r3, r3, #3
 80097ec:	2118      	movs	r1, #24
 80097ee:	3a10      	subs	r2, #16
 80097f0:	fbb2 f2f1 	udiv	r2, r2, r1
  
  /* lookup table for necessary bitshift of flags within status registers */
  static const uint8_t flagBitshiftOffset[8U] = {0U, 6U, 16U, 22U, 0U, 6U, 16U, 22U};
  hdma->StreamIndex = flagBitshiftOffset[stream_number];
 80097f4:	4904      	ldr	r1, [pc, #16]	; (8009808 <DMA_CalcBaseAndBitshift+0x28>)
  
  if (stream_number > 3U)
 80097f6:	2a03      	cmp	r2, #3
  {
    /* return pointer to HISR and HIFCR */
    hdma->StreamBaseAddress = (((uint32_t)hdma->Instance & (uint32_t)(~0x3FFU)) + 4U);
 80097f8:	bf88      	it	hi
 80097fa:	3304      	addhi	r3, #4
  hdma->StreamIndex = flagBitshiftOffset[stream_number];
 80097fc:	5c89      	ldrb	r1, [r1, r2]
  }
  else
  {
    /* return pointer to LISR and LIFCR */
    hdma->StreamBaseAddress = ((uint32_t)hdma->Instance & (uint32_t)(~0x3FFU));
 80097fe:	6583      	str	r3, [r0, #88]	; 0x58
  hdma->StreamIndex = flagBitshiftOffset[stream_number];
 8009800:	65c1      	str	r1, [r0, #92]	; 0x5c
  }
  
  return hdma->StreamBaseAddress;
}
 8009802:	6d80      	ldr	r0, [r0, #88]	; 0x58
 8009804:	4770      	bx	lr
 8009806:	bf00      	nop
 8009808:	08011745 	.word	0x08011745

0800980c <HAL_DMA_Init>:
{
 800980c:	b570      	push	{r4, r5, r6, lr}
 800980e:	4604      	mov	r4, r0
  uint32_t tickstart = HAL_GetTick();
 8009810:	f7ff fd48 	bl	80092a4 <HAL_GetTick>
 8009814:	4605      	mov	r5, r0
  if(hdma == NULL)
 8009816:	2c00      	cmp	r4, #0
 8009818:	d071      	beq.n	80098fe <HAL_DMA_Init+0xf2>
  __HAL_UNLOCK(hdma);
 800981a:	2300      	movs	r3, #0
 800981c:	f884 3034 	strb.w	r3, [r4, #52]	; 0x34
  __HAL_DMA_DISABLE(hdma);
 8009820:	6822      	ldr	r2, [r4, #0]
  hdma->State = HAL_DMA_STATE_BUSY;
 8009822:	2302      	movs	r3, #2
 8009824:	f884 3035 	strb.w	r3, [r4, #53]	; 0x35
  __HAL_DMA_DISABLE(hdma);
 8009828:	6813      	ldr	r3, [r2, #0]
 800982a:	f023 0301 	bic.w	r3, r3, #1
 800982e:	6013      	str	r3, [r2, #0]
  while((hdma->Instance->CR & DMA_SxCR_EN) != RESET)
 8009830:	6821      	ldr	r1, [r4, #0]
 8009832:	680b      	ldr	r3, [r1, #0]
 8009834:	07d8      	lsls	r0, r3, #31
 8009836:	d43c      	bmi.n	80098b2 <HAL_DMA_Init+0xa6>
  tmp = hdma->Instance->CR;
 8009838:	680b      	ldr	r3, [r1, #0]
  tmp &= ((uint32_t)~(DMA_SxCR_CHSEL | DMA_SxCR_MBURST | DMA_SxCR_PBURST | \
 800983a:	4d32      	ldr	r5, [pc, #200]	; (8009904 <HAL_DMA_Init+0xf8>)
  tmp |=  hdma->Init.Channel             | hdma->Init.Direction        |
 800983c:	6862      	ldr	r2, [r4, #4]
          hdma->Init.PeriphDataAlignment | hdma->Init.MemDataAlignment |
 800983e:	69a0      	ldr	r0, [r4, #24]
  tmp &= ((uint32_t)~(DMA_SxCR_CHSEL | DMA_SxCR_MBURST | DMA_SxCR_PBURST | \
 8009840:	401d      	ands	r5, r3
  tmp |=  hdma->Init.Channel             | hdma->Init.Direction        |
 8009842:	68a3      	ldr	r3, [r4, #8]
 8009844:	4313      	orrs	r3, r2
 8009846:	68e2      	ldr	r2, [r4, #12]
 8009848:	4313      	orrs	r3, r2
          hdma->Init.PeriphInc           | hdma->Init.MemInc           |
 800984a:	6922      	ldr	r2, [r4, #16]
 800984c:	4313      	orrs	r3, r2
 800984e:	6962      	ldr	r2, [r4, #20]
 8009850:	4313      	orrs	r3, r2
          hdma->Init.PeriphDataAlignment | hdma->Init.MemDataAlignment |
 8009852:	69e2      	ldr	r2, [r4, #28]
 8009854:	4303      	orrs	r3, r0
 8009856:	4313      	orrs	r3, r2
          hdma->Init.Mode                | hdma->Init.Priority;
 8009858:	6a22      	ldr	r2, [r4, #32]
 800985a:	4313      	orrs	r3, r2
  if(hdma->Init.FIFOMode == DMA_FIFOMODE_ENABLE)
 800985c:	6a62      	ldr	r2, [r4, #36]	; 0x24
 800985e:	2a04      	cmp	r2, #4
  tmp |=  hdma->Init.Channel             | hdma->Init.Direction        |
 8009860:	ea43 0305 	orr.w	r3, r3, r5
    tmp |=  hdma->Init.MemBurst | hdma->Init.PeriphBurst;
 8009864:	bf01      	itttt	eq
 8009866:	6b26      	ldreq	r6, [r4, #48]	; 0x30
 8009868:	6ae5      	ldreq	r5, [r4, #44]	; 0x2c
 800986a:	4335      	orreq	r5, r6
 800986c:	432b      	orreq	r3, r5
  hdma->Instance->CR = tmp;  
 800986e:	600b      	str	r3, [r1, #0]
  tmp = hdma->Instance->FCR;
 8009870:	694b      	ldr	r3, [r1, #20]
  if(hdma->Init.FIFOMode == DMA_FIFOMODE_ENABLE)
 8009872:	2a04      	cmp	r2, #4
  tmp &= (uint32_t)~(DMA_SxFCR_DMDIS | DMA_SxFCR_FTH);
 8009874:	f023 0307 	bic.w	r3, r3, #7
  tmp |= hdma->Init.FIFOMode;
 8009878:	ea43 0302 	orr.w	r3, r3, r2
  if(hdma->Init.FIFOMode == DMA_FIFOMODE_ENABLE)
 800987c:	d10b      	bne.n	8009896 <HAL_DMA_Init+0x8a>
    tmp |= hdma->Init.FIFOThreshold;
 800987e:	6aa2      	ldr	r2, [r4, #40]	; 0x28
    if (hdma->Init.MemBurst != DMA_MBURST_SINGLE)
 8009880:	6ae5      	ldr	r5, [r4, #44]	; 0x2c
    tmp |= hdma->Init.FIFOThreshold;
 8009882:	4313      	orrs	r3, r2
    if (hdma->Init.MemBurst != DMA_MBURST_SINGLE)
 8009884:	b13d      	cbz	r5, 8009896 <HAL_DMA_Init+0x8a>
{
  HAL_StatusTypeDef status = HAL_OK;
  uint32_t tmp = hdma->Init.FIFOThreshold;
  
  /* Memory Data size equal to Byte */
  if(hdma->Init.MemDataAlignment == DMA_MDATAALIGN_BYTE)
 8009886:	b9f8      	cbnz	r0, 80098c8 <HAL_DMA_Init+0xbc>
  {
    switch (tmp)
 8009888:	2a01      	cmp	r2, #1
 800988a:	d02d      	beq.n	80098e8 <HAL_DMA_Init+0xdc>
 800988c:	d301      	bcc.n	8009892 <HAL_DMA_Init+0x86>
 800988e:	2a02      	cmp	r2, #2
  }
  
  /* Memory Data size equal to Word */
  else
  {
    switch (tmp)
 8009890:	d101      	bne.n	8009896 <HAL_DMA_Init+0x8a>
    case DMA_FIFO_THRESHOLD_HALFFULL:
    case DMA_FIFO_THRESHOLD_3QUARTERSFULL:
      status = HAL_ERROR;
      break;
    case DMA_FIFO_THRESHOLD_FULL:
      if ((hdma->Init.MemBurst & DMA_SxCR_MBURST_1) == DMA_SxCR_MBURST_1)
 8009892:	01ea      	lsls	r2, r5, #7
 8009894:	d42b      	bmi.n	80098ee <HAL_DMA_Init+0xe2>
  hdma->Instance->FCR = tmp;
 8009896:	614b      	str	r3, [r1, #20]
  regs = (DMA_Base_Registers *)DMA_CalcBaseAndBitshift(hdma);
 8009898:	4620      	mov	r0, r4
 800989a:	f7ff ffa1 	bl	80097e0 <DMA_CalcBaseAndBitshift>
  regs->IFCR = 0x3FU << hdma->StreamIndex;
 800989e:	6de2      	ldr	r2, [r4, #92]	; 0x5c
 80098a0:	233f      	movs	r3, #63	; 0x3f
 80098a2:	4093      	lsls	r3, r2
 80098a4:	6083      	str	r3, [r0, #8]
  hdma->ErrorCode = HAL_DMA_ERROR_NONE;
 80098a6:	2000      	movs	r0, #0
  hdma->State = HAL_DMA_STATE_READY;
 80098a8:	2301      	movs	r3, #1
  hdma->ErrorCode = HAL_DMA_ERROR_NONE;
 80098aa:	6560      	str	r0, [r4, #84]	; 0x54
  hdma->State = HAL_DMA_STATE_READY;
 80098ac:	f884 3035 	strb.w	r3, [r4, #53]	; 0x35
  return HAL_OK;
 80098b0:	bd70      	pop	{r4, r5, r6, pc}
    if((HAL_GetTick() - tickstart ) > HAL_TIMEOUT_DMA_ABORT)
 80098b2:	f7ff fcf7 	bl	80092a4 <HAL_GetTick>
 80098b6:	1b40      	subs	r0, r0, r5
 80098b8:	2805      	cmp	r0, #5
 80098ba:	d9b9      	bls.n	8009830 <HAL_DMA_Init+0x24>
      hdma->ErrorCode = HAL_DMA_ERROR_TIMEOUT;
 80098bc:	2320      	movs	r3, #32
 80098be:	6563      	str	r3, [r4, #84]	; 0x54
      hdma->State = HAL_DMA_STATE_TIMEOUT;
 80098c0:	2003      	movs	r0, #3
        hdma->State = HAL_DMA_STATE_READY;
 80098c2:	f884 0035 	strb.w	r0, [r4, #53]	; 0x35
}
 80098c6:	bd70      	pop	{r4, r5, r6, pc}
  else if (hdma->Init.MemDataAlignment == DMA_MDATAALIGN_HALFWORD)
 80098c8:	f5b0 5f00 	cmp.w	r0, #8192	; 0x2000
 80098cc:	d113      	bne.n	80098f6 <HAL_DMA_Init+0xea>
    switch (tmp)
 80098ce:	2a03      	cmp	r2, #3
 80098d0:	d8e1      	bhi.n	8009896 <HAL_DMA_Init+0x8a>
 80098d2:	a001      	add	r0, pc, #4	; (adr r0, 80098d8 <HAL_DMA_Init+0xcc>)
 80098d4:	f850 f022 	ldr.w	pc, [r0, r2, lsl #2]
 80098d8:	080098ef 	.word	0x080098ef
 80098dc:	08009893 	.word	0x08009893
 80098e0:	080098ef 	.word	0x080098ef
 80098e4:	080098e9 	.word	0x080098e9
      if (hdma->Init.MemBurst == DMA_MBURST_INC16)
 80098e8:	f1b5 7fc0 	cmp.w	r5, #25165824	; 0x1800000
 80098ec:	d1d3      	bne.n	8009896 <HAL_DMA_Init+0x8a>
        hdma->ErrorCode = HAL_DMA_ERROR_PARAM;
 80098ee:	2340      	movs	r3, #64	; 0x40
 80098f0:	6563      	str	r3, [r4, #84]	; 0x54
        hdma->State = HAL_DMA_STATE_READY;
 80098f2:	2001      	movs	r0, #1
 80098f4:	e7e5      	b.n	80098c2 <HAL_DMA_Init+0xb6>
    switch (tmp)
 80098f6:	2a02      	cmp	r2, #2
 80098f8:	d9f9      	bls.n	80098ee <HAL_DMA_Init+0xe2>
 80098fa:	2a03      	cmp	r2, #3
 80098fc:	e7c8      	b.n	8009890 <HAL_DMA_Init+0x84>
    return HAL_ERROR;
 80098fe:	2001      	movs	r0, #1
 8009900:	bd70      	pop	{r4, r5, r6, pc}
 8009902:	bf00      	nop
 8009904:	f010803f 	.word	0xf010803f

08009908 <HAL_DMA_Start_IT>:
{
 8009908:	b570      	push	{r4, r5, r6, lr}
  __HAL_LOCK(hdma);
 800990a:	f890 4034 	ldrb.w	r4, [r0, #52]	; 0x34
 800990e:	2c01      	cmp	r4, #1
 8009910:	d036      	beq.n	8009980 <HAL_DMA_Start_IT+0x78>
 8009912:	2401      	movs	r4, #1
 8009914:	f880 4034 	strb.w	r4, [r0, #52]	; 0x34
  if(HAL_DMA_STATE_READY == hdma->State)
 8009918:	f890 4035 	ldrb.w	r4, [r0, #53]	; 0x35
  DMA_Base_Registers *regs = (DMA_Base_Registers *)hdma->StreamBaseAddress;
 800991c:	6d86      	ldr	r6, [r0, #88]	; 0x58
  if(HAL_DMA_STATE_READY == hdma->State)
 800991e:	2c01      	cmp	r4, #1
 8009920:	f04f 0500 	mov.w	r5, #0
 8009924:	f04f 0402 	mov.w	r4, #2
 8009928:	d128      	bne.n	800997c <HAL_DMA_Start_IT+0x74>
    hdma->State = HAL_DMA_STATE_BUSY;
 800992a:	f880 4035 	strb.w	r4, [r0, #53]	; 0x35
  hdma->Instance->CR &= (uint32_t)(~DMA_SxCR_DBM);
 800992e:	6804      	ldr	r4, [r0, #0]
    hdma->ErrorCode = HAL_DMA_ERROR_NONE;
 8009930:	6545      	str	r5, [r0, #84]	; 0x54
  hdma->Instance->CR &= (uint32_t)(~DMA_SxCR_DBM);
 8009932:	6825      	ldr	r5, [r4, #0]
 8009934:	f425 2580 	bic.w	r5, r5, #262144	; 0x40000
 8009938:	6025      	str	r5, [r4, #0]
  hdma->Instance->NDTR = DataLength;
 800993a:	6063      	str	r3, [r4, #4]
  if((hdma->Init.Direction) == DMA_MEMORY_TO_PERIPH)
 800993c:	6883      	ldr	r3, [r0, #8]
 800993e:	2b40      	cmp	r3, #64	; 0x40
    hdma->Instance->PAR = DstAddress;
 8009940:	bf0e      	itee	eq
 8009942:	60a2      	streq	r2, [r4, #8]
    hdma->Instance->PAR = SrcAddress;
 8009944:	60a1      	strne	r1, [r4, #8]
    hdma->Instance->M0AR = DstAddress;
 8009946:	60e2      	strne	r2, [r4, #12]
    regs->IFCR = 0x3FU << hdma->StreamIndex;
 8009948:	6dc2      	ldr	r2, [r0, #92]	; 0x5c
    hdma->Instance->M0AR = SrcAddress;
 800994a:	bf08      	it	eq
 800994c:	60e1      	streq	r1, [r4, #12]
    regs->IFCR = 0x3FU << hdma->StreamIndex;
 800994e:	233f      	movs	r3, #63	; 0x3f
 8009950:	4093      	lsls	r3, r2
 8009952:	60b3      	str	r3, [r6, #8]
    hdma->Instance->CR  |= DMA_IT_TC | DMA_IT_TE | DMA_IT_DME;
 8009954:	6823      	ldr	r3, [r4, #0]
 8009956:	f043 0316 	orr.w	r3, r3, #22
 800995a:	6023      	str	r3, [r4, #0]
    hdma->Instance->FCR |= DMA_IT_FE;
 800995c:	6963      	ldr	r3, [r4, #20]
 800995e:	f043 0380 	orr.w	r3, r3, #128	; 0x80
 8009962:	6163      	str	r3, [r4, #20]
    if(hdma->XferHalfCpltCallback != NULL)
 8009964:	6c03      	ldr	r3, [r0, #64]	; 0x40
 8009966:	b11b      	cbz	r3, 8009970 <HAL_DMA_Start_IT+0x68>
      hdma->Instance->CR  |= DMA_IT_HT;
 8009968:	6823      	ldr	r3, [r4, #0]
 800996a:	f043 0308 	orr.w	r3, r3, #8
 800996e:	6023      	str	r3, [r4, #0]
    __HAL_DMA_ENABLE(hdma);
 8009970:	6823      	ldr	r3, [r4, #0]
 8009972:	f043 0301 	orr.w	r3, r3, #1
 8009976:	6023      	str	r3, [r4, #0]
  HAL_StatusTypeDef status = HAL_OK;
 8009978:	2000      	movs	r0, #0
 800997a:	bd70      	pop	{r4, r5, r6, pc}
    __HAL_UNLOCK(hdma);	  
 800997c:	f880 5034 	strb.w	r5, [r0, #52]	; 0x34
  __HAL_LOCK(hdma);
 8009980:	2002      	movs	r0, #2
}
 8009982:	bd70      	pop	{r4, r5, r6, pc}

08009984 <HAL_DMA_IRQHandler>:
{
 8009984:	b5f7      	push	{r0, r1, r2, r4, r5, r6, r7, lr}
  __IO uint32_t count = 0U;
 8009986:	2300      	movs	r3, #0
 8009988:	9301      	str	r3, [sp, #4]
  uint32_t timeout = SystemCoreClock / 9600U;
 800998a:	4b5a      	ldr	r3, [pc, #360]	; (8009af4 <HAL_DMA_IRQHandler+0x170>)
  DMA_Base_Registers *regs = (DMA_Base_Registers *)hdma->StreamBaseAddress;
 800998c:	6d85      	ldr	r5, [r0, #88]	; 0x58
  uint32_t timeout = SystemCoreClock / 9600U;
 800998e:	681f      	ldr	r7, [r3, #0]
  if ((tmpisr & (DMA_FLAG_TEIF0_4 << hdma->StreamIndex)) != RESET)
 8009990:	6dc3      	ldr	r3, [r0, #92]	; 0x5c
  tmpisr = regs->ISR;
 8009992:	682e      	ldr	r6, [r5, #0]
  if ((tmpisr & (DMA_FLAG_TEIF0_4 << hdma->StreamIndex)) != RESET)
 8009994:	2208      	movs	r2, #8
 8009996:	409a      	lsls	r2, r3
 8009998:	4216      	tst	r6, r2
{
 800999a:	4604      	mov	r4, r0
  if ((tmpisr & (DMA_FLAG_TEIF0_4 << hdma->StreamIndex)) != RESET)
 800999c:	d00c      	beq.n	80099b8 <HAL_DMA_IRQHandler+0x34>
    if(__HAL_DMA_GET_IT_SOURCE(hdma, DMA_IT_TE) != RESET)
 800999e:	6801      	ldr	r1, [r0, #0]
 80099a0:	6808      	ldr	r0, [r1, #0]
 80099a2:	0740      	lsls	r0, r0, #29
 80099a4:	d508      	bpl.n	80099b8 <HAL_DMA_IRQHandler+0x34>
      hdma->Instance->CR  &= ~(DMA_IT_TE);
 80099a6:	6808      	ldr	r0, [r1, #0]
 80099a8:	f020 0004 	bic.w	r0, r0, #4
 80099ac:	6008      	str	r0, [r1, #0]
      regs->IFCR = DMA_FLAG_TEIF0_4 << hdma->StreamIndex;
 80099ae:	60aa      	str	r2, [r5, #8]
      hdma->ErrorCode |= HAL_DMA_ERROR_TE;
 80099b0:	6d62      	ldr	r2, [r4, #84]	; 0x54
 80099b2:	f042 0201 	orr.w	r2, r2, #1
 80099b6:	6562      	str	r2, [r4, #84]	; 0x54
  if ((tmpisr & (DMA_FLAG_FEIF0_4 << hdma->StreamIndex)) != RESET)
 80099b8:	2201      	movs	r2, #1
 80099ba:	409a      	lsls	r2, r3
 80099bc:	4216      	tst	r6, r2
 80099be:	d008      	beq.n	80099d2 <HAL_DMA_IRQHandler+0x4e>
    if(__HAL_DMA_GET_IT_SOURCE(hdma, DMA_IT_FE) != RESET)
 80099c0:	6821      	ldr	r1, [r4, #0]
 80099c2:	6949      	ldr	r1, [r1, #20]
 80099c4:	0609      	lsls	r1, r1, #24
      regs->IFCR = DMA_FLAG_FEIF0_4 << hdma->StreamIndex;
 80099c6:	bf41      	itttt	mi
 80099c8:	60aa      	strmi	r2, [r5, #8]
      hdma->ErrorCode |= HAL_DMA_ERROR_FE;
 80099ca:	6d62      	ldrmi	r2, [r4, #84]	; 0x54
 80099cc:	f042 0202 	orrmi.w	r2, r2, #2
 80099d0:	6562      	strmi	r2, [r4, #84]	; 0x54
  if ((tmpisr & (DMA_FLAG_DMEIF0_4 << hdma->StreamIndex)) != RESET)
 80099d2:	2204      	movs	r2, #4
 80099d4:	409a      	lsls	r2, r3
 80099d6:	4216      	tst	r6, r2
 80099d8:	d008      	beq.n	80099ec <HAL_DMA_IRQHandler+0x68>
    if(__HAL_DMA_GET_IT_SOURCE(hdma, DMA_IT_DME) != RESET)
 80099da:	6821      	ldr	r1, [r4, #0]
 80099dc:	6809      	ldr	r1, [r1, #0]
 80099de:	0788      	lsls	r0, r1, #30
      regs->IFCR = DMA_FLAG_DMEIF0_4 << hdma->StreamIndex;
 80099e0:	bf41      	itttt	mi
 80099e2:	60aa      	strmi	r2, [r5, #8]
      hdma->ErrorCode |= HAL_DMA_ERROR_DME;
 80099e4:	6d62      	ldrmi	r2, [r4, #84]	; 0x54
 80099e6:	f042 0204 	orrmi.w	r2, r2, #4
 80099ea:	6562      	strmi	r2, [r4, #84]	; 0x54
  if ((tmpisr & (DMA_FLAG_HTIF0_4 << hdma->StreamIndex)) != RESET)
 80099ec:	2210      	movs	r2, #16
 80099ee:	409a      	lsls	r2, r3
 80099f0:	4216      	tst	r6, r2
 80099f2:	d010      	beq.n	8009a16 <HAL_DMA_IRQHandler+0x92>
    if(__HAL_DMA_GET_IT_SOURCE(hdma, DMA_IT_HT) != RESET)
 80099f4:	6823      	ldr	r3, [r4, #0]
 80099f6:	6819      	ldr	r1, [r3, #0]
 80099f8:	0709      	lsls	r1, r1, #28
 80099fa:	d50c      	bpl.n	8009a16 <HAL_DMA_IRQHandler+0x92>
      regs->IFCR = DMA_FLAG_HTIF0_4 << hdma->StreamIndex;
 80099fc:	60aa      	str	r2, [r5, #8]
      if(((hdma->Instance->CR) & (uint32_t)(DMA_SxCR_DBM)) != RESET)
 80099fe:	681a      	ldr	r2, [r3, #0]
 8009a00:	0350      	lsls	r0, r2, #13
 8009a02:	d535      	bpl.n	8009a70 <HAL_DMA_IRQHandler+0xec>
        if((hdma->Instance->CR & DMA_SxCR_CT) == RESET)
 8009a04:	681b      	ldr	r3, [r3, #0]
 8009a06:	0319      	lsls	r1, r3, #12
 8009a08:	d401      	bmi.n	8009a0e <HAL_DMA_IRQHandler+0x8a>
        if(hdma->XferHalfCpltCallback != NULL)
 8009a0a:	6c23      	ldr	r3, [r4, #64]	; 0x40
 8009a0c:	e000      	b.n	8009a10 <HAL_DMA_IRQHandler+0x8c>
          if(hdma->XferM1HalfCpltCallback != NULL)
 8009a0e:	6ca3      	ldr	r3, [r4, #72]	; 0x48
        if(hdma->XferHalfCpltCallback != NULL)
 8009a10:	b10b      	cbz	r3, 8009a16 <HAL_DMA_IRQHandler+0x92>
          hdma->XferHalfCpltCallback(hdma);
 8009a12:	4620      	mov	r0, r4
 8009a14:	4798      	blx	r3
  if ((tmpisr & (DMA_FLAG_TCIF0_4 << hdma->StreamIndex)) != RESET)
 8009a16:	6de1      	ldr	r1, [r4, #92]	; 0x5c
 8009a18:	2220      	movs	r2, #32
 8009a1a:	408a      	lsls	r2, r1
 8009a1c:	4216      	tst	r6, r2
 8009a1e:	d038      	beq.n	8009a92 <HAL_DMA_IRQHandler+0x10e>
    if(__HAL_DMA_GET_IT_SOURCE(hdma, DMA_IT_TC) != RESET)
 8009a20:	6823      	ldr	r3, [r4, #0]
 8009a22:	6818      	ldr	r0, [r3, #0]
 8009a24:	06c6      	lsls	r6, r0, #27
 8009a26:	d534      	bpl.n	8009a92 <HAL_DMA_IRQHandler+0x10e>
      regs->IFCR = DMA_FLAG_TCIF0_4 << hdma->StreamIndex;
 8009a28:	60aa      	str	r2, [r5, #8]
      if(HAL_DMA_STATE_ABORT == hdma->State)
 8009a2a:	f894 2035 	ldrb.w	r2, [r4, #53]	; 0x35
 8009a2e:	2a05      	cmp	r2, #5
        hdma->Instance->CR  &= ~(DMA_IT_TC | DMA_IT_TE | DMA_IT_DME);
 8009a30:	681a      	ldr	r2, [r3, #0]
      if(HAL_DMA_STATE_ABORT == hdma->State)
 8009a32:	d125      	bne.n	8009a80 <HAL_DMA_IRQHandler+0xfc>
        hdma->Instance->CR  &= ~(DMA_IT_TC | DMA_IT_TE | DMA_IT_DME);
 8009a34:	f022 0216 	bic.w	r2, r2, #22
 8009a38:	601a      	str	r2, [r3, #0]
        hdma->Instance->FCR &= ~(DMA_IT_FE);
 8009a3a:	695a      	ldr	r2, [r3, #20]
 8009a3c:	f022 0280 	bic.w	r2, r2, #128	; 0x80
 8009a40:	615a      	str	r2, [r3, #20]
        if((hdma->XferHalfCpltCallback != NULL) || (hdma->XferM1HalfCpltCallback != NULL))
 8009a42:	6c22      	ldr	r2, [r4, #64]	; 0x40
 8009a44:	b90a      	cbnz	r2, 8009a4a <HAL_DMA_IRQHandler+0xc6>
 8009a46:	6ca2      	ldr	r2, [r4, #72]	; 0x48
 8009a48:	b11a      	cbz	r2, 8009a52 <HAL_DMA_IRQHandler+0xce>
          hdma->Instance->CR  &= ~(DMA_IT_HT);
 8009a4a:	681a      	ldr	r2, [r3, #0]
 8009a4c:	f022 0208 	bic.w	r2, r2, #8
 8009a50:	601a      	str	r2, [r3, #0]
        regs->IFCR = 0x3FU << hdma->StreamIndex;
 8009a52:	233f      	movs	r3, #63	; 0x3f
 8009a54:	408b      	lsls	r3, r1
 8009a56:	60ab      	str	r3, [r5, #8]
        __HAL_UNLOCK(hdma);
 8009a58:	2300      	movs	r3, #0
 8009a5a:	f884 3034 	strb.w	r3, [r4, #52]	; 0x34
        hdma->State = HAL_DMA_STATE_READY;
 8009a5e:	2301      	movs	r3, #1
 8009a60:	f884 3035 	strb.w	r3, [r4, #53]	; 0x35
        if(hdma->XferAbortCallback != NULL)
 8009a64:	6d23      	ldr	r3, [r4, #80]	; 0x50
    if(hdma->XferErrorCallback != NULL)
 8009a66:	b10b      	cbz	r3, 8009a6c <HAL_DMA_IRQHandler+0xe8>
      hdma->XferErrorCallback(hdma);
 8009a68:	4620      	mov	r0, r4
 8009a6a:	4798      	blx	r3
}
 8009a6c:	b003      	add	sp, #12
 8009a6e:	bdf0      	pop	{r4, r5, r6, r7, pc}
        if((hdma->Instance->CR & DMA_SxCR_CIRC) == RESET)
 8009a70:	681a      	ldr	r2, [r3, #0]
 8009a72:	05d2      	lsls	r2, r2, #23
          hdma->Instance->CR  &= ~(DMA_IT_HT);
 8009a74:	bf5e      	ittt	pl
 8009a76:	681a      	ldrpl	r2, [r3, #0]
 8009a78:	f022 0208 	bicpl.w	r2, r2, #8
 8009a7c:	601a      	strpl	r2, [r3, #0]
 8009a7e:	e7c4      	b.n	8009a0a <HAL_DMA_IRQHandler+0x86>
      if(((hdma->Instance->CR) & (uint32_t)(DMA_SxCR_DBM)) != RESET)
 8009a80:	0350      	lsls	r0, r2, #13
 8009a82:	d528      	bpl.n	8009ad6 <HAL_DMA_IRQHandler+0x152>
        if((hdma->Instance->CR & DMA_SxCR_CT) == RESET)
 8009a84:	681b      	ldr	r3, [r3, #0]
 8009a86:	0319      	lsls	r1, r3, #12
 8009a88:	d432      	bmi.n	8009af0 <HAL_DMA_IRQHandler+0x16c>
          if(hdma->XferM1CpltCallback != NULL)
 8009a8a:	6c63      	ldr	r3, [r4, #68]	; 0x44
        if(hdma->XferCpltCallback != NULL)
 8009a8c:	b10b      	cbz	r3, 8009a92 <HAL_DMA_IRQHandler+0x10e>
          hdma->XferCpltCallback(hdma);
 8009a8e:	4620      	mov	r0, r4
 8009a90:	4798      	blx	r3
  if(hdma->ErrorCode != HAL_DMA_ERROR_NONE)
 8009a92:	6d63      	ldr	r3, [r4, #84]	; 0x54
 8009a94:	2b00      	cmp	r3, #0
 8009a96:	d0e9      	beq.n	8009a6c <HAL_DMA_IRQHandler+0xe8>
    if((hdma->ErrorCode & HAL_DMA_ERROR_TE) != RESET)
 8009a98:	6d63      	ldr	r3, [r4, #84]	; 0x54
 8009a9a:	07da      	lsls	r2, r3, #31
 8009a9c:	d519      	bpl.n	8009ad2 <HAL_DMA_IRQHandler+0x14e>
      hdma->State = HAL_DMA_STATE_ABORT;
 8009a9e:	2305      	movs	r3, #5
      __HAL_DMA_DISABLE(hdma);
 8009aa0:	6822      	ldr	r2, [r4, #0]
      hdma->State = HAL_DMA_STATE_ABORT;
 8009aa2:	f884 3035 	strb.w	r3, [r4, #53]	; 0x35
      __HAL_DMA_DISABLE(hdma);
 8009aa6:	6813      	ldr	r3, [r2, #0]
 8009aa8:	f023 0301 	bic.w	r3, r3, #1
 8009aac:	6013      	str	r3, [r2, #0]
  uint32_t timeout = SystemCoreClock / 9600U;
 8009aae:	f44f 5316 	mov.w	r3, #9600	; 0x2580
 8009ab2:	fbb7 f7f3 	udiv	r7, r7, r3
        if (++count > timeout)
 8009ab6:	9b01      	ldr	r3, [sp, #4]
 8009ab8:	3301      	adds	r3, #1
 8009aba:	429f      	cmp	r7, r3
 8009abc:	9301      	str	r3, [sp, #4]
 8009abe:	d302      	bcc.n	8009ac6 <HAL_DMA_IRQHandler+0x142>
      while((hdma->Instance->CR & DMA_SxCR_EN) != RESET);
 8009ac0:	6813      	ldr	r3, [r2, #0]
 8009ac2:	07db      	lsls	r3, r3, #31
 8009ac4:	d4f7      	bmi.n	8009ab6 <HAL_DMA_IRQHandler+0x132>
      __HAL_UNLOCK(hdma);
 8009ac6:	2300      	movs	r3, #0
 8009ac8:	f884 3034 	strb.w	r3, [r4, #52]	; 0x34
      hdma->State = HAL_DMA_STATE_READY;
 8009acc:	2301      	movs	r3, #1
 8009ace:	f884 3035 	strb.w	r3, [r4, #53]	; 0x35
    if(hdma->XferErrorCallback != NULL)
 8009ad2:	6ce3      	ldr	r3, [r4, #76]	; 0x4c
 8009ad4:	e7c7      	b.n	8009a66 <HAL_DMA_IRQHandler+0xe2>
        if((hdma->Instance->CR & DMA_SxCR_CIRC) == RESET)
 8009ad6:	681a      	ldr	r2, [r3, #0]
 8009ad8:	f412 7280 	ands.w	r2, r2, #256	; 0x100
 8009adc:	d108      	bne.n	8009af0 <HAL_DMA_IRQHandler+0x16c>
          hdma->Instance->CR  &= ~(DMA_IT_TC);
 8009ade:	6819      	ldr	r1, [r3, #0]
 8009ae0:	f021 0110 	bic.w	r1, r1, #16
 8009ae4:	6019      	str	r1, [r3, #0]
          hdma->State = HAL_DMA_STATE_READY;
 8009ae6:	2301      	movs	r3, #1
          __HAL_UNLOCK(hdma);
 8009ae8:	f884 2034 	strb.w	r2, [r4, #52]	; 0x34
          hdma->State = HAL_DMA_STATE_READY;
 8009aec:	f884 3035 	strb.w	r3, [r4, #53]	; 0x35
        if(hdma->XferCpltCallback != NULL)
 8009af0:	6be3      	ldr	r3, [r4, #60]	; 0x3c
 8009af2:	e7cb      	b.n	8009a8c <HAL_DMA_IRQHandler+0x108>
 8009af4:	200015ac 	.word	0x200015ac

08009af8 <HAL_GPIO_Init>:
  * @param  GPIO_Init pointer to a GPIO_InitTypeDef structure that contains
  *         the configuration information for the specified GPIO peripheral.
  * @retval None
  */
void HAL_GPIO_Init(GPIO_TypeDef  *GPIOx, GPIO_InitTypeDef *GPIO_Init)
{
 8009af8:	e92d 4ff0 	stmdb	sp!, {r4, r5, r6, r7, r8, r9, sl, fp, lr}
 8009afc:	b085      	sub	sp, #20
  for(position = 0U; position < GPIO_NUMBER; position++)
  {
    /* Get the IO position */
    ioposition = 0x01U << position;
    /* Get the current IO position */
    iocurrent = (uint32_t)(GPIO_Init->Pin) & ioposition;
 8009afe:	680b      	ldr	r3, [r1, #0]
      /*--------------------- EXTI Mode Configuration ------------------------*/
      /* Configure the External Interrupt or event for the current IO */
      if((GPIO_Init->Mode & EXTI_MODE) == EXTI_MODE)
      {
        /* Enable SYSCFG Clock */
        __HAL_RCC_SYSCFG_CLK_ENABLE();
 8009b00:	f8df 819c 	ldr.w	r8, [pc, #412]	; 8009ca0 <HAL_GPIO_Init+0x1a8>
        temp &= ~(0x0FU << (4U * (position & 0x03U)));
        temp |= ((uint32_t)(GPIO_GET_INDEX(GPIOx)) << (4U * (position & 0x03U)));
        SYSCFG->EXTICR[position >> 2U] = temp;

        /* Clear EXTI line configuration */
        temp = EXTI->IMR;
 8009b04:	4a64      	ldr	r2, [pc, #400]	; (8009c98 <HAL_GPIO_Init+0x1a0>)
    iocurrent = (uint32_t)(GPIO_Init->Pin) & ioposition;
 8009b06:	9301      	str	r3, [sp, #4]
    ioposition = 0x01U << position;
 8009b08:	f04f 0901 	mov.w	r9, #1
  for(position = 0U; position < GPIO_NUMBER; position++)
 8009b0c:	2300      	movs	r3, #0
    iocurrent = (uint32_t)(GPIO_Init->Pin) & ioposition;
 8009b0e:	9c01      	ldr	r4, [sp, #4]
    ioposition = 0x01U << position;
 8009b10:	fa09 f703 	lsl.w	r7, r9, r3
    iocurrent = (uint32_t)(GPIO_Init->Pin) & ioposition;
 8009b14:	ea07 0604 	and.w	r6, r7, r4
    if(iocurrent == ioposition)
 8009b18:	42b7      	cmp	r7, r6
 8009b1a:	f040 80ad 	bne.w	8009c78 <HAL_GPIO_Init+0x180>
      if((GPIO_Init->Mode == GPIO_MODE_AF_PP) || (GPIO_Init->Mode == GPIO_MODE_AF_OD))
 8009b1e:	684c      	ldr	r4, [r1, #4]
 8009b20:	f024 0a10 	bic.w	sl, r4, #16
 8009b24:	f1ba 0f02 	cmp.w	sl, #2
 8009b28:	d116      	bne.n	8009b58 <HAL_GPIO_Init+0x60>
        temp = GPIOx->AFR[position >> 3U];
 8009b2a:	ea4f 0cd3 	mov.w	ip, r3, lsr #3
 8009b2e:	eb00 0c8c 	add.w	ip, r0, ip, lsl #2
        temp &= ~(0xFU << ((uint32_t)(position & 0x07U) * 4U)) ;
 8009b32:	f003 0b07 	and.w	fp, r3, #7
        temp = GPIOx->AFR[position >> 3U];
 8009b36:	f8dc 5020 	ldr.w	r5, [ip, #32]
        temp &= ~(0xFU << ((uint32_t)(position & 0x07U) * 4U)) ;
 8009b3a:	ea4f 0b8b 	mov.w	fp, fp, lsl #2
 8009b3e:	f04f 0e0f 	mov.w	lr, #15
 8009b42:	fa0e fe0b 	lsl.w	lr, lr, fp
 8009b46:	ea25 0e0e 	bic.w	lr, r5, lr
        temp |= ((uint32_t)(GPIO_Init->Alternate) << (((uint32_t)position & 0x07U) * 4U));
 8009b4a:	690d      	ldr	r5, [r1, #16]
 8009b4c:	fa05 f50b 	lsl.w	r5, r5, fp
 8009b50:	ea45 050e 	orr.w	r5, r5, lr
        GPIOx->AFR[position >> 3U] = temp;
 8009b54:	f8cc 5020 	str.w	r5, [ip, #32]
 8009b58:	ea4f 0c43 	mov.w	ip, r3, lsl #1
      temp &= ~(GPIO_MODER_MODER0 << (position * 2U));
 8009b5c:	2503      	movs	r5, #3
      temp = GPIOx->MODER;
 8009b5e:	f8d0 b000 	ldr.w	fp, [r0]
      temp &= ~(GPIO_MODER_MODER0 << (position * 2U));
 8009b62:	fa05 f50c 	lsl.w	r5, r5, ip
 8009b66:	43ed      	mvns	r5, r5
      temp |= ((GPIO_Init->Mode & GPIO_MODE) << (position * 2U));
 8009b68:	f004 0e03 	and.w	lr, r4, #3
      temp &= ~(GPIO_MODER_MODER0 << (position * 2U));
 8009b6c:	ea0b 0b05 	and.w	fp, fp, r5
      temp |= ((GPIO_Init->Mode & GPIO_MODE) << (position * 2U));
 8009b70:	fa0e fe0c 	lsl.w	lr, lr, ip
      if((GPIO_Init->Mode == GPIO_MODE_OUTPUT_PP) || (GPIO_Init->Mode == GPIO_MODE_AF_PP) ||
 8009b74:	f10a 3aff 	add.w	sl, sl, #4294967295
      temp |= ((GPIO_Init->Mode & GPIO_MODE) << (position * 2U));
 8009b78:	ea4e 0e0b 	orr.w	lr, lr, fp
      if((GPIO_Init->Mode == GPIO_MODE_OUTPUT_PP) || (GPIO_Init->Mode == GPIO_MODE_AF_PP) ||
 8009b7c:	f1ba 0f01 	cmp.w	sl, #1
      temp &= ~(GPIO_MODER_MODER0 << (position * 2U));
 8009b80:	9500      	str	r5, [sp, #0]
      GPIOx->MODER = temp;
 8009b82:	f8c0 e000 	str.w	lr, [r0]
      if((GPIO_Init->Mode == GPIO_MODE_OUTPUT_PP) || (GPIO_Init->Mode == GPIO_MODE_AF_PP) ||
 8009b86:	d815      	bhi.n	8009bb4 <HAL_GPIO_Init+0xbc>
        temp = GPIOx->OSPEEDR; 
 8009b88:	f8d0 e008 	ldr.w	lr, [r0, #8]
        temp &= ~(GPIO_OSPEEDER_OSPEEDR0 << (position * 2U));
 8009b8c:	ea05 0e0e 	and.w	lr, r5, lr
        temp |= (GPIO_Init->Speed << (position * 2U));
 8009b90:	68cd      	ldr	r5, [r1, #12]
 8009b92:	fa05 fa0c 	lsl.w	sl, r5, ip
 8009b96:	ea4a 0e0e 	orr.w	lr, sl, lr
        GPIOx->OSPEEDR = temp;
 8009b9a:	f8c0 e008 	str.w	lr, [r0, #8]
        temp = GPIOx->OTYPER;
 8009b9e:	f8d0 e004 	ldr.w	lr, [r0, #4]
        temp &= ~(GPIO_OTYPER_OT_0 << position) ;
 8009ba2:	ea2e 0707 	bic.w	r7, lr, r7
        temp |= (((GPIO_Init->Mode & GPIO_OUTPUT_TYPE) >> 4U) << position);
 8009ba6:	f3c4 1e00 	ubfx	lr, r4, #4, #1
 8009baa:	fa0e fe03 	lsl.w	lr, lr, r3
 8009bae:	ea4e 0707 	orr.w	r7, lr, r7
        GPIOx->OTYPER = temp;
 8009bb2:	6047      	str	r7, [r0, #4]
      temp = GPIOx->PUPDR;
 8009bb4:	68c7      	ldr	r7, [r0, #12]
      temp &= ~(GPIO_PUPDR_PUPDR0 << (position * 2U));
 8009bb6:	9d00      	ldr	r5, [sp, #0]
 8009bb8:	403d      	ands	r5, r7
      temp |= ((GPIO_Init->Pull) << (position * 2U));
 8009bba:	688f      	ldr	r7, [r1, #8]
 8009bbc:	fa07 f70c 	lsl.w	r7, r7, ip
 8009bc0:	433d      	orrs	r5, r7
      GPIOx->PUPDR = temp;
 8009bc2:	60c5      	str	r5, [r0, #12]
      if((GPIO_Init->Mode & EXTI_MODE) == EXTI_MODE)
 8009bc4:	00e5      	lsls	r5, r4, #3
 8009bc6:	d557      	bpl.n	8009c78 <HAL_GPIO_Init+0x180>
        __HAL_RCC_SYSCFG_CLK_ENABLE();
 8009bc8:	f04f 0b00 	mov.w	fp, #0
 8009bcc:	f8cd b00c 	str.w	fp, [sp, #12]
 8009bd0:	f8d8 7044 	ldr.w	r7, [r8, #68]	; 0x44
        temp |= ((uint32_t)(GPIO_GET_INDEX(GPIOx)) << (4U * (position & 0x03U)));
 8009bd4:	4d31      	ldr	r5, [pc, #196]	; (8009c9c <HAL_GPIO_Init+0x1a4>)
        __HAL_RCC_SYSCFG_CLK_ENABLE();
 8009bd6:	f447 4780 	orr.w	r7, r7, #16384	; 0x4000
 8009bda:	f8c8 7044 	str.w	r7, [r8, #68]	; 0x44
 8009bde:	f8d8 7044 	ldr.w	r7, [r8, #68]	; 0x44
 8009be2:	f407 4780 	and.w	r7, r7, #16384	; 0x4000
 8009be6:	9703      	str	r7, [sp, #12]
 8009be8:	9f03      	ldr	r7, [sp, #12]
 8009bea:	f023 0703 	bic.w	r7, r3, #3
 8009bee:	f107 4780 	add.w	r7, r7, #1073741824	; 0x40000000
 8009bf2:	f507 379c 	add.w	r7, r7, #79872	; 0x13800
        temp &= ~(0x0FU << (4U * (position & 0x03U)));
 8009bf6:	f003 0c03 	and.w	ip, r3, #3
        temp = SYSCFG->EXTICR[position >> 2U];
 8009bfa:	f8d7 a008 	ldr.w	sl, [r7, #8]
        temp &= ~(0x0FU << (4U * (position & 0x03U)));
 8009bfe:	ea4f 0c8c 	mov.w	ip, ip, lsl #2
 8009c02:	f04f 0e0f 	mov.w	lr, #15
 8009c06:	fa0e fe0c 	lsl.w	lr, lr, ip
        temp |= ((uint32_t)(GPIO_GET_INDEX(GPIOx)) << (4U * (position & 0x03U)));
 8009c0a:	42a8      	cmp	r0, r5
        temp &= ~(0x0FU << (4U * (position & 0x03U)));
 8009c0c:	ea2a 0e0e 	bic.w	lr, sl, lr
        temp |= ((uint32_t)(GPIO_GET_INDEX(GPIOx)) << (4U * (position & 0x03U)));
 8009c10:	d039      	beq.n	8009c86 <HAL_GPIO_Init+0x18e>
 8009c12:	f505 6580 	add.w	r5, r5, #1024	; 0x400
 8009c16:	42a8      	cmp	r0, r5
 8009c18:	d037      	beq.n	8009c8a <HAL_GPIO_Init+0x192>
 8009c1a:	f505 6580 	add.w	r5, r5, #1024	; 0x400
 8009c1e:	42a8      	cmp	r0, r5
 8009c20:	d035      	beq.n	8009c8e <HAL_GPIO_Init+0x196>
 8009c22:	f505 6580 	add.w	r5, r5, #1024	; 0x400
 8009c26:	42a8      	cmp	r0, r5
 8009c28:	d033      	beq.n	8009c92 <HAL_GPIO_Init+0x19a>
 8009c2a:	f505 6580 	add.w	r5, r5, #1024	; 0x400
 8009c2e:	42a8      	cmp	r0, r5
 8009c30:	bf14      	ite	ne
 8009c32:	2507      	movne	r5, #7
 8009c34:	2504      	moveq	r5, #4
 8009c36:	fa05 f50c 	lsl.w	r5, r5, ip
 8009c3a:	ea45 050e 	orr.w	r5, r5, lr
        SYSCFG->EXTICR[position >> 2U] = temp;
 8009c3e:	60bd      	str	r5, [r7, #8]
        temp = EXTI->IMR;
 8009c40:	6815      	ldr	r5, [r2, #0]
        temp &= ~((uint32_t)iocurrent);
 8009c42:	43f7      	mvns	r7, r6
        if((GPIO_Init->Mode & GPIO_MODE_IT) == GPIO_MODE_IT)
 8009c44:	f414 3f80 	tst.w	r4, #65536	; 0x10000
        temp &= ~((uint32_t)iocurrent);
 8009c48:	bf0c      	ite	eq
 8009c4a:	403d      	andeq	r5, r7
        {
          temp |= iocurrent;
 8009c4c:	4335      	orrne	r5, r6
        }
        EXTI->IMR = temp;
 8009c4e:	6015      	str	r5, [r2, #0]

        temp = EXTI->EMR;
 8009c50:	6855      	ldr	r5, [r2, #4]
        temp &= ~((uint32_t)iocurrent);
        if((GPIO_Init->Mode & GPIO_MODE_EVT) == GPIO_MODE_EVT)
 8009c52:	f414 3f00 	tst.w	r4, #131072	; 0x20000
        temp &= ~((uint32_t)iocurrent);
 8009c56:	bf0c      	ite	eq
 8009c58:	403d      	andeq	r5, r7
        {
          temp |= iocurrent;
 8009c5a:	4335      	orrne	r5, r6
        }
        EXTI->EMR = temp;
 8009c5c:	6055      	str	r5, [r2, #4]

        /* Clear Rising Falling edge configuration */
        temp = EXTI->RTSR;
 8009c5e:	6895      	ldr	r5, [r2, #8]
        temp &= ~((uint32_t)iocurrent);
        if((GPIO_Init->Mode & RISING_EDGE) == RISING_EDGE)
 8009c60:	f414 1f80 	tst.w	r4, #1048576	; 0x100000
        temp &= ~((uint32_t)iocurrent);
 8009c64:	bf0c      	ite	eq
 8009c66:	403d      	andeq	r5, r7
        {
          temp |= iocurrent;
 8009c68:	4335      	orrne	r5, r6
        }
        EXTI->RTSR = temp;
 8009c6a:	6095      	str	r5, [r2, #8]

        temp = EXTI->FTSR;
 8009c6c:	68d5      	ldr	r5, [r2, #12]
        temp &= ~((uint32_t)iocurrent);
        if((GPIO_Init->Mode & FALLING_EDGE) == FALLING_EDGE)
 8009c6e:	02a4      	lsls	r4, r4, #10
        temp &= ~((uint32_t)iocurrent);
 8009c70:	bf54      	ite	pl
 8009c72:	403d      	andpl	r5, r7
        {
          temp |= iocurrent;
 8009c74:	4335      	orrmi	r5, r6
        }
        EXTI->FTSR = temp;
 8009c76:	60d5      	str	r5, [r2, #12]
  for(position = 0U; position < GPIO_NUMBER; position++)
 8009c78:	3301      	adds	r3, #1
 8009c7a:	2b10      	cmp	r3, #16
 8009c7c:	f47f af47 	bne.w	8009b0e <HAL_GPIO_Init+0x16>
      }
    }
  }
}
 8009c80:	b005      	add	sp, #20
 8009c82:	e8bd 8ff0 	ldmia.w	sp!, {r4, r5, r6, r7, r8, r9, sl, fp, pc}
        temp |= ((uint32_t)(GPIO_GET_INDEX(GPIOx)) << (4U * (position & 0x03U)));
 8009c86:	465d      	mov	r5, fp
 8009c88:	e7d5      	b.n	8009c36 <HAL_GPIO_Init+0x13e>
 8009c8a:	2501      	movs	r5, #1
 8009c8c:	e7d3      	b.n	8009c36 <HAL_GPIO_Init+0x13e>
 8009c8e:	2502      	movs	r5, #2
 8009c90:	e7d1      	b.n	8009c36 <HAL_GPIO_Init+0x13e>
 8009c92:	2503      	movs	r5, #3
 8009c94:	e7cf      	b.n	8009c36 <HAL_GPIO_Init+0x13e>
 8009c96:	bf00      	nop
 8009c98:	40013c00 	.word	0x40013c00
 8009c9c:	40020000 	.word	0x40020000
 8009ca0:	40023800 	.word	0x40023800

08009ca4 <HAL_GPIO_ReadPin>:
  GPIO_PinState bitstatus;

  /* Check the parameters */
  assert_param(IS_GPIO_PIN(GPIO_Pin));

  if((GPIOx->IDR & GPIO_Pin) != (uint32_t)GPIO_PIN_RESET)
 8009ca4:	6903      	ldr	r3, [r0, #16]
 8009ca6:	4219      	tst	r1, r3
  else
  {
    bitstatus = GPIO_PIN_RESET;
  }
  return bitstatus;
}
 8009ca8:	bf14      	ite	ne
 8009caa:	2001      	movne	r0, #1
 8009cac:	2000      	moveq	r0, #0
 8009cae:	4770      	bx	lr

08009cb0 <HAL_GPIO_WritePin>:
{
  /* Check the parameters */
  assert_param(IS_GPIO_PIN(GPIO_Pin));
  assert_param(IS_GPIO_PIN_ACTION(PinState));

  if(PinState != GPIO_PIN_RESET)
 8009cb0:	b10a      	cbz	r2, 8009cb6 <HAL_GPIO_WritePin+0x6>
  {
    GPIOx->BSRR = GPIO_Pin;
  }
  else
  {
    GPIOx->BSRR = (uint32_t)GPIO_Pin << 16U;
 8009cb2:	6181      	str	r1, [r0, #24]
 8009cb4:	4770      	bx	lr
 8009cb6:	0409      	lsls	r1, r1, #16
 8009cb8:	e7fb      	b.n	8009cb2 <HAL_GPIO_WritePin+0x2>
	...

08009cbc <HAL_GPIO_EXTI_IRQHandler>:
  * @brief  This function handles EXTI interrupt request.
  * @param  GPIO_Pin Specifies the pins connected EXTI line
  * @retval None
  */
void HAL_GPIO_EXTI_IRQHandler(uint16_t GPIO_Pin)
{
 8009cbc:	b508      	push	{r3, lr}
  /* EXTI line interrupt detected */
  if(__HAL_GPIO_EXTI_GET_IT(GPIO_Pin) != RESET)
 8009cbe:	4b04      	ldr	r3, [pc, #16]	; (8009cd0 <HAL_GPIO_EXTI_IRQHandler+0x14>)
 8009cc0:	6959      	ldr	r1, [r3, #20]
 8009cc2:	4201      	tst	r1, r0
 8009cc4:	d002      	beq.n	8009ccc <HAL_GPIO_EXTI_IRQHandler+0x10>
  {
    __HAL_GPIO_EXTI_CLEAR_IT(GPIO_Pin);
 8009cc6:	6158      	str	r0, [r3, #20]
    HAL_GPIO_EXTI_Callback(GPIO_Pin);
 8009cc8:	f000 fd3c 	bl	800a744 <HAL_GPIO_EXTI_Callback>
 8009ccc:	bd08      	pop	{r3, pc}
 8009cce:	bf00      	nop
 8009cd0:	40013c00 	.word	0x40013c00

08009cd4 <HAL_RCC_OscConfig>:
  *         supported by this API. User should request a transition to HSE Off
  *         first and then HSE On or HSE Bypass.
  * @retval HAL status
  */
__weak HAL_StatusTypeDef HAL_RCC_OscConfig(RCC_OscInitTypeDef  *RCC_OscInitStruct)
{
 8009cd4:	e92d 41f3 	stmdb	sp!, {r0, r1, r4, r5, r6, r7, r8, lr}
  uint32_t tickstart;

  /* Check Null pointer */
  if(RCC_OscInitStruct == NULL)
 8009cd8:	4604      	mov	r4, r0
 8009cda:	b918      	cbnz	r0, 8009ce4 <HAL_RCC_OscConfig+0x10>
  {
    return HAL_ERROR;
 8009cdc:	2001      	movs	r0, #1
    {
      return HAL_ERROR;
    }
  }
  return HAL_OK;
}
 8009cde:	b002      	add	sp, #8
 8009ce0:	e8bd 81f0 	ldmia.w	sp!, {r4, r5, r6, r7, r8, pc}
  if(((RCC_OscInitStruct->OscillatorType) & RCC_OSCILLATORTYPE_HSE) == RCC_OSCILLATORTYPE_HSE)
 8009ce4:	6803      	ldr	r3, [r0, #0]
 8009ce6:	07dd      	lsls	r5, r3, #31
 8009ce8:	d410      	bmi.n	8009d0c <HAL_RCC_OscConfig+0x38>
  if(((RCC_OscInitStruct->OscillatorType) & RCC_OSCILLATORTYPE_HSI) == RCC_OSCILLATORTYPE_HSI)
 8009cea:	6823      	ldr	r3, [r4, #0]
 8009cec:	0798      	lsls	r0, r3, #30
 8009cee:	d458      	bmi.n	8009da2 <HAL_RCC_OscConfig+0xce>
  if(((RCC_OscInitStruct->OscillatorType) & RCC_OSCILLATORTYPE_LSI) == RCC_OSCILLATORTYPE_LSI)
 8009cf0:	6823      	ldr	r3, [r4, #0]
 8009cf2:	071a      	lsls	r2, r3, #28
 8009cf4:	f100 809a 	bmi.w	8009e2c <HAL_RCC_OscConfig+0x158>
  if(((RCC_OscInitStruct->OscillatorType) & RCC_OSCILLATORTYPE_LSE) == RCC_OSCILLATORTYPE_LSE)
 8009cf8:	6823      	ldr	r3, [r4, #0]
 8009cfa:	075b      	lsls	r3, r3, #29
 8009cfc:	f100 80b8 	bmi.w	8009e70 <HAL_RCC_OscConfig+0x19c>
  if ((RCC_OscInitStruct->PLL.PLLState) != RCC_PLL_NONE)
 8009d00:	69a2      	ldr	r2, [r4, #24]
 8009d02:	2a00      	cmp	r2, #0
 8009d04:	f040 8119 	bne.w	8009f3a <HAL_RCC_OscConfig+0x266>
  return HAL_OK;
 8009d08:	2000      	movs	r0, #0
 8009d0a:	e7e8      	b.n	8009cde <HAL_RCC_OscConfig+0xa>
    if((__HAL_RCC_GET_SYSCLK_SOURCE() == RCC_CFGR_SWS_HSE) ||\
 8009d0c:	4ba6      	ldr	r3, [pc, #664]	; (8009fa8 <HAL_RCC_OscConfig+0x2d4>)
 8009d0e:	689a      	ldr	r2, [r3, #8]
 8009d10:	f002 020c 	and.w	r2, r2, #12
 8009d14:	2a04      	cmp	r2, #4
 8009d16:	d007      	beq.n	8009d28 <HAL_RCC_OscConfig+0x54>
      ((__HAL_RCC_GET_SYSCLK_SOURCE() == RCC_CFGR_SWS_PLL) && ((RCC->PLLCFGR & RCC_PLLCFGR_PLLSRC) == RCC_PLLCFGR_PLLSRC_HSE)))
 8009d18:	689a      	ldr	r2, [r3, #8]
 8009d1a:	f002 020c 	and.w	r2, r2, #12
    if((__HAL_RCC_GET_SYSCLK_SOURCE() == RCC_CFGR_SWS_HSE) ||\
 8009d1e:	2a08      	cmp	r2, #8
 8009d20:	d10a      	bne.n	8009d38 <HAL_RCC_OscConfig+0x64>
      ((__HAL_RCC_GET_SYSCLK_SOURCE() == RCC_CFGR_SWS_PLL) && ((RCC->PLLCFGR & RCC_PLLCFGR_PLLSRC) == RCC_PLLCFGR_PLLSRC_HSE)))
 8009d22:	685b      	ldr	r3, [r3, #4]
 8009d24:	0259      	lsls	r1, r3, #9
 8009d26:	d507      	bpl.n	8009d38 <HAL_RCC_OscConfig+0x64>
      if((__HAL_RCC_GET_FLAG(RCC_FLAG_HSERDY) != RESET) && (RCC_OscInitStruct->HSEState == RCC_HSE_OFF))
 8009d28:	4b9f      	ldr	r3, [pc, #636]	; (8009fa8 <HAL_RCC_OscConfig+0x2d4>)
 8009d2a:	681b      	ldr	r3, [r3, #0]
 8009d2c:	039a      	lsls	r2, r3, #14
 8009d2e:	d5dc      	bpl.n	8009cea <HAL_RCC_OscConfig+0x16>
 8009d30:	6863      	ldr	r3, [r4, #4]
 8009d32:	2b00      	cmp	r3, #0
 8009d34:	d1d9      	bne.n	8009cea <HAL_RCC_OscConfig+0x16>
 8009d36:	e7d1      	b.n	8009cdc <HAL_RCC_OscConfig+0x8>
      __HAL_RCC_HSE_CONFIG(RCC_OscInitStruct->HSEState);
 8009d38:	6863      	ldr	r3, [r4, #4]
 8009d3a:	4d9b      	ldr	r5, [pc, #620]	; (8009fa8 <HAL_RCC_OscConfig+0x2d4>)
 8009d3c:	f5b3 3f80 	cmp.w	r3, #65536	; 0x10000
 8009d40:	d111      	bne.n	8009d66 <HAL_RCC_OscConfig+0x92>
 8009d42:	682b      	ldr	r3, [r5, #0]
 8009d44:	f443 3380 	orr.w	r3, r3, #65536	; 0x10000
 8009d48:	602b      	str	r3, [r5, #0]
        tickstart = HAL_GetTick();
 8009d4a:	f7ff faab 	bl	80092a4 <HAL_GetTick>
        while(__HAL_RCC_GET_FLAG(RCC_FLAG_HSERDY) == RESET)
 8009d4e:	4d96      	ldr	r5, [pc, #600]	; (8009fa8 <HAL_RCC_OscConfig+0x2d4>)
        tickstart = HAL_GetTick();
 8009d50:	4606      	mov	r6, r0
        while(__HAL_RCC_GET_FLAG(RCC_FLAG_HSERDY) == RESET)
 8009d52:	682b      	ldr	r3, [r5, #0]
 8009d54:	039b      	lsls	r3, r3, #14
 8009d56:	d4c8      	bmi.n	8009cea <HAL_RCC_OscConfig+0x16>
          if((HAL_GetTick() - tickstart ) > HSE_TIMEOUT_VALUE)
 8009d58:	f7ff faa4 	bl	80092a4 <HAL_GetTick>
 8009d5c:	1b80      	subs	r0, r0, r6
 8009d5e:	2864      	cmp	r0, #100	; 0x64
 8009d60:	d9f7      	bls.n	8009d52 <HAL_RCC_OscConfig+0x7e>
            return HAL_TIMEOUT;
 8009d62:	2003      	movs	r0, #3
 8009d64:	e7bb      	b.n	8009cde <HAL_RCC_OscConfig+0xa>
      __HAL_RCC_HSE_CONFIG(RCC_OscInitStruct->HSEState);
 8009d66:	f5b3 2fa0 	cmp.w	r3, #327680	; 0x50000
 8009d6a:	d104      	bne.n	8009d76 <HAL_RCC_OscConfig+0xa2>
 8009d6c:	682b      	ldr	r3, [r5, #0]
 8009d6e:	f443 2380 	orr.w	r3, r3, #262144	; 0x40000
 8009d72:	602b      	str	r3, [r5, #0]
 8009d74:	e7e5      	b.n	8009d42 <HAL_RCC_OscConfig+0x6e>
 8009d76:	682a      	ldr	r2, [r5, #0]
 8009d78:	f422 3280 	bic.w	r2, r2, #65536	; 0x10000
 8009d7c:	602a      	str	r2, [r5, #0]
 8009d7e:	682a      	ldr	r2, [r5, #0]
 8009d80:	f422 2280 	bic.w	r2, r2, #262144	; 0x40000
 8009d84:	602a      	str	r2, [r5, #0]
      if((RCC_OscInitStruct->HSEState) != RCC_HSE_OFF)
 8009d86:	2b00      	cmp	r3, #0
 8009d88:	d1df      	bne.n	8009d4a <HAL_RCC_OscConfig+0x76>
        tickstart = HAL_GetTick();
 8009d8a:	f7ff fa8b 	bl	80092a4 <HAL_GetTick>
 8009d8e:	4606      	mov	r6, r0
        while(__HAL_RCC_GET_FLAG(RCC_FLAG_HSERDY) != RESET)
 8009d90:	682b      	ldr	r3, [r5, #0]
 8009d92:	039f      	lsls	r7, r3, #14
 8009d94:	d5a9      	bpl.n	8009cea <HAL_RCC_OscConfig+0x16>
          if((HAL_GetTick() - tickstart ) > HSE_TIMEOUT_VALUE)
 8009d96:	f7ff fa85 	bl	80092a4 <HAL_GetTick>
 8009d9a:	1b80      	subs	r0, r0, r6
 8009d9c:	2864      	cmp	r0, #100	; 0x64
 8009d9e:	d9f7      	bls.n	8009d90 <HAL_RCC_OscConfig+0xbc>
 8009da0:	e7df      	b.n	8009d62 <HAL_RCC_OscConfig+0x8e>
    if((__HAL_RCC_GET_SYSCLK_SOURCE() == RCC_CFGR_SWS_HSI) ||\
 8009da2:	4b81      	ldr	r3, [pc, #516]	; (8009fa8 <HAL_RCC_OscConfig+0x2d4>)
 8009da4:	689a      	ldr	r2, [r3, #8]
 8009da6:	f012 0f0c 	tst.w	r2, #12
 8009daa:	d007      	beq.n	8009dbc <HAL_RCC_OscConfig+0xe8>
      ((__HAL_RCC_GET_SYSCLK_SOURCE() == RCC_CFGR_SWS_PLL) && ((RCC->PLLCFGR & RCC_PLLCFGR_PLLSRC) == RCC_PLLCFGR_PLLSRC_HSI)))
 8009dac:	689a      	ldr	r2, [r3, #8]
 8009dae:	f002 020c 	and.w	r2, r2, #12
    if((__HAL_RCC_GET_SYSCLK_SOURCE() == RCC_CFGR_SWS_HSI) ||\
 8009db2:	2a08      	cmp	r2, #8
 8009db4:	d111      	bne.n	8009dda <HAL_RCC_OscConfig+0x106>
      ((__HAL_RCC_GET_SYSCLK_SOURCE() == RCC_CFGR_SWS_PLL) && ((RCC->PLLCFGR & RCC_PLLCFGR_PLLSRC) == RCC_PLLCFGR_PLLSRC_HSI)))
 8009db6:	685b      	ldr	r3, [r3, #4]
 8009db8:	025e      	lsls	r6, r3, #9
 8009dba:	d40e      	bmi.n	8009dda <HAL_RCC_OscConfig+0x106>
      if((__HAL_RCC_GET_FLAG(RCC_FLAG_HSIRDY) != RESET) && (RCC_OscInitStruct->HSIState != RCC_HSI_ON))
 8009dbc:	4b7a      	ldr	r3, [pc, #488]	; (8009fa8 <HAL_RCC_OscConfig+0x2d4>)
 8009dbe:	681a      	ldr	r2, [r3, #0]
 8009dc0:	0795      	lsls	r5, r2, #30
 8009dc2:	d502      	bpl.n	8009dca <HAL_RCC_OscConfig+0xf6>
 8009dc4:	68e2      	ldr	r2, [r4, #12]
 8009dc6:	2a01      	cmp	r2, #1
 8009dc8:	d188      	bne.n	8009cdc <HAL_RCC_OscConfig+0x8>
        __HAL_RCC_HSI_CALIBRATIONVALUE_ADJUST(RCC_OscInitStruct->HSICalibrationValue);
 8009dca:	681a      	ldr	r2, [r3, #0]
 8009dcc:	6921      	ldr	r1, [r4, #16]
 8009dce:	f022 02f8 	bic.w	r2, r2, #248	; 0xf8
 8009dd2:	ea42 02c1 	orr.w	r2, r2, r1, lsl #3
 8009dd6:	601a      	str	r2, [r3, #0]
      if((__HAL_RCC_GET_FLAG(RCC_FLAG_HSIRDY) != RESET) && (RCC_OscInitStruct->HSIState != RCC_HSI_ON))
 8009dd8:	e78a      	b.n	8009cf0 <HAL_RCC_OscConfig+0x1c>
      if((RCC_OscInitStruct->HSIState)!= RCC_HSI_OFF)
 8009dda:	68e2      	ldr	r2, [r4, #12]
 8009ddc:	4b73      	ldr	r3, [pc, #460]	; (8009fac <HAL_RCC_OscConfig+0x2d8>)
 8009dde:	b1b2      	cbz	r2, 8009e0e <HAL_RCC_OscConfig+0x13a>
        __HAL_RCC_HSI_ENABLE();
 8009de0:	2201      	movs	r2, #1
 8009de2:	601a      	str	r2, [r3, #0]
        tickstart = HAL_GetTick();
 8009de4:	f7ff fa5e 	bl	80092a4 <HAL_GetTick>
        while(__HAL_RCC_GET_FLAG(RCC_FLAG_HSIRDY) == RESET)
 8009de8:	4d6f      	ldr	r5, [pc, #444]	; (8009fa8 <HAL_RCC_OscConfig+0x2d4>)
        tickstart = HAL_GetTick();
 8009dea:	4606      	mov	r6, r0
        while(__HAL_RCC_GET_FLAG(RCC_FLAG_HSIRDY) == RESET)
 8009dec:	682b      	ldr	r3, [r5, #0]
 8009dee:	0798      	lsls	r0, r3, #30
 8009df0:	d507      	bpl.n	8009e02 <HAL_RCC_OscConfig+0x12e>
        __HAL_RCC_HSI_CALIBRATIONVALUE_ADJUST(RCC_OscInitStruct->HSICalibrationValue);
 8009df2:	682b      	ldr	r3, [r5, #0]
 8009df4:	6922      	ldr	r2, [r4, #16]
 8009df6:	f023 03f8 	bic.w	r3, r3, #248	; 0xf8
 8009dfa:	ea43 03c2 	orr.w	r3, r3, r2, lsl #3
 8009dfe:	602b      	str	r3, [r5, #0]
 8009e00:	e776      	b.n	8009cf0 <HAL_RCC_OscConfig+0x1c>
          if((HAL_GetTick() - tickstart ) > HSI_TIMEOUT_VALUE)
 8009e02:	f7ff fa4f 	bl	80092a4 <HAL_GetTick>
 8009e06:	1b80      	subs	r0, r0, r6
 8009e08:	2802      	cmp	r0, #2
 8009e0a:	d9ef      	bls.n	8009dec <HAL_RCC_OscConfig+0x118>
 8009e0c:	e7a9      	b.n	8009d62 <HAL_RCC_OscConfig+0x8e>
        __HAL_RCC_HSI_DISABLE();
 8009e0e:	601a      	str	r2, [r3, #0]
        tickstart = HAL_GetTick();
 8009e10:	f7ff fa48 	bl	80092a4 <HAL_GetTick>
        while(__HAL_RCC_GET_FLAG(RCC_FLAG_HSIRDY) != RESET)
 8009e14:	4d64      	ldr	r5, [pc, #400]	; (8009fa8 <HAL_RCC_OscConfig+0x2d4>)
        tickstart = HAL_GetTick();
 8009e16:	4606      	mov	r6, r0
        while(__HAL_RCC_GET_FLAG(RCC_FLAG_HSIRDY) != RESET)
 8009e18:	682b      	ldr	r3, [r5, #0]
 8009e1a:	0799      	lsls	r1, r3, #30
 8009e1c:	f57f af68 	bpl.w	8009cf0 <HAL_RCC_OscConfig+0x1c>
          if((HAL_GetTick() - tickstart ) > HSI_TIMEOUT_VALUE)
 8009e20:	f7ff fa40 	bl	80092a4 <HAL_GetTick>
 8009e24:	1b80      	subs	r0, r0, r6
 8009e26:	2802      	cmp	r0, #2
 8009e28:	d9f6      	bls.n	8009e18 <HAL_RCC_OscConfig+0x144>
 8009e2a:	e79a      	b.n	8009d62 <HAL_RCC_OscConfig+0x8e>
    if((RCC_OscInitStruct->LSIState)!= RCC_LSI_OFF)
 8009e2c:	6962      	ldr	r2, [r4, #20]
 8009e2e:	4b60      	ldr	r3, [pc, #384]	; (8009fb0 <HAL_RCC_OscConfig+0x2dc>)
 8009e30:	b17a      	cbz	r2, 8009e52 <HAL_RCC_OscConfig+0x17e>
      __HAL_RCC_LSI_ENABLE();
 8009e32:	2201      	movs	r2, #1
 8009e34:	601a      	str	r2, [r3, #0]
      tickstart = HAL_GetTick();
 8009e36:	f7ff fa35 	bl	80092a4 <HAL_GetTick>
      while(__HAL_RCC_GET_FLAG(RCC_FLAG_LSIRDY) == RESET)
 8009e3a:	4d5b      	ldr	r5, [pc, #364]	; (8009fa8 <HAL_RCC_OscConfig+0x2d4>)
      tickstart = HAL_GetTick();
 8009e3c:	4606      	mov	r6, r0
      while(__HAL_RCC_GET_FLAG(RCC_FLAG_LSIRDY) == RESET)
 8009e3e:	6f6b      	ldr	r3, [r5, #116]	; 0x74
 8009e40:	079f      	lsls	r7, r3, #30
 8009e42:	f53f af59 	bmi.w	8009cf8 <HAL_RCC_OscConfig+0x24>
        if((HAL_GetTick() - tickstart ) > LSI_TIMEOUT_VALUE)
 8009e46:	f7ff fa2d 	bl	80092a4 <HAL_GetTick>
 8009e4a:	1b80      	subs	r0, r0, r6
 8009e4c:	2802      	cmp	r0, #2
 8009e4e:	d9f6      	bls.n	8009e3e <HAL_RCC_OscConfig+0x16a>
 8009e50:	e787      	b.n	8009d62 <HAL_RCC_OscConfig+0x8e>
      __HAL_RCC_LSI_DISABLE();
 8009e52:	601a      	str	r2, [r3, #0]
      tickstart = HAL_GetTick();
 8009e54:	f7ff fa26 	bl	80092a4 <HAL_GetTick>
      while(__HAL_RCC_GET_FLAG(RCC_FLAG_LSIRDY) != RESET)
 8009e58:	4d53      	ldr	r5, [pc, #332]	; (8009fa8 <HAL_RCC_OscConfig+0x2d4>)
      tickstart = HAL_GetTick();
 8009e5a:	4606      	mov	r6, r0
      while(__HAL_RCC_GET_FLAG(RCC_FLAG_LSIRDY) != RESET)
 8009e5c:	6f6b      	ldr	r3, [r5, #116]	; 0x74
 8009e5e:	0798      	lsls	r0, r3, #30
 8009e60:	f57f af4a 	bpl.w	8009cf8 <HAL_RCC_OscConfig+0x24>
        if((HAL_GetTick() - tickstart ) > LSI_TIMEOUT_VALUE)
 8009e64:	f7ff fa1e 	bl	80092a4 <HAL_GetTick>
 8009e68:	1b80      	subs	r0, r0, r6
 8009e6a:	2802      	cmp	r0, #2
 8009e6c:	d9f6      	bls.n	8009e5c <HAL_RCC_OscConfig+0x188>
 8009e6e:	e778      	b.n	8009d62 <HAL_RCC_OscConfig+0x8e>
    if(__HAL_RCC_PWR_IS_CLK_DISABLED())
 8009e70:	4b4d      	ldr	r3, [pc, #308]	; (8009fa8 <HAL_RCC_OscConfig+0x2d4>)
 8009e72:	6c1a      	ldr	r2, [r3, #64]	; 0x40
 8009e74:	f012 5280 	ands.w	r2, r2, #268435456	; 0x10000000
 8009e78:	d128      	bne.n	8009ecc <HAL_RCC_OscConfig+0x1f8>
      __HAL_RCC_PWR_CLK_ENABLE();
 8009e7a:	9201      	str	r2, [sp, #4]
 8009e7c:	6c1a      	ldr	r2, [r3, #64]	; 0x40
 8009e7e:	f042 5280 	orr.w	r2, r2, #268435456	; 0x10000000
 8009e82:	641a      	str	r2, [r3, #64]	; 0x40
 8009e84:	6c1b      	ldr	r3, [r3, #64]	; 0x40
 8009e86:	f003 5380 	and.w	r3, r3, #268435456	; 0x10000000
 8009e8a:	9301      	str	r3, [sp, #4]
 8009e8c:	9b01      	ldr	r3, [sp, #4]
      pwrclkchanged = SET;
 8009e8e:	2601      	movs	r6, #1
    if(HAL_IS_BIT_CLR(PWR->CR, PWR_CR_DBP))
 8009e90:	4d48      	ldr	r5, [pc, #288]	; (8009fb4 <HAL_RCC_OscConfig+0x2e0>)
 8009e92:	682b      	ldr	r3, [r5, #0]
 8009e94:	05d9      	lsls	r1, r3, #23
 8009e96:	d51b      	bpl.n	8009ed0 <HAL_RCC_OscConfig+0x1fc>
    __HAL_RCC_LSE_CONFIG(RCC_OscInitStruct->LSEState);
 8009e98:	68a3      	ldr	r3, [r4, #8]
 8009e9a:	4d43      	ldr	r5, [pc, #268]	; (8009fa8 <HAL_RCC_OscConfig+0x2d4>)
 8009e9c:	2b01      	cmp	r3, #1
 8009e9e:	d127      	bne.n	8009ef0 <HAL_RCC_OscConfig+0x21c>
 8009ea0:	6f2b      	ldr	r3, [r5, #112]	; 0x70
 8009ea2:	f043 0301 	orr.w	r3, r3, #1
 8009ea6:	672b      	str	r3, [r5, #112]	; 0x70
      tickstart = HAL_GetTick();
 8009ea8:	f7ff f9fc 	bl	80092a4 <HAL_GetTick>
      while(__HAL_RCC_GET_FLAG(RCC_FLAG_LSERDY) == RESET)
 8009eac:	4d3e      	ldr	r5, [pc, #248]	; (8009fa8 <HAL_RCC_OscConfig+0x2d4>)
      tickstart = HAL_GetTick();
 8009eae:	4607      	mov	r7, r0
        if((HAL_GetTick() - tickstart ) > RCC_LSE_TIMEOUT_VALUE)
 8009eb0:	f241 3888 	movw	r8, #5000	; 0x1388
      while(__HAL_RCC_GET_FLAG(RCC_FLAG_LSERDY) == RESET)
 8009eb4:	6f2b      	ldr	r3, [r5, #112]	; 0x70
 8009eb6:	079b      	lsls	r3, r3, #30
 8009eb8:	d539      	bpl.n	8009f2e <HAL_RCC_OscConfig+0x25a>
    if(pwrclkchanged == SET)
 8009eba:	2e00      	cmp	r6, #0
 8009ebc:	f43f af20 	beq.w	8009d00 <HAL_RCC_OscConfig+0x2c>
      __HAL_RCC_PWR_CLK_DISABLE();
 8009ec0:	4a39      	ldr	r2, [pc, #228]	; (8009fa8 <HAL_RCC_OscConfig+0x2d4>)
 8009ec2:	6c13      	ldr	r3, [r2, #64]	; 0x40
 8009ec4:	f023 5380 	bic.w	r3, r3, #268435456	; 0x10000000
 8009ec8:	6413      	str	r3, [r2, #64]	; 0x40
 8009eca:	e719      	b.n	8009d00 <HAL_RCC_OscConfig+0x2c>
    FlagStatus       pwrclkchanged = RESET;
 8009ecc:	2600      	movs	r6, #0
 8009ece:	e7df      	b.n	8009e90 <HAL_RCC_OscConfig+0x1bc>
      SET_BIT(PWR->CR, PWR_CR_DBP);
 8009ed0:	682b      	ldr	r3, [r5, #0]
 8009ed2:	f443 7380 	orr.w	r3, r3, #256	; 0x100
 8009ed6:	602b      	str	r3, [r5, #0]
      tickstart = HAL_GetTick();
 8009ed8:	f7ff f9e4 	bl	80092a4 <HAL_GetTick>
 8009edc:	4607      	mov	r7, r0
      while(HAL_IS_BIT_CLR(PWR->CR, PWR_CR_DBP))
 8009ede:	682b      	ldr	r3, [r5, #0]
 8009ee0:	05da      	lsls	r2, r3, #23
 8009ee2:	d4d9      	bmi.n	8009e98 <HAL_RCC_OscConfig+0x1c4>
        if((HAL_GetTick() - tickstart) > RCC_DBP_TIMEOUT_VALUE)
 8009ee4:	f7ff f9de 	bl	80092a4 <HAL_GetTick>
 8009ee8:	1bc0      	subs	r0, r0, r7
 8009eea:	2802      	cmp	r0, #2
 8009eec:	d9f7      	bls.n	8009ede <HAL_RCC_OscConfig+0x20a>
 8009eee:	e738      	b.n	8009d62 <HAL_RCC_OscConfig+0x8e>
    __HAL_RCC_LSE_CONFIG(RCC_OscInitStruct->LSEState);
 8009ef0:	2b05      	cmp	r3, #5
 8009ef2:	d104      	bne.n	8009efe <HAL_RCC_OscConfig+0x22a>
 8009ef4:	6f2b      	ldr	r3, [r5, #112]	; 0x70
 8009ef6:	f043 0304 	orr.w	r3, r3, #4
 8009efa:	672b      	str	r3, [r5, #112]	; 0x70
 8009efc:	e7d0      	b.n	8009ea0 <HAL_RCC_OscConfig+0x1cc>
 8009efe:	6f2a      	ldr	r2, [r5, #112]	; 0x70
 8009f00:	f022 0201 	bic.w	r2, r2, #1
 8009f04:	672a      	str	r2, [r5, #112]	; 0x70
 8009f06:	6f2a      	ldr	r2, [r5, #112]	; 0x70
 8009f08:	f022 0204 	bic.w	r2, r2, #4
 8009f0c:	672a      	str	r2, [r5, #112]	; 0x70
    if((RCC_OscInitStruct->LSEState) != RCC_LSE_OFF)
 8009f0e:	2b00      	cmp	r3, #0
 8009f10:	d1ca      	bne.n	8009ea8 <HAL_RCC_OscConfig+0x1d4>
      tickstart = HAL_GetTick();
 8009f12:	f7ff f9c7 	bl	80092a4 <HAL_GetTick>
        if((HAL_GetTick() - tickstart ) > RCC_LSE_TIMEOUT_VALUE)
 8009f16:	f241 3888 	movw	r8, #5000	; 0x1388
      tickstart = HAL_GetTick();
 8009f1a:	4607      	mov	r7, r0
      while(__HAL_RCC_GET_FLAG(RCC_FLAG_LSERDY) != RESET)
 8009f1c:	6f2b      	ldr	r3, [r5, #112]	; 0x70
 8009f1e:	0798      	lsls	r0, r3, #30
 8009f20:	d5cb      	bpl.n	8009eba <HAL_RCC_OscConfig+0x1e6>
        if((HAL_GetTick() - tickstart ) > RCC_LSE_TIMEOUT_VALUE)
 8009f22:	f7ff f9bf 	bl	80092a4 <HAL_GetTick>
 8009f26:	1bc0      	subs	r0, r0, r7
 8009f28:	4540      	cmp	r0, r8
 8009f2a:	d9f7      	bls.n	8009f1c <HAL_RCC_OscConfig+0x248>
 8009f2c:	e719      	b.n	8009d62 <HAL_RCC_OscConfig+0x8e>
        if((HAL_GetTick() - tickstart ) > RCC_LSE_TIMEOUT_VALUE)
 8009f2e:	f7ff f9b9 	bl	80092a4 <HAL_GetTick>
 8009f32:	1bc0      	subs	r0, r0, r7
 8009f34:	4540      	cmp	r0, r8
 8009f36:	d9bd      	bls.n	8009eb4 <HAL_RCC_OscConfig+0x1e0>
 8009f38:	e713      	b.n	8009d62 <HAL_RCC_OscConfig+0x8e>
    if(__HAL_RCC_GET_SYSCLK_SOURCE() != RCC_CFGR_SWS_PLL)
 8009f3a:	4d1b      	ldr	r5, [pc, #108]	; (8009fa8 <HAL_RCC_OscConfig+0x2d4>)
 8009f3c:	68ab      	ldr	r3, [r5, #8]
 8009f3e:	f003 030c 	and.w	r3, r3, #12
 8009f42:	2b08      	cmp	r3, #8
 8009f44:	f43f aeca 	beq.w	8009cdc <HAL_RCC_OscConfig+0x8>
 8009f48:	4e1b      	ldr	r6, [pc, #108]	; (8009fb8 <HAL_RCC_OscConfig+0x2e4>)
 8009f4a:	2300      	movs	r3, #0
      if((RCC_OscInitStruct->PLL.PLLState) == RCC_PLL_ON)
 8009f4c:	2a02      	cmp	r2, #2
        __HAL_RCC_PLL_DISABLE();
 8009f4e:	6033      	str	r3, [r6, #0]
      if((RCC_OscInitStruct->PLL.PLLState) == RCC_PLL_ON)
 8009f50:	d134      	bne.n	8009fbc <HAL_RCC_OscConfig+0x2e8>
        tickstart = HAL_GetTick();
 8009f52:	f7ff f9a7 	bl	80092a4 <HAL_GetTick>
 8009f56:	4607      	mov	r7, r0
        while(__HAL_RCC_GET_FLAG(RCC_FLAG_PLLRDY) != RESET)
 8009f58:	682b      	ldr	r3, [r5, #0]
 8009f5a:	0199      	lsls	r1, r3, #6
 8009f5c:	d41e      	bmi.n	8009f9c <HAL_RCC_OscConfig+0x2c8>
        WRITE_REG(RCC->PLLCFGR, (RCC_OscInitStruct->PLL.PLLSource                                            | \
 8009f5e:	6a22      	ldr	r2, [r4, #32]
 8009f60:	69e3      	ldr	r3, [r4, #28]
 8009f62:	4313      	orrs	r3, r2
 8009f64:	6a62      	ldr	r2, [r4, #36]	; 0x24
 8009f66:	ea43 1382 	orr.w	r3, r3, r2, lsl #6
 8009f6a:	6ae2      	ldr	r2, [r4, #44]	; 0x2c
 8009f6c:	ea43 6302 	orr.w	r3, r3, r2, lsl #24
 8009f70:	6aa2      	ldr	r2, [r4, #40]	; 0x28
        while(__HAL_RCC_GET_FLAG(RCC_FLAG_PLLRDY) == RESET)
 8009f72:	4c0d      	ldr	r4, [pc, #52]	; (8009fa8 <HAL_RCC_OscConfig+0x2d4>)
        WRITE_REG(RCC->PLLCFGR, (RCC_OscInitStruct->PLL.PLLSource                                            | \
 8009f74:	0852      	lsrs	r2, r2, #1
 8009f76:	3a01      	subs	r2, #1
 8009f78:	ea43 4302 	orr.w	r3, r3, r2, lsl #16
 8009f7c:	606b      	str	r3, [r5, #4]
        __HAL_RCC_PLL_ENABLE();
 8009f7e:	2301      	movs	r3, #1
 8009f80:	6033      	str	r3, [r6, #0]
        tickstart = HAL_GetTick();
 8009f82:	f7ff f98f 	bl	80092a4 <HAL_GetTick>
 8009f86:	4605      	mov	r5, r0
        while(__HAL_RCC_GET_FLAG(RCC_FLAG_PLLRDY) == RESET)
 8009f88:	6823      	ldr	r3, [r4, #0]
 8009f8a:	019a      	lsls	r2, r3, #6
 8009f8c:	f53f aebc 	bmi.w	8009d08 <HAL_RCC_OscConfig+0x34>
          if((HAL_GetTick() - tickstart ) > PLL_TIMEOUT_VALUE)
 8009f90:	f7ff f988 	bl	80092a4 <HAL_GetTick>
 8009f94:	1b40      	subs	r0, r0, r5
 8009f96:	2802      	cmp	r0, #2
 8009f98:	d9f6      	bls.n	8009f88 <HAL_RCC_OscConfig+0x2b4>
 8009f9a:	e6e2      	b.n	8009d62 <HAL_RCC_OscConfig+0x8e>
          if((HAL_GetTick() - tickstart ) > PLL_TIMEOUT_VALUE)
 8009f9c:	f7ff f982 	bl	80092a4 <HAL_GetTick>
 8009fa0:	1bc0      	subs	r0, r0, r7
 8009fa2:	2802      	cmp	r0, #2
 8009fa4:	d9d8      	bls.n	8009f58 <HAL_RCC_OscConfig+0x284>
 8009fa6:	e6dc      	b.n	8009d62 <HAL_RCC_OscConfig+0x8e>
 8009fa8:	40023800 	.word	0x40023800
 8009fac:	42470000 	.word	0x42470000
 8009fb0:	42470e80 	.word	0x42470e80
 8009fb4:	40007000 	.word	0x40007000
 8009fb8:	42470060 	.word	0x42470060
        tickstart = HAL_GetTick();
 8009fbc:	f7ff f972 	bl	80092a4 <HAL_GetTick>
 8009fc0:	4604      	mov	r4, r0
        while(__HAL_RCC_GET_FLAG(RCC_FLAG_PLLRDY) != RESET)
 8009fc2:	682b      	ldr	r3, [r5, #0]
 8009fc4:	019b      	lsls	r3, r3, #6
 8009fc6:	f57f ae9f 	bpl.w	8009d08 <HAL_RCC_OscConfig+0x34>
          if((HAL_GetTick() - tickstart ) > PLL_TIMEOUT_VALUE)
 8009fca:	f7ff f96b 	bl	80092a4 <HAL_GetTick>
 8009fce:	1b00      	subs	r0, r0, r4
 8009fd0:	2802      	cmp	r0, #2
 8009fd2:	d9f6      	bls.n	8009fc2 <HAL_RCC_OscConfig+0x2ee>
 8009fd4:	e6c5      	b.n	8009d62 <HAL_RCC_OscConfig+0x8e>
 8009fd6:	bf00      	nop

08009fd8 <HAL_RCC_GetSysClockFreq>:
{
  uint32_t pllm = 0U, pllvco = 0U, pllp = 0U;
  uint32_t sysclockfreq = 0U;

  /* Get SYSCLK source -------------------------------------------------------*/
  switch (RCC->CFGR & RCC_CFGR_SWS)
 8009fd8:	4913      	ldr	r1, [pc, #76]	; (800a028 <HAL_RCC_GetSysClockFreq+0x50>)
{
 8009fda:	b508      	push	{r3, lr}
  switch (RCC->CFGR & RCC_CFGR_SWS)
 8009fdc:	688b      	ldr	r3, [r1, #8]
 8009fde:	f003 030c 	and.w	r3, r3, #12
 8009fe2:	2b04      	cmp	r3, #4
 8009fe4:	d003      	beq.n	8009fee <HAL_RCC_GetSysClockFreq+0x16>
 8009fe6:	2b08      	cmp	r3, #8
 8009fe8:	d003      	beq.n	8009ff2 <HAL_RCC_GetSysClockFreq+0x1a>
  {
    case RCC_CFGR_SWS_HSI:  /* HSI used as system clock source */
    {
      sysclockfreq = HSI_VALUE;
 8009fea:	4810      	ldr	r0, [pc, #64]	; (800a02c <HAL_RCC_GetSysClockFreq+0x54>)
      sysclockfreq = HSI_VALUE;
      break;
    }
  }
  return sysclockfreq;
}
 8009fec:	bd08      	pop	{r3, pc}
      sysclockfreq = HSE_VALUE;
 8009fee:	4810      	ldr	r0, [pc, #64]	; (800a030 <HAL_RCC_GetSysClockFreq+0x58>)
 8009ff0:	bd08      	pop	{r3, pc}
      pllm = RCC->PLLCFGR & RCC_PLLCFGR_PLLM;
 8009ff2:	684a      	ldr	r2, [r1, #4]
      if(__HAL_RCC_GET_PLL_OSCSOURCE() != RCC_PLLSOURCE_HSI)
 8009ff4:	684b      	ldr	r3, [r1, #4]
        pllvco = (uint32_t) ((((uint64_t) HSE_VALUE * ((uint64_t) ((RCC->PLLCFGR & RCC_PLLCFGR_PLLN) >> RCC_PLLCFGR_PLLN_Pos)))) / (uint64_t)pllm);
 8009ff6:	6849      	ldr	r1, [r1, #4]
      if(__HAL_RCC_GET_PLL_OSCSOURCE() != RCC_PLLSOURCE_HSI)
 8009ff8:	f413 0380 	ands.w	r3, r3, #4194304	; 0x400000
        pllvco = (uint32_t) ((((uint64_t) HSE_VALUE * ((uint64_t) ((RCC->PLLCFGR & RCC_PLLCFGR_PLLN) >> RCC_PLLCFGR_PLLN_Pos)))) / (uint64_t)pllm);
 8009ffc:	bf14      	ite	ne
 8009ffe:	480c      	ldrne	r0, [pc, #48]	; (800a030 <HAL_RCC_GetSysClockFreq+0x58>)
        pllvco = (uint32_t) ((((uint64_t) HSI_VALUE * ((uint64_t) ((RCC->PLLCFGR & RCC_PLLCFGR_PLLN) >> RCC_PLLCFGR_PLLN_Pos)))) / (uint64_t)pllm);
 800a000:	480a      	ldreq	r0, [pc, #40]	; (800a02c <HAL_RCC_GetSysClockFreq+0x54>)
        pllvco = (uint32_t) ((((uint64_t) HSE_VALUE * ((uint64_t) ((RCC->PLLCFGR & RCC_PLLCFGR_PLLN) >> RCC_PLLCFGR_PLLN_Pos)))) / (uint64_t)pllm);
 800a002:	f3c1 1188 	ubfx	r1, r1, #6, #9
 800a006:	bf18      	it	ne
 800a008:	2300      	movne	r3, #0
      pllm = RCC->PLLCFGR & RCC_PLLCFGR_PLLM;
 800a00a:	f002 023f 	and.w	r2, r2, #63	; 0x3f
        pllvco = (uint32_t) ((((uint64_t) HSI_VALUE * ((uint64_t) ((RCC->PLLCFGR & RCC_PLLCFGR_PLLN) >> RCC_PLLCFGR_PLLN_Pos)))) / (uint64_t)pllm);
 800a00e:	fba1 0100 	umull	r0, r1, r1, r0
 800a012:	f7fe fe1d 	bl	8008c50 <__aeabi_uldivmod>
      pllp = ((((RCC->PLLCFGR & RCC_PLLCFGR_PLLP) >> RCC_PLLCFGR_PLLP_Pos) + 1U) *2U);
 800a016:	4b04      	ldr	r3, [pc, #16]	; (800a028 <HAL_RCC_GetSysClockFreq+0x50>)
 800a018:	685b      	ldr	r3, [r3, #4]
 800a01a:	f3c3 4301 	ubfx	r3, r3, #16, #2
 800a01e:	3301      	adds	r3, #1
 800a020:	005b      	lsls	r3, r3, #1
      sysclockfreq = pllvco/pllp;
 800a022:	fbb0 f0f3 	udiv	r0, r0, r3
 800a026:	bd08      	pop	{r3, pc}
 800a028:	40023800 	.word	0x40023800
 800a02c:	00f42400 	.word	0x00f42400
 800a030:	007a1200 	.word	0x007a1200

0800a034 <HAL_RCC_ClockConfig>:
{
 800a034:	e92d 41f0 	stmdb	sp!, {r4, r5, r6, r7, r8, lr}
 800a038:	460d      	mov	r5, r1
  if(RCC_ClkInitStruct == NULL)
 800a03a:	4604      	mov	r4, r0
 800a03c:	b910      	cbnz	r0, 800a044 <HAL_RCC_ClockConfig+0x10>
    return HAL_ERROR;
 800a03e:	2001      	movs	r0, #1
 800a040:	e8bd 81f0 	ldmia.w	sp!, {r4, r5, r6, r7, r8, pc}
  if(FLatency > __HAL_FLASH_GET_LATENCY())
 800a044:	4b44      	ldr	r3, [pc, #272]	; (800a158 <HAL_RCC_ClockConfig+0x124>)
 800a046:	681a      	ldr	r2, [r3, #0]
 800a048:	f002 020f 	and.w	r2, r2, #15
 800a04c:	428a      	cmp	r2, r1
 800a04e:	d328      	bcc.n	800a0a2 <HAL_RCC_ClockConfig+0x6e>
  if(((RCC_ClkInitStruct->ClockType) & RCC_CLOCKTYPE_HCLK) == RCC_CLOCKTYPE_HCLK)
 800a050:	6821      	ldr	r1, [r4, #0]
 800a052:	078f      	lsls	r7, r1, #30
 800a054:	d42d      	bmi.n	800a0b2 <HAL_RCC_ClockConfig+0x7e>
  if(((RCC_ClkInitStruct->ClockType) & RCC_CLOCKTYPE_SYSCLK) == RCC_CLOCKTYPE_SYSCLK)
 800a056:	07c8      	lsls	r0, r1, #31
 800a058:	d440      	bmi.n	800a0dc <HAL_RCC_ClockConfig+0xa8>
  if(FLatency < __HAL_FLASH_GET_LATENCY())
 800a05a:	4b3f      	ldr	r3, [pc, #252]	; (800a158 <HAL_RCC_ClockConfig+0x124>)
 800a05c:	681a      	ldr	r2, [r3, #0]
 800a05e:	f002 020f 	and.w	r2, r2, #15
 800a062:	4295      	cmp	r5, r2
 800a064:	d366      	bcc.n	800a134 <HAL_RCC_ClockConfig+0x100>
  if(((RCC_ClkInitStruct->ClockType) & RCC_CLOCKTYPE_PCLK1) == RCC_CLOCKTYPE_PCLK1)
 800a066:	6822      	ldr	r2, [r4, #0]
 800a068:	0751      	lsls	r1, r2, #29
 800a06a:	d46c      	bmi.n	800a146 <HAL_RCC_ClockConfig+0x112>
  if(((RCC_ClkInitStruct->ClockType) & RCC_CLOCKTYPE_PCLK2) == RCC_CLOCKTYPE_PCLK2)
 800a06c:	0713      	lsls	r3, r2, #28
 800a06e:	d507      	bpl.n	800a080 <HAL_RCC_ClockConfig+0x4c>
    MODIFY_REG(RCC->CFGR, RCC_CFGR_PPRE2, ((RCC_ClkInitStruct->APB2CLKDivider) << 3U));
 800a070:	4a3a      	ldr	r2, [pc, #232]	; (800a15c <HAL_RCC_ClockConfig+0x128>)
 800a072:	6921      	ldr	r1, [r4, #16]
 800a074:	6893      	ldr	r3, [r2, #8]
 800a076:	f423 4360 	bic.w	r3, r3, #57344	; 0xe000
 800a07a:	ea43 03c1 	orr.w	r3, r3, r1, lsl #3
 800a07e:	6093      	str	r3, [r2, #8]
  SystemCoreClock = HAL_RCC_GetSysClockFreq() >> AHBPrescTable[(RCC->CFGR & RCC_CFGR_HPRE)>> RCC_CFGR_HPRE_Pos];
 800a080:	f7ff ffaa 	bl	8009fd8 <HAL_RCC_GetSysClockFreq>
 800a084:	4b35      	ldr	r3, [pc, #212]	; (800a15c <HAL_RCC_ClockConfig+0x128>)
 800a086:	4a36      	ldr	r2, [pc, #216]	; (800a160 <HAL_RCC_ClockConfig+0x12c>)
 800a088:	689b      	ldr	r3, [r3, #8]
 800a08a:	f3c3 1303 	ubfx	r3, r3, #4, #4
 800a08e:	5cd3      	ldrb	r3, [r2, r3]
 800a090:	40d8      	lsrs	r0, r3
 800a092:	4b34      	ldr	r3, [pc, #208]	; (800a164 <HAL_RCC_ClockConfig+0x130>)
 800a094:	6018      	str	r0, [r3, #0]
  HAL_InitTick (TICK_INT_PRIORITY);
 800a096:	2000      	movs	r0, #0
 800a098:	f7ff f8ba 	bl	8009210 <HAL_InitTick>
  return HAL_OK;
 800a09c:	2000      	movs	r0, #0
 800a09e:	e8bd 81f0 	ldmia.w	sp!, {r4, r5, r6, r7, r8, pc}
    __HAL_FLASH_SET_LATENCY(FLatency);
 800a0a2:	b2ca      	uxtb	r2, r1
 800a0a4:	701a      	strb	r2, [r3, #0]
    if(__HAL_FLASH_GET_LATENCY() != FLatency)
 800a0a6:	681b      	ldr	r3, [r3, #0]
 800a0a8:	f003 030f 	and.w	r3, r3, #15
 800a0ac:	4299      	cmp	r1, r3
 800a0ae:	d1c6      	bne.n	800a03e <HAL_RCC_ClockConfig+0xa>
 800a0b0:	e7ce      	b.n	800a050 <HAL_RCC_ClockConfig+0x1c>
 800a0b2:	4b2a      	ldr	r3, [pc, #168]	; (800a15c <HAL_RCC_ClockConfig+0x128>)
    if(((RCC_ClkInitStruct->ClockType) & RCC_CLOCKTYPE_PCLK1) == RCC_CLOCKTYPE_PCLK1)
 800a0b4:	f011 0f04 	tst.w	r1, #4
      MODIFY_REG(RCC->CFGR, RCC_CFGR_PPRE1, RCC_HCLK_DIV16);
 800a0b8:	bf1e      	ittt	ne
 800a0ba:	689a      	ldrne	r2, [r3, #8]
 800a0bc:	f442 52e0 	orrne.w	r2, r2, #7168	; 0x1c00
 800a0c0:	609a      	strne	r2, [r3, #8]
    if(((RCC_ClkInitStruct->ClockType) & RCC_CLOCKTYPE_PCLK2) == RCC_CLOCKTYPE_PCLK2)
 800a0c2:	070e      	lsls	r6, r1, #28
      MODIFY_REG(RCC->CFGR, RCC_CFGR_PPRE2, (RCC_HCLK_DIV16 << 3));
 800a0c4:	bf42      	ittt	mi
 800a0c6:	689a      	ldrmi	r2, [r3, #8]
 800a0c8:	f442 4260 	orrmi.w	r2, r2, #57344	; 0xe000
 800a0cc:	609a      	strmi	r2, [r3, #8]
    MODIFY_REG(RCC->CFGR, RCC_CFGR_HPRE, RCC_ClkInitStruct->AHBCLKDivider);
 800a0ce:	689a      	ldr	r2, [r3, #8]
 800a0d0:	68a0      	ldr	r0, [r4, #8]
 800a0d2:	f022 02f0 	bic.w	r2, r2, #240	; 0xf0
 800a0d6:	4302      	orrs	r2, r0
 800a0d8:	609a      	str	r2, [r3, #8]
 800a0da:	e7bc      	b.n	800a056 <HAL_RCC_ClockConfig+0x22>
    if(RCC_ClkInitStruct->SYSCLKSource == RCC_SYSCLKSOURCE_HSE)
 800a0dc:	6862      	ldr	r2, [r4, #4]
 800a0de:	4b1f      	ldr	r3, [pc, #124]	; (800a15c <HAL_RCC_ClockConfig+0x128>)
 800a0e0:	2a01      	cmp	r2, #1
 800a0e2:	d11d      	bne.n	800a120 <HAL_RCC_ClockConfig+0xec>
      if(__HAL_RCC_GET_FLAG(RCC_FLAG_HSERDY) == RESET)
 800a0e4:	681b      	ldr	r3, [r3, #0]
 800a0e6:	f413 3f00 	tst.w	r3, #131072	; 0x20000
      if(__HAL_RCC_GET_FLAG(RCC_FLAG_HSIRDY) == RESET)
 800a0ea:	d0a8      	beq.n	800a03e <HAL_RCC_ClockConfig+0xa>
    __HAL_RCC_SYSCLK_CONFIG(RCC_ClkInitStruct->SYSCLKSource);
 800a0ec:	4e1b      	ldr	r6, [pc, #108]	; (800a15c <HAL_RCC_ClockConfig+0x128>)
 800a0ee:	68b3      	ldr	r3, [r6, #8]
 800a0f0:	f023 0303 	bic.w	r3, r3, #3
 800a0f4:	4313      	orrs	r3, r2
 800a0f6:	60b3      	str	r3, [r6, #8]
    tickstart = HAL_GetTick();
 800a0f8:	f7ff f8d4 	bl	80092a4 <HAL_GetTick>
      if ((HAL_GetTick() - tickstart) > CLOCKSWITCH_TIMEOUT_VALUE)
 800a0fc:	f241 3888 	movw	r8, #5000	; 0x1388
    tickstart = HAL_GetTick();
 800a100:	4607      	mov	r7, r0
    while (__HAL_RCC_GET_SYSCLK_SOURCE() != (RCC_ClkInitStruct->SYSCLKSource << RCC_CFGR_SWS_Pos))
 800a102:	68b3      	ldr	r3, [r6, #8]
 800a104:	6862      	ldr	r2, [r4, #4]
 800a106:	f003 030c 	and.w	r3, r3, #12
 800a10a:	ebb3 0f82 	cmp.w	r3, r2, lsl #2
 800a10e:	d0a4      	beq.n	800a05a <HAL_RCC_ClockConfig+0x26>
      if ((HAL_GetTick() - tickstart) > CLOCKSWITCH_TIMEOUT_VALUE)
 800a110:	f7ff f8c8 	bl	80092a4 <HAL_GetTick>
 800a114:	1bc0      	subs	r0, r0, r7
 800a116:	4540      	cmp	r0, r8
 800a118:	d9f3      	bls.n	800a102 <HAL_RCC_ClockConfig+0xce>
        return HAL_TIMEOUT;
 800a11a:	2003      	movs	r0, #3
}
 800a11c:	e8bd 81f0 	ldmia.w	sp!, {r4, r5, r6, r7, r8, pc}
    else if((RCC_ClkInitStruct->SYSCLKSource == RCC_SYSCLKSOURCE_PLLCLK)   ||
 800a120:	1e91      	subs	r1, r2, #2
 800a122:	2901      	cmp	r1, #1
      if(__HAL_RCC_GET_FLAG(RCC_FLAG_PLLRDY) == RESET)
 800a124:	681b      	ldr	r3, [r3, #0]
    else if((RCC_ClkInitStruct->SYSCLKSource == RCC_SYSCLKSOURCE_PLLCLK)   ||
 800a126:	d802      	bhi.n	800a12e <HAL_RCC_ClockConfig+0xfa>
      if(__HAL_RCC_GET_FLAG(RCC_FLAG_PLLRDY) == RESET)
 800a128:	f013 7f00 	tst.w	r3, #33554432	; 0x2000000
 800a12c:	e7dd      	b.n	800a0ea <HAL_RCC_ClockConfig+0xb6>
      if(__HAL_RCC_GET_FLAG(RCC_FLAG_HSIRDY) == RESET)
 800a12e:	f013 0f02 	tst.w	r3, #2
 800a132:	e7da      	b.n	800a0ea <HAL_RCC_ClockConfig+0xb6>
    __HAL_FLASH_SET_LATENCY(FLatency);
 800a134:	b2ea      	uxtb	r2, r5
 800a136:	701a      	strb	r2, [r3, #0]
    if(__HAL_FLASH_GET_LATENCY() != FLatency)
 800a138:	681b      	ldr	r3, [r3, #0]
 800a13a:	f003 030f 	and.w	r3, r3, #15
 800a13e:	429d      	cmp	r5, r3
 800a140:	f47f af7d 	bne.w	800a03e <HAL_RCC_ClockConfig+0xa>
 800a144:	e78f      	b.n	800a066 <HAL_RCC_ClockConfig+0x32>
    MODIFY_REG(RCC->CFGR, RCC_CFGR_PPRE1, RCC_ClkInitStruct->APB1CLKDivider);
 800a146:	4905      	ldr	r1, [pc, #20]	; (800a15c <HAL_RCC_ClockConfig+0x128>)
 800a148:	68e0      	ldr	r0, [r4, #12]
 800a14a:	688b      	ldr	r3, [r1, #8]
 800a14c:	f423 53e0 	bic.w	r3, r3, #7168	; 0x1c00
 800a150:	4303      	orrs	r3, r0
 800a152:	608b      	str	r3, [r1, #8]
 800a154:	e78a      	b.n	800a06c <HAL_RCC_ClockConfig+0x38>
 800a156:	bf00      	nop
 800a158:	40023c00 	.word	0x40023c00
 800a15c:	40023800 	.word	0x40023800
 800a160:	08012688 	.word	0x08012688
 800a164:	200015ac 	.word	0x200015ac

0800a168 <HAL_RCC_GetPCLK1Freq>:
  * @retval PCLK1 frequency
  */
uint32_t HAL_RCC_GetPCLK1Freq(void)
{
  /* Get HCLK source and Compute PCLK1 frequency ---------------------------*/
  return (HAL_RCC_GetHCLKFreq() >> APBPrescTable[(RCC->CFGR & RCC_CFGR_PPRE1)>> RCC_CFGR_PPRE1_Pos]);
 800a168:	4b04      	ldr	r3, [pc, #16]	; (800a17c <HAL_RCC_GetPCLK1Freq+0x14>)
 800a16a:	4a05      	ldr	r2, [pc, #20]	; (800a180 <HAL_RCC_GetPCLK1Freq+0x18>)
 800a16c:	689b      	ldr	r3, [r3, #8]
 800a16e:	f3c3 2382 	ubfx	r3, r3, #10, #3
 800a172:	5cd3      	ldrb	r3, [r2, r3]
 800a174:	4a03      	ldr	r2, [pc, #12]	; (800a184 <HAL_RCC_GetPCLK1Freq+0x1c>)
 800a176:	6810      	ldr	r0, [r2, #0]
}
 800a178:	40d8      	lsrs	r0, r3
 800a17a:	4770      	bx	lr
 800a17c:	40023800 	.word	0x40023800
 800a180:	08012698 	.word	0x08012698
 800a184:	200015ac 	.word	0x200015ac

0800a188 <HAL_RCC_GetPCLK2Freq>:
  * @retval PCLK2 frequency
  */
uint32_t HAL_RCC_GetPCLK2Freq(void)
{
  /* Get HCLK source and Compute PCLK2 frequency ---------------------------*/
  return (HAL_RCC_GetHCLKFreq()>> APBPrescTable[(RCC->CFGR & RCC_CFGR_PPRE2)>> RCC_CFGR_PPRE2_Pos]);
 800a188:	4b04      	ldr	r3, [pc, #16]	; (800a19c <HAL_RCC_GetPCLK2Freq+0x14>)
 800a18a:	4a05      	ldr	r2, [pc, #20]	; (800a1a0 <HAL_RCC_GetPCLK2Freq+0x18>)
 800a18c:	689b      	ldr	r3, [r3, #8]
 800a18e:	f3c3 3342 	ubfx	r3, r3, #13, #3
 800a192:	5cd3      	ldrb	r3, [r2, r3]
 800a194:	4a03      	ldr	r2, [pc, #12]	; (800a1a4 <HAL_RCC_GetPCLK2Freq+0x1c>)
 800a196:	6810      	ldr	r0, [r2, #0]
}
 800a198:	40d8      	lsrs	r0, r3
 800a19a:	4770      	bx	lr
 800a19c:	40023800 	.word	0x40023800
 800a1a0:	08012698 	.word	0x08012698
 800a1a4:	200015ac 	.word	0x200015ac

0800a1a8 <UART_EndRxTransfer>:
  * @retval None
  */
static void UART_EndRxTransfer(UART_HandleTypeDef *huart)
{
  /* Disable RXNE, PE and ERR (Frame error, noise error, overrun error) interrupts */
  CLEAR_BIT(huart->Instance->CR1, (USART_CR1_RXNEIE | USART_CR1_PEIE));
 800a1a8:	6803      	ldr	r3, [r0, #0]
 800a1aa:	68da      	ldr	r2, [r3, #12]
 800a1ac:	f422 7290 	bic.w	r2, r2, #288	; 0x120
 800a1b0:	60da      	str	r2, [r3, #12]
  CLEAR_BIT(huart->Instance->CR3, USART_CR3_EIE);
 800a1b2:	695a      	ldr	r2, [r3, #20]
 800a1b4:	f022 0201 	bic.w	r2, r2, #1
 800a1b8:	615a      	str	r2, [r3, #20]

  /* At end of Rx process, restore huart->RxState to Ready */
  huart->RxState = HAL_UART_STATE_READY;
 800a1ba:	2320      	movs	r3, #32
 800a1bc:	f880 303a 	strb.w	r3, [r0, #58]	; 0x3a
 800a1c0:	4770      	bx	lr
	...

0800a1c4 <UART_SetConfig>:
  * @param  huart  Pointer to a UART_HandleTypeDef structure that contains
  *                the configuration information for the specified UART module.
  * @retval None
  */
static void UART_SetConfig(UART_HandleTypeDef *huart)
{
 800a1c4:	e92d 47f0 	stmdb	sp!, {r4, r5, r6, r7, r8, r9, sl, lr}
  assert_param(IS_UART_MODE(huart->Init.Mode));

  /*-------------------------- USART CR2 Configuration -----------------------*/
  /* Configure the UART Stop Bits: Set STOP[13:12] bits
     according to huart->Init.StopBits value */
  MODIFY_REG(huart->Instance->CR2, USART_CR2_STOP, huart->Init.StopBits);
 800a1c8:	6806      	ldr	r6, [r0, #0]
 800a1ca:	68c2      	ldr	r2, [r0, #12]
 800a1cc:	6933      	ldr	r3, [r6, #16]
     Set the M bits according to huart->Init.WordLength value
     Set PCE and PS bits according to huart->Init.Parity value
     Set TE and RE bits according to huart->Init.Mode value
     Set OVER8 bit according to huart->Init.OverSampling value */

  tmpreg = (uint32_t)huart->Init.WordLength | huart->Init.Parity | huart->Init.Mode | huart->Init.OverSampling;
 800a1ce:	69c1      	ldr	r1, [r0, #28]
  MODIFY_REG(huart->Instance->CR2, USART_CR2_STOP, huart->Init.StopBits);
 800a1d0:	f423 5340 	bic.w	r3, r3, #12288	; 0x3000
 800a1d4:	4313      	orrs	r3, r2
 800a1d6:	6133      	str	r3, [r6, #16]
{
 800a1d8:	4604      	mov	r4, r0
  tmpreg = (uint32_t)huart->Init.WordLength | huart->Init.Parity | huart->Init.Mode | huart->Init.OverSampling;
 800a1da:	6883      	ldr	r3, [r0, #8]
 800a1dc:	6900      	ldr	r0, [r0, #16]
  MODIFY_REG(huart->Instance->CR1,
 800a1de:	68f2      	ldr	r2, [r6, #12]
  tmpreg = (uint32_t)huart->Init.WordLength | huart->Init.Parity | huart->Init.Mode | huart->Init.OverSampling;
 800a1e0:	4303      	orrs	r3, r0
 800a1e2:	6960      	ldr	r0, [r4, #20]
  MODIFY_REG(huart->Instance->CR1,
 800a1e4:	f422 4216 	bic.w	r2, r2, #38400	; 0x9600
  tmpreg = (uint32_t)huart->Init.WordLength | huart->Init.Parity | huart->Init.Mode | huart->Init.OverSampling;
 800a1e8:	4303      	orrs	r3, r0
  MODIFY_REG(huart->Instance->CR1,
 800a1ea:	f022 020c 	bic.w	r2, r2, #12
  tmpreg = (uint32_t)huart->Init.WordLength | huart->Init.Parity | huart->Init.Mode | huart->Init.OverSampling;
 800a1ee:	430b      	orrs	r3, r1
  MODIFY_REG(huart->Instance->CR1,
 800a1f0:	4313      	orrs	r3, r2
 800a1f2:	60f3      	str	r3, [r6, #12]
             (uint32_t)(USART_CR1_M | USART_CR1_PCE | USART_CR1_PS | USART_CR1_TE | USART_CR1_RE | USART_CR1_OVER8),
             tmpreg);

  /*-------------------------- USART CR3 Configuration -----------------------*/
  /* Configure the UART HFC: Set CTSE and RTSE bits according to huart->Init.HwFlowCtl value */
  MODIFY_REG(huart->Instance->CR3, (USART_CR3_RTSE | USART_CR3_CTSE), huart->Init.HwFlowCtl);
 800a1f4:	6973      	ldr	r3, [r6, #20]
 800a1f6:	69a2      	ldr	r2, [r4, #24]
 800a1f8:	f423 7340 	bic.w	r3, r3, #768	; 0x300
 800a1fc:	4313      	orrs	r3, r2

  /* Check the Over Sampling */
  if (huart->Init.OverSampling == UART_OVERSAMPLING_8)
 800a1fe:	f5b1 4f00 	cmp.w	r1, #32768	; 0x8000
  MODIFY_REG(huart->Instance->CR3, (USART_CR3_RTSE | USART_CR3_CTSE), huart->Init.HwFlowCtl);
 800a202:	6173      	str	r3, [r6, #20]
 800a204:	4b7a      	ldr	r3, [pc, #488]	; (800a3f0 <UART_SetConfig+0x22c>)
  if (huart->Init.OverSampling == UART_OVERSAMPLING_8)
 800a206:	d17c      	bne.n	800a302 <UART_SetConfig+0x13e>
  {
    /*-------------------------- USART BRR Configuration ---------------------*/
#if defined(USART6)
    if ((huart->Instance == USART1) || (huart->Instance == USART6))
 800a208:	429e      	cmp	r6, r3
 800a20a:	d003      	beq.n	800a214 <UART_SetConfig+0x50>
 800a20c:	f503 6380 	add.w	r3, r3, #1024	; 0x400
 800a210:	429e      	cmp	r6, r3
 800a212:	d144      	bne.n	800a29e <UART_SetConfig+0xda>
    {
      huart->Instance->BRR = UART_BRR_SAMPLING8(HAL_RCC_GetPCLK2Freq(), huart->Init.BaudRate);
 800a214:	f7ff ffb8 	bl	800a188 <HAL_RCC_GetPCLK2Freq>
 800a218:	2519      	movs	r5, #25
 800a21a:	fb05 f300 	mul.w	r3, r5, r0
 800a21e:	6860      	ldr	r0, [r4, #4]
 800a220:	f04f 0964 	mov.w	r9, #100	; 0x64
 800a224:	0040      	lsls	r0, r0, #1
 800a226:	fbb3 f3f0 	udiv	r3, r3, r0
 800a22a:	fbb3 f3f9 	udiv	r3, r3, r9
 800a22e:	ea4f 1803 	mov.w	r8, r3, lsl #4
 800a232:	f7ff ffa9 	bl	800a188 <HAL_RCC_GetPCLK2Freq>
 800a236:	6863      	ldr	r3, [r4, #4]
 800a238:	4368      	muls	r0, r5
 800a23a:	005b      	lsls	r3, r3, #1
 800a23c:	fbb0 f7f3 	udiv	r7, r0, r3
 800a240:	f7ff ffa2 	bl	800a188 <HAL_RCC_GetPCLK2Freq>
 800a244:	6863      	ldr	r3, [r4, #4]
 800a246:	4368      	muls	r0, r5
 800a248:	005b      	lsls	r3, r3, #1
 800a24a:	fbb0 f3f3 	udiv	r3, r0, r3
 800a24e:	fbb3 f3f9 	udiv	r3, r3, r9
 800a252:	fb09 7313 	mls	r3, r9, r3, r7
 800a256:	00db      	lsls	r3, r3, #3
 800a258:	3332      	adds	r3, #50	; 0x32
 800a25a:	fbb3 f3f9 	udiv	r3, r3, r9
 800a25e:	005b      	lsls	r3, r3, #1
 800a260:	f403 77f8 	and.w	r7, r3, #496	; 0x1f0
 800a264:	f7ff ff90 	bl	800a188 <HAL_RCC_GetPCLK2Freq>
 800a268:	6862      	ldr	r2, [r4, #4]
 800a26a:	4368      	muls	r0, r5
 800a26c:	0052      	lsls	r2, r2, #1
 800a26e:	fbb0 faf2 	udiv	sl, r0, r2
 800a272:	f7ff ff89 	bl	800a188 <HAL_RCC_GetPCLK2Freq>
      huart->Instance->BRR = UART_BRR_SAMPLING8(HAL_RCC_GetPCLK2Freq(), huart->Init.BaudRate);
    }
#endif /* USART6 */
    else
    {
      huart->Instance->BRR = UART_BRR_SAMPLING8(HAL_RCC_GetPCLK1Freq(), huart->Init.BaudRate);
 800a276:	6863      	ldr	r3, [r4, #4]
 800a278:	4368      	muls	r0, r5
 800a27a:	005b      	lsls	r3, r3, #1
 800a27c:	fbb0 f3f3 	udiv	r3, r0, r3
 800a280:	fbb3 f3f9 	udiv	r3, r3, r9
 800a284:	fb09 a313 	mls	r3, r9, r3, sl
 800a288:	00db      	lsls	r3, r3, #3
 800a28a:	3332      	adds	r3, #50	; 0x32
 800a28c:	fbb3 f3f9 	udiv	r3, r3, r9
 800a290:	f003 0307 	and.w	r3, r3, #7
 800a294:	4443      	add	r3, r8
      huart->Instance->BRR = UART_BRR_SAMPLING16(HAL_RCC_GetPCLK2Freq(), huart->Init.BaudRate);
    }
#endif /* USART6 */
    else
    {
      huart->Instance->BRR = UART_BRR_SAMPLING16(HAL_RCC_GetPCLK1Freq(), huart->Init.BaudRate);
 800a296:	443b      	add	r3, r7
 800a298:	60b3      	str	r3, [r6, #8]
 800a29a:	e8bd 87f0 	ldmia.w	sp!, {r4, r5, r6, r7, r8, r9, sl, pc}
      huart->Instance->BRR = UART_BRR_SAMPLING8(HAL_RCC_GetPCLK1Freq(), huart->Init.BaudRate);
 800a29e:	f7ff ff63 	bl	800a168 <HAL_RCC_GetPCLK1Freq>
 800a2a2:	2519      	movs	r5, #25
 800a2a4:	fb05 f300 	mul.w	r3, r5, r0
 800a2a8:	6860      	ldr	r0, [r4, #4]
 800a2aa:	f04f 0964 	mov.w	r9, #100	; 0x64
 800a2ae:	0040      	lsls	r0, r0, #1
 800a2b0:	fbb3 f3f0 	udiv	r3, r3, r0
 800a2b4:	fbb3 f3f9 	udiv	r3, r3, r9
 800a2b8:	ea4f 1803 	mov.w	r8, r3, lsl #4
 800a2bc:	f7ff ff54 	bl	800a168 <HAL_RCC_GetPCLK1Freq>
 800a2c0:	6863      	ldr	r3, [r4, #4]
 800a2c2:	4368      	muls	r0, r5
 800a2c4:	005b      	lsls	r3, r3, #1
 800a2c6:	fbb0 f7f3 	udiv	r7, r0, r3
 800a2ca:	f7ff ff4d 	bl	800a168 <HAL_RCC_GetPCLK1Freq>
 800a2ce:	6863      	ldr	r3, [r4, #4]
 800a2d0:	4368      	muls	r0, r5
 800a2d2:	005b      	lsls	r3, r3, #1
 800a2d4:	fbb0 f3f3 	udiv	r3, r0, r3
 800a2d8:	fbb3 f3f9 	udiv	r3, r3, r9
 800a2dc:	fb09 7313 	mls	r3, r9, r3, r7
 800a2e0:	00db      	lsls	r3, r3, #3
 800a2e2:	3332      	adds	r3, #50	; 0x32
 800a2e4:	fbb3 f3f9 	udiv	r3, r3, r9
 800a2e8:	005b      	lsls	r3, r3, #1
 800a2ea:	f403 77f8 	and.w	r7, r3, #496	; 0x1f0
 800a2ee:	f7ff ff3b 	bl	800a168 <HAL_RCC_GetPCLK1Freq>
 800a2f2:	6862      	ldr	r2, [r4, #4]
 800a2f4:	4368      	muls	r0, r5
 800a2f6:	0052      	lsls	r2, r2, #1
 800a2f8:	fbb0 faf2 	udiv	sl, r0, r2
 800a2fc:	f7ff ff34 	bl	800a168 <HAL_RCC_GetPCLK1Freq>
 800a300:	e7b9      	b.n	800a276 <UART_SetConfig+0xb2>
    if ((huart->Instance == USART1) || (huart->Instance == USART6))
 800a302:	429e      	cmp	r6, r3
 800a304:	d002      	beq.n	800a30c <UART_SetConfig+0x148>
 800a306:	4b3b      	ldr	r3, [pc, #236]	; (800a3f4 <UART_SetConfig+0x230>)
 800a308:	429e      	cmp	r6, r3
 800a30a:	d140      	bne.n	800a38e <UART_SetConfig+0x1ca>
      huart->Instance->BRR = UART_BRR_SAMPLING16(HAL_RCC_GetPCLK2Freq(), huart->Init.BaudRate);
 800a30c:	f7ff ff3c 	bl	800a188 <HAL_RCC_GetPCLK2Freq>
 800a310:	6867      	ldr	r7, [r4, #4]
 800a312:	2519      	movs	r5, #25
 800a314:	f04f 0964 	mov.w	r9, #100	; 0x64
 800a318:	fb05 f300 	mul.w	r3, r5, r0
 800a31c:	00bf      	lsls	r7, r7, #2
 800a31e:	fbb3 f3f7 	udiv	r3, r3, r7
 800a322:	fbb3 f3f9 	udiv	r3, r3, r9
 800a326:	011f      	lsls	r7, r3, #4
 800a328:	f7ff ff2e 	bl	800a188 <HAL_RCC_GetPCLK2Freq>
 800a32c:	6863      	ldr	r3, [r4, #4]
 800a32e:	4368      	muls	r0, r5
 800a330:	009b      	lsls	r3, r3, #2
 800a332:	fbb0 f8f3 	udiv	r8, r0, r3
 800a336:	f7ff ff27 	bl	800a188 <HAL_RCC_GetPCLK2Freq>
 800a33a:	6863      	ldr	r3, [r4, #4]
 800a33c:	4368      	muls	r0, r5
 800a33e:	009b      	lsls	r3, r3, #2
 800a340:	fbb0 f3f3 	udiv	r3, r0, r3
 800a344:	fbb3 f3f9 	udiv	r3, r3, r9
 800a348:	fb09 8313 	mls	r3, r9, r3, r8
 800a34c:	011b      	lsls	r3, r3, #4
 800a34e:	3332      	adds	r3, #50	; 0x32
 800a350:	fbb3 f3f9 	udiv	r3, r3, r9
 800a354:	f003 08f0 	and.w	r8, r3, #240	; 0xf0
 800a358:	f7ff ff16 	bl	800a188 <HAL_RCC_GetPCLK2Freq>
 800a35c:	6862      	ldr	r2, [r4, #4]
 800a35e:	4368      	muls	r0, r5
 800a360:	0092      	lsls	r2, r2, #2
 800a362:	fbb0 faf2 	udiv	sl, r0, r2
 800a366:	f7ff ff0f 	bl	800a188 <HAL_RCC_GetPCLK2Freq>
      huart->Instance->BRR = UART_BRR_SAMPLING16(HAL_RCC_GetPCLK1Freq(), huart->Init.BaudRate);
 800a36a:	6863      	ldr	r3, [r4, #4]
 800a36c:	4368      	muls	r0, r5
 800a36e:	009b      	lsls	r3, r3, #2
 800a370:	fbb0 f3f3 	udiv	r3, r0, r3
 800a374:	fbb3 f3f9 	udiv	r3, r3, r9
 800a378:	fb09 a313 	mls	r3, r9, r3, sl
 800a37c:	011b      	lsls	r3, r3, #4
 800a37e:	3332      	adds	r3, #50	; 0x32
 800a380:	fbb3 f3f9 	udiv	r3, r3, r9
 800a384:	f003 030f 	and.w	r3, r3, #15
 800a388:	ea43 0308 	orr.w	r3, r3, r8
 800a38c:	e783      	b.n	800a296 <UART_SetConfig+0xd2>
 800a38e:	f7ff feeb 	bl	800a168 <HAL_RCC_GetPCLK1Freq>
 800a392:	6867      	ldr	r7, [r4, #4]
 800a394:	2519      	movs	r5, #25
 800a396:	f04f 0964 	mov.w	r9, #100	; 0x64
 800a39a:	fb05 f300 	mul.w	r3, r5, r0
 800a39e:	00bf      	lsls	r7, r7, #2
 800a3a0:	fbb3 f3f7 	udiv	r3, r3, r7
 800a3a4:	fbb3 f3f9 	udiv	r3, r3, r9
 800a3a8:	011f      	lsls	r7, r3, #4
 800a3aa:	f7ff fedd 	bl	800a168 <HAL_RCC_GetPCLK1Freq>
 800a3ae:	6863      	ldr	r3, [r4, #4]
 800a3b0:	4368      	muls	r0, r5
 800a3b2:	009b      	lsls	r3, r3, #2
 800a3b4:	fbb0 f8f3 	udiv	r8, r0, r3
 800a3b8:	f7ff fed6 	bl	800a168 <HAL_RCC_GetPCLK1Freq>
 800a3bc:	6863      	ldr	r3, [r4, #4]
 800a3be:	4368      	muls	r0, r5
 800a3c0:	009b      	lsls	r3, r3, #2
 800a3c2:	fbb0 f3f3 	udiv	r3, r0, r3
 800a3c6:	fbb3 f3f9 	udiv	r3, r3, r9
 800a3ca:	fb09 8313 	mls	r3, r9, r3, r8
 800a3ce:	011b      	lsls	r3, r3, #4
 800a3d0:	3332      	adds	r3, #50	; 0x32
 800a3d2:	fbb3 f3f9 	udiv	r3, r3, r9
 800a3d6:	f003 08f0 	and.w	r8, r3, #240	; 0xf0
 800a3da:	f7ff fec5 	bl	800a168 <HAL_RCC_GetPCLK1Freq>
 800a3de:	6862      	ldr	r2, [r4, #4]
 800a3e0:	4368      	muls	r0, r5
 800a3e2:	0092      	lsls	r2, r2, #2
 800a3e4:	fbb0 faf2 	udiv	sl, r0, r2
 800a3e8:	f7ff febe 	bl	800a168 <HAL_RCC_GetPCLK1Freq>
 800a3ec:	e7bd      	b.n	800a36a <UART_SetConfig+0x1a6>
 800a3ee:	bf00      	nop
 800a3f0:	40011000 	.word	0x40011000
 800a3f4:	40011400 	.word	0x40011400

0800a3f8 <UART_WaitOnFlagUntilTimeout.constprop.3>:
static HAL_StatusTypeDef UART_WaitOnFlagUntilTimeout(UART_HandleTypeDef *huart, uint32_t Flag, FlagStatus Status, uint32_t Tickstart, uint32_t Timeout)
 800a3f8:	b5f8      	push	{r3, r4, r5, r6, r7, lr}
 800a3fa:	4604      	mov	r4, r0
 800a3fc:	460e      	mov	r6, r1
 800a3fe:	4617      	mov	r7, r2
 800a400:	461d      	mov	r5, r3
  while ((__HAL_UART_GET_FLAG(huart, Flag) ? SET : RESET) == Status)
 800a402:	6821      	ldr	r1, [r4, #0]
 800a404:	680b      	ldr	r3, [r1, #0]
 800a406:	ea36 0303 	bics.w	r3, r6, r3
 800a40a:	d101      	bne.n	800a410 <UART_WaitOnFlagUntilTimeout.constprop.3+0x18>
  return HAL_OK;
 800a40c:	2000      	movs	r0, #0
}
 800a40e:	bdf8      	pop	{r3, r4, r5, r6, r7, pc}
    if (Timeout != HAL_MAX_DELAY)
 800a410:	1c6b      	adds	r3, r5, #1
 800a412:	d0f7      	beq.n	800a404 <UART_WaitOnFlagUntilTimeout.constprop.3+0xc>
      if ((Timeout == 0U) || ((HAL_GetTick() - Tickstart) > Timeout))
 800a414:	b995      	cbnz	r5, 800a43c <UART_WaitOnFlagUntilTimeout.constprop.3+0x44>
        CLEAR_BIT(huart->Instance->CR1, (USART_CR1_RXNEIE | USART_CR1_PEIE | USART_CR1_TXEIE));
 800a416:	6823      	ldr	r3, [r4, #0]
 800a418:	68da      	ldr	r2, [r3, #12]
 800a41a:	f422 72d0 	bic.w	r2, r2, #416	; 0x1a0
 800a41e:	60da      	str	r2, [r3, #12]
        CLEAR_BIT(huart->Instance->CR3, USART_CR3_EIE);
 800a420:	695a      	ldr	r2, [r3, #20]
 800a422:	f022 0201 	bic.w	r2, r2, #1
 800a426:	615a      	str	r2, [r3, #20]
        huart->gState  = HAL_UART_STATE_READY;
 800a428:	2320      	movs	r3, #32
 800a42a:	f884 3039 	strb.w	r3, [r4, #57]	; 0x39
        huart->RxState = HAL_UART_STATE_READY;
 800a42e:	f884 303a 	strb.w	r3, [r4, #58]	; 0x3a
        __HAL_UNLOCK(huart);
 800a432:	2300      	movs	r3, #0
 800a434:	f884 3038 	strb.w	r3, [r4, #56]	; 0x38
 800a438:	2003      	movs	r0, #3
 800a43a:	bdf8      	pop	{r3, r4, r5, r6, r7, pc}
      if ((Timeout == 0U) || ((HAL_GetTick() - Tickstart) > Timeout))
 800a43c:	f7fe ff32 	bl	80092a4 <HAL_GetTick>
 800a440:	1bc0      	subs	r0, r0, r7
 800a442:	4285      	cmp	r5, r0
 800a444:	d2dd      	bcs.n	800a402 <UART_WaitOnFlagUntilTimeout.constprop.3+0xa>
 800a446:	e7e6      	b.n	800a416 <UART_WaitOnFlagUntilTimeout.constprop.3+0x1e>

0800a448 <HAL_UART_Init>:
{
 800a448:	b510      	push	{r4, lr}
  if (huart == NULL)
 800a44a:	4604      	mov	r4, r0
 800a44c:	b340      	cbz	r0, 800a4a0 <HAL_UART_Init+0x58>
  if (huart->gState == HAL_UART_STATE_RESET)
 800a44e:	f890 3039 	ldrb.w	r3, [r0, #57]	; 0x39
 800a452:	f003 02ff 	and.w	r2, r3, #255	; 0xff
 800a456:	b91b      	cbnz	r3, 800a460 <HAL_UART_Init+0x18>
    huart->Lock = HAL_UNLOCKED;
 800a458:	f880 2038 	strb.w	r2, [r0, #56]	; 0x38
    HAL_UART_MspInit(huart);
 800a45c:	f003 f9c2 	bl	800d7e4 <HAL_UART_MspInit>
  __HAL_UART_DISABLE(huart);
 800a460:	6822      	ldr	r2, [r4, #0]
  huart->gState = HAL_UART_STATE_BUSY;
 800a462:	2324      	movs	r3, #36	; 0x24
 800a464:	f884 3039 	strb.w	r3, [r4, #57]	; 0x39
  __HAL_UART_DISABLE(huart);
 800a468:	68d3      	ldr	r3, [r2, #12]
 800a46a:	f423 5300 	bic.w	r3, r3, #8192	; 0x2000
 800a46e:	60d3      	str	r3, [r2, #12]
  UART_SetConfig(huart);
 800a470:	4620      	mov	r0, r4
 800a472:	f7ff fea7 	bl	800a1c4 <UART_SetConfig>
  CLEAR_BIT(huart->Instance->CR2, (USART_CR2_LINEN | USART_CR2_CLKEN));
 800a476:	6823      	ldr	r3, [r4, #0]
 800a478:	691a      	ldr	r2, [r3, #16]
 800a47a:	f422 4290 	bic.w	r2, r2, #18432	; 0x4800
 800a47e:	611a      	str	r2, [r3, #16]
  CLEAR_BIT(huart->Instance->CR3, (USART_CR3_SCEN | USART_CR3_HDSEL | USART_CR3_IREN));
 800a480:	695a      	ldr	r2, [r3, #20]
 800a482:	f022 022a 	bic.w	r2, r2, #42	; 0x2a
 800a486:	615a      	str	r2, [r3, #20]
  __HAL_UART_ENABLE(huart);
 800a488:	68da      	ldr	r2, [r3, #12]
 800a48a:	f442 5200 	orr.w	r2, r2, #8192	; 0x2000
 800a48e:	60da      	str	r2, [r3, #12]
  huart->ErrorCode = HAL_UART_ERROR_NONE;
 800a490:	2000      	movs	r0, #0
  huart->gState = HAL_UART_STATE_READY;
 800a492:	2320      	movs	r3, #32
  huart->ErrorCode = HAL_UART_ERROR_NONE;
 800a494:	63e0      	str	r0, [r4, #60]	; 0x3c
  huart->gState = HAL_UART_STATE_READY;
 800a496:	f884 3039 	strb.w	r3, [r4, #57]	; 0x39
  huart->RxState = HAL_UART_STATE_READY;
 800a49a:	f884 303a 	strb.w	r3, [r4, #58]	; 0x3a
  return HAL_OK;
 800a49e:	bd10      	pop	{r4, pc}
    return HAL_ERROR;
 800a4a0:	2001      	movs	r0, #1
}
 800a4a2:	bd10      	pop	{r4, pc}

0800a4a4 <HAL_UART_Transmit>:
{
 800a4a4:	e92d 41f0 	stmdb	sp!, {r4, r5, r6, r7, r8, lr}
 800a4a8:	461f      	mov	r7, r3
  if (huart->gState == HAL_UART_STATE_READY)
 800a4aa:	f890 3039 	ldrb.w	r3, [r0, #57]	; 0x39
 800a4ae:	2b20      	cmp	r3, #32
{
 800a4b0:	4604      	mov	r4, r0
 800a4b2:	460d      	mov	r5, r1
 800a4b4:	4690      	mov	r8, r2
  if (huart->gState == HAL_UART_STATE_READY)
 800a4b6:	d14f      	bne.n	800a558 <HAL_UART_Transmit+0xb4>
    if ((pData == NULL) || (Size == 0U))
 800a4b8:	2900      	cmp	r1, #0
 800a4ba:	d04a      	beq.n	800a552 <HAL_UART_Transmit+0xae>
 800a4bc:	2a00      	cmp	r2, #0
 800a4be:	d048      	beq.n	800a552 <HAL_UART_Transmit+0xae>
    __HAL_LOCK(huart);
 800a4c0:	f890 3038 	ldrb.w	r3, [r0, #56]	; 0x38
 800a4c4:	2b01      	cmp	r3, #1
 800a4c6:	d047      	beq.n	800a558 <HAL_UART_Transmit+0xb4>
 800a4c8:	2301      	movs	r3, #1
 800a4ca:	f880 3038 	strb.w	r3, [r0, #56]	; 0x38
    huart->ErrorCode = HAL_UART_ERROR_NONE;
 800a4ce:	2300      	movs	r3, #0
 800a4d0:	63c3      	str	r3, [r0, #60]	; 0x3c
    huart->gState = HAL_UART_STATE_BUSY_TX;
 800a4d2:	2321      	movs	r3, #33	; 0x21
 800a4d4:	f880 3039 	strb.w	r3, [r0, #57]	; 0x39
    tickstart = HAL_GetTick();
 800a4d8:	f7fe fee4 	bl	80092a4 <HAL_GetTick>
    huart->TxXferSize = Size;
 800a4dc:	f8a4 8024 	strh.w	r8, [r4, #36]	; 0x24
    tickstart = HAL_GetTick();
 800a4e0:	4606      	mov	r6, r0
    huart->TxXferCount = Size;
 800a4e2:	f8a4 8026 	strh.w	r8, [r4, #38]	; 0x26
    while (huart->TxXferCount > 0U)
 800a4e6:	8ce3      	ldrh	r3, [r4, #38]	; 0x26
 800a4e8:	b29b      	uxth	r3, r3
 800a4ea:	b96b      	cbnz	r3, 800a508 <HAL_UART_Transmit+0x64>
    if (UART_WaitOnFlagUntilTimeout(huart, UART_FLAG_TC, RESET, tickstart, Timeout) != HAL_OK)
 800a4ec:	463b      	mov	r3, r7
 800a4ee:	4632      	mov	r2, r6
 800a4f0:	2140      	movs	r1, #64	; 0x40
 800a4f2:	4620      	mov	r0, r4
 800a4f4:	f7ff ff80 	bl	800a3f8 <UART_WaitOnFlagUntilTimeout.constprop.3>
 800a4f8:	b9b0      	cbnz	r0, 800a528 <HAL_UART_Transmit+0x84>
    huart->gState = HAL_UART_STATE_READY;
 800a4fa:	2320      	movs	r3, #32
 800a4fc:	f884 3039 	strb.w	r3, [r4, #57]	; 0x39
    __HAL_UNLOCK(huart);
 800a500:	f884 0038 	strb.w	r0, [r4, #56]	; 0x38
    return HAL_OK;
 800a504:	e8bd 81f0 	ldmia.w	sp!, {r4, r5, r6, r7, r8, pc}
      huart->TxXferCount--;
 800a508:	8ce3      	ldrh	r3, [r4, #38]	; 0x26
 800a50a:	3b01      	subs	r3, #1
 800a50c:	b29b      	uxth	r3, r3
 800a50e:	84e3      	strh	r3, [r4, #38]	; 0x26
      if (huart->Init.WordLength == UART_WORDLENGTH_9B)
 800a510:	68a3      	ldr	r3, [r4, #8]
 800a512:	f5b3 5f80 	cmp.w	r3, #4096	; 0x1000
        if (UART_WaitOnFlagUntilTimeout(huart, UART_FLAG_TXE, RESET, tickstart, Timeout) != HAL_OK)
 800a516:	4632      	mov	r2, r6
 800a518:	463b      	mov	r3, r7
 800a51a:	f04f 0180 	mov.w	r1, #128	; 0x80
 800a51e:	4620      	mov	r0, r4
      if (huart->Init.WordLength == UART_WORDLENGTH_9B)
 800a520:	d10e      	bne.n	800a540 <HAL_UART_Transmit+0x9c>
        if (UART_WaitOnFlagUntilTimeout(huart, UART_FLAG_TXE, RESET, tickstart, Timeout) != HAL_OK)
 800a522:	f7ff ff69 	bl	800a3f8 <UART_WaitOnFlagUntilTimeout.constprop.3>
 800a526:	b110      	cbz	r0, 800a52e <HAL_UART_Transmit+0x8a>
          return HAL_TIMEOUT;
 800a528:	2003      	movs	r0, #3
 800a52a:	e8bd 81f0 	ldmia.w	sp!, {r4, r5, r6, r7, r8, pc}
        huart->Instance->DR = (*tmp & (uint16_t)0x01FF);
 800a52e:	882b      	ldrh	r3, [r5, #0]
 800a530:	6822      	ldr	r2, [r4, #0]
 800a532:	f3c3 0308 	ubfx	r3, r3, #0, #9
 800a536:	6053      	str	r3, [r2, #4]
        if (huart->Init.Parity == UART_PARITY_NONE)
 800a538:	6923      	ldr	r3, [r4, #16]
 800a53a:	b943      	cbnz	r3, 800a54e <HAL_UART_Transmit+0xaa>
          pData += 2U;
 800a53c:	3502      	adds	r5, #2
 800a53e:	e7d2      	b.n	800a4e6 <HAL_UART_Transmit+0x42>
        if (UART_WaitOnFlagUntilTimeout(huart, UART_FLAG_TXE, RESET, tickstart, Timeout) != HAL_OK)
 800a540:	f7ff ff5a 	bl	800a3f8 <UART_WaitOnFlagUntilTimeout.constprop.3>
 800a544:	2800      	cmp	r0, #0
 800a546:	d1ef      	bne.n	800a528 <HAL_UART_Transmit+0x84>
        huart->Instance->DR = (*pData++ & (uint8_t)0xFF);
 800a548:	6823      	ldr	r3, [r4, #0]
 800a54a:	782a      	ldrb	r2, [r5, #0]
 800a54c:	605a      	str	r2, [r3, #4]
 800a54e:	3501      	adds	r5, #1
 800a550:	e7c9      	b.n	800a4e6 <HAL_UART_Transmit+0x42>
      return  HAL_ERROR;
 800a552:	2001      	movs	r0, #1
 800a554:	e8bd 81f0 	ldmia.w	sp!, {r4, r5, r6, r7, r8, pc}
    return HAL_BUSY;
 800a558:	2002      	movs	r0, #2
}
 800a55a:	e8bd 81f0 	ldmia.w	sp!, {r4, r5, r6, r7, r8, pc}
	...

0800a560 <HAL_UART_Receive_DMA>:
{
 800a560:	4613      	mov	r3, r2
  if (huart->RxState == HAL_UART_STATE_READY)
 800a562:	f890 203a 	ldrb.w	r2, [r0, #58]	; 0x3a
 800a566:	2a20      	cmp	r2, #32
{
 800a568:	b573      	push	{r0, r1, r4, r5, r6, lr}
 800a56a:	4605      	mov	r5, r0
  if (huart->RxState == HAL_UART_STATE_READY)
 800a56c:	d138      	bne.n	800a5e0 <HAL_UART_Receive_DMA+0x80>
    if ((pData == NULL) || (Size == 0U))
 800a56e:	2900      	cmp	r1, #0
 800a570:	d034      	beq.n	800a5dc <HAL_UART_Receive_DMA+0x7c>
 800a572:	2b00      	cmp	r3, #0
 800a574:	d032      	beq.n	800a5dc <HAL_UART_Receive_DMA+0x7c>
    __HAL_LOCK(huart);
 800a576:	f890 2038 	ldrb.w	r2, [r0, #56]	; 0x38
 800a57a:	2a01      	cmp	r2, #1
 800a57c:	d030      	beq.n	800a5e0 <HAL_UART_Receive_DMA+0x80>
 800a57e:	2201      	movs	r2, #1
    huart->ErrorCode = HAL_UART_ERROR_NONE;
 800a580:	2400      	movs	r4, #0
    __HAL_LOCK(huart);
 800a582:	f880 2038 	strb.w	r2, [r0, #56]	; 0x38
    huart->RxState = HAL_UART_STATE_BUSY_RX;
 800a586:	2222      	movs	r2, #34	; 0x22
    huart->ErrorCode = HAL_UART_ERROR_NONE;
 800a588:	63c4      	str	r4, [r0, #60]	; 0x3c
    huart->pRxBuffPtr = pData;
 800a58a:	6281      	str	r1, [r0, #40]	; 0x28
    huart->RxXferSize = Size;
 800a58c:	8583      	strh	r3, [r0, #44]	; 0x2c
    huart->RxState = HAL_UART_STATE_BUSY_RX;
 800a58e:	f880 203a 	strb.w	r2, [r0, #58]	; 0x3a
    huart->hdmarx->XferCpltCallback = UART_DMAReceiveCplt;
 800a592:	6b40      	ldr	r0, [r0, #52]	; 0x34
 800a594:	4a13      	ldr	r2, [pc, #76]	; (800a5e4 <HAL_UART_Receive_DMA+0x84>)
 800a596:	63c2      	str	r2, [r0, #60]	; 0x3c
    HAL_DMA_Start_IT(huart->hdmarx, (uint32_t)&huart->Instance->DR, *(uint32_t *)tmp, Size);
 800a598:	682e      	ldr	r6, [r5, #0]
    huart->hdmarx->XferHalfCpltCallback = UART_DMARxHalfCplt;
 800a59a:	4a13      	ldr	r2, [pc, #76]	; (800a5e8 <HAL_UART_Receive_DMA+0x88>)
 800a59c:	6402      	str	r2, [r0, #64]	; 0x40
    huart->hdmarx->XferErrorCallback = UART_DMAError;
 800a59e:	4a13      	ldr	r2, [pc, #76]	; (800a5ec <HAL_UART_Receive_DMA+0x8c>)
 800a5a0:	64c2      	str	r2, [r0, #76]	; 0x4c
    huart->hdmarx->XferAbortCallback = NULL;
 800a5a2:	6504      	str	r4, [r0, #80]	; 0x50
    HAL_DMA_Start_IT(huart->hdmarx, (uint32_t)&huart->Instance->DR, *(uint32_t *)tmp, Size);
 800a5a4:	460a      	mov	r2, r1
 800a5a6:	1d31      	adds	r1, r6, #4
 800a5a8:	f7ff f9ae 	bl	8009908 <HAL_DMA_Start_IT>
    __HAL_UART_CLEAR_OREFLAG(huart);
 800a5ac:	682b      	ldr	r3, [r5, #0]
 800a5ae:	9401      	str	r4, [sp, #4]
 800a5b0:	681a      	ldr	r2, [r3, #0]
 800a5b2:	9201      	str	r2, [sp, #4]
 800a5b4:	685a      	ldr	r2, [r3, #4]
 800a5b6:	9201      	str	r2, [sp, #4]
 800a5b8:	9a01      	ldr	r2, [sp, #4]
    SET_BIT(huart->Instance->CR1, USART_CR1_PEIE);
 800a5ba:	68da      	ldr	r2, [r3, #12]
    __HAL_UNLOCK(huart);
 800a5bc:	f885 4038 	strb.w	r4, [r5, #56]	; 0x38
    SET_BIT(huart->Instance->CR1, USART_CR1_PEIE);
 800a5c0:	f442 7280 	orr.w	r2, r2, #256	; 0x100
 800a5c4:	60da      	str	r2, [r3, #12]
    SET_BIT(huart->Instance->CR3, USART_CR3_EIE);
 800a5c6:	695a      	ldr	r2, [r3, #20]
 800a5c8:	f042 0201 	orr.w	r2, r2, #1
 800a5cc:	615a      	str	r2, [r3, #20]
    SET_BIT(huart->Instance->CR3, USART_CR3_DMAR);
 800a5ce:	695a      	ldr	r2, [r3, #20]
 800a5d0:	f042 0240 	orr.w	r2, r2, #64	; 0x40
 800a5d4:	615a      	str	r2, [r3, #20]
    return HAL_OK;
 800a5d6:	4620      	mov	r0, r4
}
 800a5d8:	b002      	add	sp, #8
 800a5da:	bd70      	pop	{r4, r5, r6, pc}
      return HAL_ERROR;
 800a5dc:	2001      	movs	r0, #1
 800a5de:	e7fb      	b.n	800a5d8 <HAL_UART_Receive_DMA+0x78>
    return HAL_BUSY;
 800a5e0:	2002      	movs	r0, #2
 800a5e2:	e7f9      	b.n	800a5d8 <HAL_UART_Receive_DMA+0x78>
 800a5e4:	0800a5f1 	.word	0x0800a5f1
 800a5e8:	0800a62b 	.word	0x0800a62b
 800a5ec:	0800a637 	.word	0x0800a637

0800a5f0 <UART_DMAReceiveCplt>:
{
 800a5f0:	b508      	push	{r3, lr}
  if ((hdma->Instance->CR & DMA_SxCR_CIRC) == 0U)
 800a5f2:	6803      	ldr	r3, [r0, #0]
  UART_HandleTypeDef *huart = (UART_HandleTypeDef *)((DMA_HandleTypeDef *)hdma)->Parent;
 800a5f4:	6b82      	ldr	r2, [r0, #56]	; 0x38
  if ((hdma->Instance->CR & DMA_SxCR_CIRC) == 0U)
 800a5f6:	681b      	ldr	r3, [r3, #0]
 800a5f8:	f413 7380 	ands.w	r3, r3, #256	; 0x100
 800a5fc:	d110      	bne.n	800a620 <UART_DMAReceiveCplt+0x30>
    huart->RxXferCount = 0U;
 800a5fe:	85d3      	strh	r3, [r2, #46]	; 0x2e
    CLEAR_BIT(huart->Instance->CR1, USART_CR1_PEIE);
 800a600:	6813      	ldr	r3, [r2, #0]
 800a602:	68d9      	ldr	r1, [r3, #12]
 800a604:	f421 7180 	bic.w	r1, r1, #256	; 0x100
 800a608:	60d9      	str	r1, [r3, #12]
    CLEAR_BIT(huart->Instance->CR3, USART_CR3_EIE);
 800a60a:	6959      	ldr	r1, [r3, #20]
 800a60c:	f021 0101 	bic.w	r1, r1, #1
 800a610:	6159      	str	r1, [r3, #20]
    CLEAR_BIT(huart->Instance->CR3, USART_CR3_DMAR);
 800a612:	6959      	ldr	r1, [r3, #20]
 800a614:	f021 0140 	bic.w	r1, r1, #64	; 0x40
 800a618:	6159      	str	r1, [r3, #20]
    huart->RxState = HAL_UART_STATE_READY;
 800a61a:	2320      	movs	r3, #32
 800a61c:	f882 303a 	strb.w	r3, [r2, #58]	; 0x3a
  HAL_UART_RxCpltCallback(huart);
 800a620:	4610      	mov	r0, r2
 800a622:	f000 f82f 	bl	800a684 <HAL_UART_RxCpltCallback>
 800a626:	bd08      	pop	{r3, pc}

0800a628 <HAL_UART_RxHalfCpltCallback>:
 800a628:	4770      	bx	lr

0800a62a <UART_DMARxHalfCplt>:
{
 800a62a:	b508      	push	{r3, lr}
  HAL_UART_RxHalfCpltCallback(huart);
 800a62c:	6b80      	ldr	r0, [r0, #56]	; 0x38
 800a62e:	f7ff fffb 	bl	800a628 <HAL_UART_RxHalfCpltCallback>
 800a632:	bd08      	pop	{r3, pc}

0800a634 <HAL_UART_ErrorCallback>:
 800a634:	4770      	bx	lr

0800a636 <UART_DMAError>:
  UART_HandleTypeDef *huart = (UART_HandleTypeDef *)((DMA_HandleTypeDef *)hdma)->Parent;
 800a636:	6b81      	ldr	r1, [r0, #56]	; 0x38
{
 800a638:	b508      	push	{r3, lr}
  dmarequest = HAL_IS_BIT_SET(huart->Instance->CR3, USART_CR3_DMAT);
 800a63a:	680b      	ldr	r3, [r1, #0]
 800a63c:	695a      	ldr	r2, [r3, #20]
  if ((huart->gState == HAL_UART_STATE_BUSY_TX) && dmarequest)
 800a63e:	f891 0039 	ldrb.w	r0, [r1, #57]	; 0x39
 800a642:	2821      	cmp	r0, #33	; 0x21
 800a644:	d10a      	bne.n	800a65c <UART_DMAError+0x26>
 800a646:	0612      	lsls	r2, r2, #24
 800a648:	d508      	bpl.n	800a65c <UART_DMAError+0x26>
    huart->TxXferCount = 0x00U;
 800a64a:	2200      	movs	r2, #0
 800a64c:	84ca      	strh	r2, [r1, #38]	; 0x26
  CLEAR_BIT(huart->Instance->CR1, (USART_CR1_TXEIE | USART_CR1_TCIE));
 800a64e:	68da      	ldr	r2, [r3, #12]
 800a650:	f022 02c0 	bic.w	r2, r2, #192	; 0xc0
 800a654:	60da      	str	r2, [r3, #12]
  huart->gState = HAL_UART_STATE_READY;
 800a656:	2220      	movs	r2, #32
 800a658:	f881 2039 	strb.w	r2, [r1, #57]	; 0x39
  dmarequest = HAL_IS_BIT_SET(huart->Instance->CR3, USART_CR3_DMAR);
 800a65c:	695b      	ldr	r3, [r3, #20]
  if ((huart->RxState == HAL_UART_STATE_BUSY_RX) && dmarequest)
 800a65e:	f891 203a 	ldrb.w	r2, [r1, #58]	; 0x3a
 800a662:	2a22      	cmp	r2, #34	; 0x22
 800a664:	d106      	bne.n	800a674 <UART_DMAError+0x3e>
 800a666:	065b      	lsls	r3, r3, #25
 800a668:	d504      	bpl.n	800a674 <UART_DMAError+0x3e>
    huart->RxXferCount = 0x00U;
 800a66a:	2300      	movs	r3, #0
 800a66c:	85cb      	strh	r3, [r1, #46]	; 0x2e
    UART_EndRxTransfer(huart);
 800a66e:	4608      	mov	r0, r1
 800a670:	f7ff fd9a 	bl	800a1a8 <UART_EndRxTransfer>
  huart->ErrorCode |= HAL_UART_ERROR_DMA;
 800a674:	6bcb      	ldr	r3, [r1, #60]	; 0x3c
 800a676:	f043 0310 	orr.w	r3, r3, #16
 800a67a:	63cb      	str	r3, [r1, #60]	; 0x3c
  HAL_UART_ErrorCallback(huart);
 800a67c:	4608      	mov	r0, r1
 800a67e:	f7ff ffd9 	bl	800a634 <HAL_UART_ErrorCallback>
 800a682:	bd08      	pop	{r3, pc}

0800a684 <HAL_UART_RxCpltCallback>:
extern volatile pba_bool Rst_Flag;
extern uint8_t g_touch_buff[9];
extern uint8_t lcd_buffer[300];

void HAL_UART_RxCpltCallback(UART_HandleTypeDef *huart)
{
 800a684:	b5f8      	push	{r3, r4, r5, r6, r7, lr}
  /* Prevent unused argument(s) compilation warning */
  if(huart->Instance == USART1)
 800a686:	4a23      	ldr	r2, [pc, #140]	; (800a714 <HAL_UART_RxCpltCallback+0x90>)
 800a688:	6803      	ldr	r3, [r0, #0]
 800a68a:	4293      	cmp	r3, r2
 800a68c:	d13a      	bne.n	800a704 <HAL_UART_RxCpltCallback+0x80>
  {
	  if(tft_state == pba_false)
 800a68e:	4b22      	ldr	r3, [pc, #136]	; (800a718 <HAL_UART_RxCpltCallback+0x94>)
 800a690:	4d22      	ldr	r5, [pc, #136]	; (800a71c <HAL_UART_RxCpltCallback+0x98>)
 800a692:	781a      	ldrb	r2, [r3, #0]
 800a694:	f002 04ff 	and.w	r4, r2, #255	; 0xff
 800a698:	b9c2      	cbnz	r2, 800a6cc <HAL_UART_RxCpltCallback+0x48>
	  {
		tft_state = pba_true;
 800a69a:	2201      	movs	r2, #1

		for(int i=0; i<10; i++)
		{
			sprintf((char*)lcd_buffer, "[0x%2X]", (char)gUart1_Rx_Buff[i]);
 800a69c:	4f20      	ldr	r7, [pc, #128]	; (800a720 <HAL_UART_RxCpltCallback+0x9c>)
 800a69e:	4e21      	ldr	r6, [pc, #132]	; (800a724 <HAL_UART_RxCpltCallback+0xa0>)
		tft_state = pba_true;
 800a6a0:	701a      	strb	r2, [r3, #0]
			sprintf((char*)lcd_buffer, "[0x%2X]", (char)gUart1_Rx_Buff[i]);
 800a6a2:	5d2a      	ldrb	r2, [r5, r4]
 800a6a4:	4639      	mov	r1, r7
 800a6a6:	4630      	mov	r0, r6
 800a6a8:	f004 ff70 	bl	800f58c <siprintf>
		for(int i=0; i<10; i++)
 800a6ac:	3401      	adds	r4, #1
			Debug_serial((char*)lcd_buffer);
 800a6ae:	4630      	mov	r0, r6
 800a6b0:	f000 fb34 	bl	800ad1c <Debug_serial>
		for(int i=0; i<10; i++)
 800a6b4:	2c0a      	cmp	r4, #10
 800a6b6:	d1f4      	bne.n	800a6a2 <HAL_UART_RxCpltCallback+0x1e>
		}
		Debug_serial("\r\n");
 800a6b8:	481b      	ldr	r0, [pc, #108]	; (800a728 <HAL_UART_RxCpltCallback+0xa4>)
 800a6ba:	f000 fb2f 	bl	800ad1c <Debug_serial>

		HAL_UART_Receive_DMA(&huart1, gUart1_Rx_Buff, 9); //9byte
 800a6be:	4917      	ldr	r1, [pc, #92]	; (800a71c <HAL_UART_RxCpltCallback+0x98>)
 800a6c0:	481a      	ldr	r0, [pc, #104]	; (800a72c <HAL_UART_RxCpltCallback+0xa8>)
 800a6c2:	2209      	movs	r2, #9
	  HAL_UART_Receive_DMA(&huart2, gUart2_Rx_Buff, 1);
  }
  /* NOTE: This function Should not be modified, when the callback is needed,
           the HAL_UART_TxCpltCallback could be implemented in the user file
   */
}
 800a6c4:	e8bd 40f8 	ldmia.w	sp!, {r3, r4, r5, r6, r7, lr}
	  HAL_UART_Receive_DMA(&huart2, gUart2_Rx_Buff, 1);
 800a6c8:	f7ff bf4a 	b.w	800a560 <HAL_UART_Receive_DMA>
			  sprintf((char*)lcd_buffer, "[0x%2X]", (char)gUart1_Rx_Buff[i]);
 800a6cc:	4f14      	ldr	r7, [pc, #80]	; (800a720 <HAL_UART_RxCpltCallback+0x9c>)
 800a6ce:	4e15      	ldr	r6, [pc, #84]	; (800a724 <HAL_UART_RxCpltCallback+0xa0>)
 800a6d0:	2400      	movs	r4, #0
 800a6d2:	5d2a      	ldrb	r2, [r5, r4]
 800a6d4:	4639      	mov	r1, r7
 800a6d6:	4630      	mov	r0, r6
 800a6d8:	f004 ff58 	bl	800f58c <siprintf>
		  for(int i=0; i<9; i++)
 800a6dc:	3401      	adds	r4, #1
			  Debug_serial((char*)lcd_buffer);
 800a6de:	4630      	mov	r0, r6
 800a6e0:	f000 fb1c 	bl	800ad1c <Debug_serial>
		  for(int i=0; i<9; i++)
 800a6e4:	2c09      	cmp	r4, #9
 800a6e6:	d1f4      	bne.n	800a6d2 <HAL_UART_RxCpltCallback+0x4e>
		  Debug_serial("\r\n");
 800a6e8:	480f      	ldr	r0, [pc, #60]	; (800a728 <HAL_UART_RxCpltCallback+0xa4>)
 800a6ea:	f000 fb17 	bl	800ad1c <Debug_serial>
		  touch_state = pba_true;
 800a6ee:	4b10      	ldr	r3, [pc, #64]	; (800a730 <HAL_UART_RxCpltCallback+0xac>)
 800a6f0:	2201      	movs	r2, #1
 800a6f2:	701a      	strb	r2, [r3, #0]
		  memcpy(g_touch_buff, gUart1_Rx_Buff, 9);
 800a6f4:	4b0f      	ldr	r3, [pc, #60]	; (800a734 <HAL_UART_RxCpltCallback+0xb0>)
 800a6f6:	682a      	ldr	r2, [r5, #0]
 800a6f8:	601a      	str	r2, [r3, #0]
 800a6fa:	686a      	ldr	r2, [r5, #4]
 800a6fc:	605a      	str	r2, [r3, #4]
 800a6fe:	7a2a      	ldrb	r2, [r5, #8]
 800a700:	721a      	strb	r2, [r3, #8]
 800a702:	bdf8      	pop	{r3, r4, r5, r6, r7, pc}
  else if(huart->Instance == USART2)
 800a704:	4a0c      	ldr	r2, [pc, #48]	; (800a738 <HAL_UART_RxCpltCallback+0xb4>)
 800a706:	4293      	cmp	r3, r2
 800a708:	d103      	bne.n	800a712 <HAL_UART_RxCpltCallback+0x8e>
	  HAL_UART_Receive_DMA(&huart2, gUart2_Rx_Buff, 1);
 800a70a:	2201      	movs	r2, #1
 800a70c:	490b      	ldr	r1, [pc, #44]	; (800a73c <HAL_UART_RxCpltCallback+0xb8>)
 800a70e:	480c      	ldr	r0, [pc, #48]	; (800a740 <HAL_UART_RxCpltCallback+0xbc>)
 800a710:	e7d8      	b.n	800a6c4 <HAL_UART_RxCpltCallback+0x40>
 800a712:	bdf8      	pop	{r3, r4, r5, r6, r7, pc}
 800a714:	40011000 	.word	0x40011000
 800a718:	200017e8 	.word	0x200017e8
 800a71c:	20001b7d 	.word	0x20001b7d
 800a720:	0801174d 	.word	0x0801174d
 800a724:	200017f8 	.word	0x200017f8
 800a728:	08011e55 	.word	0x08011e55
 800a72c:	20001b34 	.word	0x20001b34
 800a730:	200017e9 	.word	0x200017e9
 800a734:	200019a0 	.word	0x200019a0
 800a738:	40004400 	.word	0x40004400
 800a73c:	20001b7c 	.word	0x20001b7c
 800a740:	20001b94 	.word	0x20001b94

0800a744 <HAL_GPIO_EXTI_Callback>:

void HAL_GPIO_EXTI_Callback(uint16_t GPIO_Pin)
{
	if(GPIO_Pin == RESET_KEY_Pin)//S/W Reset
 800a744:	f5b0 5f80 	cmp.w	r0, #4096	; 0x1000
{
 800a748:	b508      	push	{r3, lr}
 800a74a:	4601      	mov	r1, r0
	if(GPIO_Pin == RESET_KEY_Pin)//S/W Reset
 800a74c:	d106      	bne.n	800a75c <HAL_GPIO_EXTI_Callback+0x18>
	{
		if(HAL_GPIO_ReadPin(RESET_KEY_GPIO_Port, RESET_KEY_Pin) == GPIO_PIN_RESET)
 800a74e:	4804      	ldr	r0, [pc, #16]	; (800a760 <HAL_GPIO_EXTI_Callback+0x1c>)
 800a750:	f7ff faa8 	bl	8009ca4 <HAL_GPIO_ReadPin>
 800a754:	b910      	cbnz	r0, 800a75c <HAL_GPIO_EXTI_Callback+0x18>
		{
			//while(HAL_GPIO_ReadPin(RESET_KEY_GPIO_Port, RESET_KEY_Pin) == GPIO_PIN_RESET);
			Rst_Flag = pba_true;
 800a756:	4b03      	ldr	r3, [pc, #12]	; (800a764 <HAL_GPIO_EXTI_Callback+0x20>)
 800a758:	2201      	movs	r2, #1
 800a75a:	701a      	strb	r2, [r3, #0]
 800a75c:	bd08      	pop	{r3, pc}
 800a75e:	bf00      	nop
 800a760:	40020400 	.word	0x40020400
 800a764:	200017a7 	.word	0x200017a7

0800a768 <OS_Function>:
	if(R_value < 0) R_value = 0;

	return R_value;
}
static float OS_Function(OS_STATE value)
{
 800a768:	e92d 41f0 	stmdb	sp!, {r4, r5, r6, r7, r8, lr}

	float voltage = 0, R_value = 0;
	uint32_t adc_sum = 0;
	int time = 0;

	if(value == OPEN) time = 70; //90
 800a76c:	4605      	mov	r5, r0
{
 800a76e:	ed2d 8b02 	vpush	{d8}
	if(value == OPEN) time = 70; //90
 800a772:	2800      	cmp	r0, #0
 800a774:	d064      	beq.n	800a840 <OS_Function+0xd8>
	else if(value == SHORT) time = 60; //70
 800a776:	2802      	cmp	r0, #2
 800a778:	f000 809e 	beq.w	800a8b8 <OS_Function+0x150>
	int time = 0;
 800a77c:	2803      	cmp	r0, #3
 800a77e:	bf0c      	ite	eq
 800a780:	f04f 080a 	moveq.w	r8, #10
 800a784:	f04f 0800 	movne.w	r8, #0
	else if(value == SHORT) time = 60; //70
 800a788:	2600      	movs	r6, #0
	}


	for(int i=0; i<time; i++)
	{
		HAL_ADC_Start(&hadc1);
 800a78a:	4f67      	ldr	r7, [pc, #412]	; (800a928 <OS_Function+0x1c0>)
	else if(value == SHORT) time = 60; //70
 800a78c:	4634      	mov	r4, r6
	for(int i=0; i<time; i++)
 800a78e:	4546      	cmp	r6, r8
 800a790:	d159      	bne.n	800a846 <OS_Function+0xde>
		adc_sum += HAL_ADC_GetValue(&hadc1);

		HAL_ADC_Stop(&hadc1);
	}

	voltage = ((float)(adc_sum/time)/4095)*3.3;
 800a792:	fbb4 f4f6 	udiv	r4, r4, r6
 800a796:	ee07 4a90 	vmov	s15, r4
 800a79a:	ed9f 7a64 	vldr	s14, [pc, #400]	; 800a92c <OS_Function+0x1c4>
 800a79e:	eef8 7a67 	vcvt.f32.u32	s15, s15
 800a7a2:	eec7 6a87 	vdiv.f32	s13, s15, s14
 800a7a6:	ee16 0a90 	vmov	r0, s13
 800a7aa:	f7fd fed5 	bl	8008558 <__aeabi_f2d>
 800a7ae:	a356      	add	r3, pc, #344	; (adr r3, 800a908 <OS_Function+0x1a0>)
 800a7b0:	e9d3 2300 	ldrd	r2, r3, [r3]
 800a7b4:	f7fd ff24 	bl	8008600 <__aeabi_dmul>
 800a7b8:	f7fe f9fa 	bl	8008bb0 <__aeabi_d2f>
 800a7bc:	ee08 0a10 	vmov	s16, r0

	if(value == OPEN || value == Dbg)
 800a7c0:	b10d      	cbz	r5, 800a7c6 <OS_Function+0x5e>
 800a7c2:	2d03      	cmp	r5, #3
 800a7c4:	d150      	bne.n	800a868 <OS_Function+0x100>
	{
		if(voltage > 3.0) R_value = 200;
 800a7c6:	eef0 7a08 	vmov.f32	s15, #8	; 0x40400000  3.0
 800a7ca:	eeb4 8ae7 	vcmpe.f32	s16, s15
 800a7ce:	eef1 fa10 	vmrs	APSR_nzcv, fpscr
 800a7d2:	f300 808e 	bgt.w	800a8f2 <OS_Function+0x18a>
		//else R_value = (((voltage * 20)/(3.3-voltage))-80) * 0.7; //20
		else R_value = (((voltage * 20)/(3.3-voltage))-84) * 0.7; //20
 800a7d6:	eef3 7a04 	vmov.f32	s15, #52	; 0x41a00000  20.0
 800a7da:	ee68 7a27 	vmul.f32	s15, s16, s15
 800a7de:	ee17 0a90 	vmov	r0, s15
 800a7e2:	f7fd feb9 	bl	8008558 <__aeabi_f2d>
 800a7e6:	4604      	mov	r4, r0
 800a7e8:	ee18 0a10 	vmov	r0, s16
 800a7ec:	460d      	mov	r5, r1
 800a7ee:	f7fd feb3 	bl	8008558 <__aeabi_f2d>
 800a7f2:	4602      	mov	r2, r0
 800a7f4:	460b      	mov	r3, r1
 800a7f6:	a144      	add	r1, pc, #272	; (adr r1, 800a908 <OS_Function+0x1a0>)
 800a7f8:	e9d1 0100 	ldrd	r0, r1, [r1]
 800a7fc:	f7fd fd4c 	bl	8008298 <__aeabi_dsub>
 800a800:	4602      	mov	r2, r0
 800a802:	460b      	mov	r3, r1
 800a804:	4620      	mov	r0, r4
 800a806:	4629      	mov	r1, r5
 800a808:	f7fe f824 	bl	8008854 <__aeabi_ddiv>
 800a80c:	2200      	movs	r2, #0
 800a80e:	4b48      	ldr	r3, [pc, #288]	; (800a930 <OS_Function+0x1c8>)
 800a810:	f7fd fd42 	bl	8008298 <__aeabi_dsub>
 800a814:	a33e      	add	r3, pc, #248	; (adr r3, 800a910 <OS_Function+0x1a8>)
 800a816:	e9d3 2300 	ldrd	r2, r3, [r3]
	}
	else if(value == SHORT)
	{
		if(voltage > 3.185) R_value = 20000000;
		else R_value = ((voltage * 500000)/(3.3-voltage)*0.72); //200K, 28%
 800a81a:	f7fd fef1 	bl	8008600 <__aeabi_dmul>
 800a81e:	f7fe f9c7 	bl	8008bb0 <__aeabi_d2f>
 800a822:	ee00 0a10 	vmov	s0, r0
	}

	if(R_value < 0) R_value = 0;
 800a826:	eddf 7a43 	vldr	s15, [pc, #268]	; 800a934 <OS_Function+0x1cc>
 800a82a:	eeb5 0a40 	vcmp.f32	s0, #0.0
 800a82e:	eef1 fa10 	vmrs	APSR_nzcv, fpscr
 800a832:	bf48      	it	mi
 800a834:	eeb0 0a67 	vmovmi.f32	s0, s15

	return R_value;
}
 800a838:	ecbd 8b02 	vpop	{d8}
 800a83c:	e8bd 81f0 	ldmia.w	sp!, {r4, r5, r6, r7, r8, pc}
	if(value == OPEN) time = 70; //90
 800a840:	f04f 0846 	mov.w	r8, #70	; 0x46
 800a844:	e7a0      	b.n	800a788 <OS_Function+0x20>
		HAL_ADC_Start(&hadc1);
 800a846:	4638      	mov	r0, r7
 800a848:	f7fe fdec 	bl	8009424 <HAL_ADC_Start>
		HAL_ADC_PollForConversion(&hadc1, 500);
 800a84c:	f44f 71fa 	mov.w	r1, #500	; 0x1f4
 800a850:	4638      	mov	r0, r7
 800a852:	f7fe fe65 	bl	8009520 <HAL_ADC_PollForConversion>
		adc_sum += HAL_ADC_GetValue(&hadc1);
 800a856:	4638      	mov	r0, r7
 800a858:	f7fe feb2 	bl	80095c0 <HAL_ADC_GetValue>
 800a85c:	4404      	add	r4, r0
		HAL_ADC_Stop(&hadc1);
 800a85e:	4638      	mov	r0, r7
 800a860:	f7fe fe40 	bl	80094e4 <HAL_ADC_Stop>
	for(int i=0; i<time; i++)
 800a864:	3601      	adds	r6, #1
 800a866:	e792      	b.n	800a78e <OS_Function+0x26>
	else if(value == SHORT)
 800a868:	2d02      	cmp	r5, #2
 800a86a:	d145      	bne.n	800a8f8 <OS_Function+0x190>
		if(voltage > 3.185) R_value = 20000000;
 800a86c:	f7fd fe74 	bl	8008558 <__aeabi_f2d>
 800a870:	a329      	add	r3, pc, #164	; (adr r3, 800a918 <OS_Function+0x1b0>)
 800a872:	e9d3 2300 	ldrd	r2, r3, [r3]
 800a876:	4606      	mov	r6, r0
 800a878:	460f      	mov	r7, r1
 800a87a:	f7fe f951 	bl	8008b20 <__aeabi_dcmpgt>
 800a87e:	2800      	cmp	r0, #0
 800a880:	d13d      	bne.n	800a8fe <OS_Function+0x196>
		else R_value = ((voltage * 500000)/(3.3-voltage)*0.72); //200K, 28%
 800a882:	eddf 7a2d 	vldr	s15, [pc, #180]	; 800a938 <OS_Function+0x1d0>
 800a886:	ee68 7a27 	vmul.f32	s15, s16, s15
 800a88a:	ee17 0a90 	vmov	r0, s15
 800a88e:	f7fd fe63 	bl	8008558 <__aeabi_f2d>
 800a892:	4632      	mov	r2, r6
 800a894:	4604      	mov	r4, r0
 800a896:	460d      	mov	r5, r1
 800a898:	463b      	mov	r3, r7
 800a89a:	a11b      	add	r1, pc, #108	; (adr r1, 800a908 <OS_Function+0x1a0>)
 800a89c:	e9d1 0100 	ldrd	r0, r1, [r1]
 800a8a0:	f7fd fcfa 	bl	8008298 <__aeabi_dsub>
 800a8a4:	4602      	mov	r2, r0
 800a8a6:	460b      	mov	r3, r1
 800a8a8:	4620      	mov	r0, r4
 800a8aa:	4629      	mov	r1, r5
 800a8ac:	f7fd ffd2 	bl	8008854 <__aeabi_ddiv>
 800a8b0:	a31b      	add	r3, pc, #108	; (adr r3, 800a920 <OS_Function+0x1b8>)
 800a8b2:	e9d3 2300 	ldrd	r2, r3, [r3]
 800a8b6:	e7b0      	b.n	800a81a <OS_Function+0xb2>
		HAL_GPIO_WritePin(FET1_GPIO_Port, FET1_Pin, GPIO_PIN_RESET);
 800a8b8:	2200      	movs	r2, #0
 800a8ba:	2140      	movs	r1, #64	; 0x40
 800a8bc:	481f      	ldr	r0, [pc, #124]	; (800a93c <OS_Function+0x1d4>)
 800a8be:	f7ff f9f7 	bl	8009cb0 <HAL_GPIO_WritePin>
		HAL_GPIO_WritePin(FET6_GPIO_Port, FET6_Pin, GPIO_PIN_RESET);
 800a8c2:	2200      	movs	r2, #0
 800a8c4:	2120      	movs	r1, #32
 800a8c6:	481d      	ldr	r0, [pc, #116]	; (800a93c <OS_Function+0x1d4>)
 800a8c8:	f7ff f9f2 	bl	8009cb0 <HAL_GPIO_WritePin>
		HAL_Delay(1);
 800a8cc:	2001      	movs	r0, #1
 800a8ce:	f7fe fcef 	bl	80092b0 <HAL_Delay>
		HAL_GPIO_WritePin(FET1_GPIO_Port, FET1_Pin, GPIO_PIN_SET);
 800a8d2:	2201      	movs	r2, #1
 800a8d4:	2140      	movs	r1, #64	; 0x40
 800a8d6:	4819      	ldr	r0, [pc, #100]	; (800a93c <OS_Function+0x1d4>)
 800a8d8:	f7ff f9ea 	bl	8009cb0 <HAL_GPIO_WritePin>
		HAL_GPIO_WritePin(FET6_GPIO_Port, FET6_Pin, GPIO_PIN_SET);
 800a8dc:	2201      	movs	r2, #1
 800a8de:	2120      	movs	r1, #32
 800a8e0:	4816      	ldr	r0, [pc, #88]	; (800a93c <OS_Function+0x1d4>)
 800a8e2:	f7ff f9e5 	bl	8009cb0 <HAL_GPIO_WritePin>
		HAL_Delay(1);
 800a8e6:	2001      	movs	r0, #1
 800a8e8:	f7fe fce2 	bl	80092b0 <HAL_Delay>
	else if(value == SHORT) time = 60; //70
 800a8ec:	f04f 083c 	mov.w	r8, #60	; 0x3c
 800a8f0:	e74a      	b.n	800a788 <OS_Function+0x20>
		if(voltage > 3.0) R_value = 200;
 800a8f2:	ed9f 0a13 	vldr	s0, [pc, #76]	; 800a940 <OS_Function+0x1d8>
 800a8f6:	e79f      	b.n	800a838 <OS_Function+0xd0>
	float voltage = 0, R_value = 0;
 800a8f8:	ed9f 0a0e 	vldr	s0, [pc, #56]	; 800a934 <OS_Function+0x1cc>
 800a8fc:	e79c      	b.n	800a838 <OS_Function+0xd0>
		if(voltage > 3.185) R_value = 20000000;
 800a8fe:	ed9f 0a11 	vldr	s0, [pc, #68]	; 800a944 <OS_Function+0x1dc>
 800a902:	e799      	b.n	800a838 <OS_Function+0xd0>
 800a904:	f3af 8000 	nop.w
 800a908:	66666666 	.word	0x66666666
 800a90c:	400a6666 	.word	0x400a6666
 800a910:	66666666 	.word	0x66666666
 800a914:	3fe66666 	.word	0x3fe66666
 800a918:	47ae147b 	.word	0x47ae147b
 800a91c:	40097ae1 	.word	0x40097ae1
 800a920:	70a3d70a 	.word	0x70a3d70a
 800a924:	3fe70a3d 	.word	0x3fe70a3d
 800a928:	20001a84 	.word	0x20001a84
 800a92c:	457ff000 	.word	0x457ff000
 800a930:	40550000 	.word	0x40550000
 800a934:	00000000 	.word	0x00000000
 800a938:	48f42400 	.word	0x48f42400
 800a93c:	40020400 	.word	0x40020400
 800a940:	43480000 	.word	0x43480000
 800a944:	4b989680 	.word	0x4b989680

0800a948 <R_Function>:
{
 800a948:	e92d 4ff0 	stmdb	sp!, {r4, r5, r6, r7, r8, r9, sl, fp, lr}
 800a94c:	ed2d 8b02 	vpush	{d8}
		voltage = ((float)(adc_sum/time)/4095)*3.3;
 800a950:	f20f 291c 	addw	r9, pc, #540	; 0x21c
 800a954:	e9d9 8900 	ldrd	r8, r9, [r9]
			HAL_GPIO_WritePin(FET5_GPIO_Port, FET5_Pin, GPIO_PIN_SET); //20K OFF
 800a958:	4e87      	ldr	r6, [pc, #540]	; (800ab78 <R_Function+0x230>)
			HAL_GPIO_WritePin(FET2_GPIO_Port, FET2_Pin, GPIO_PIN_SET); //200 OFF
 800a95a:	f8df a224 	ldr.w	sl, [pc, #548]	; 800ab80 <R_Function+0x238>
{
 800a95e:	b083      	sub	sp, #12
	for(i=0; i<6; i++)
 800a960:	2400      	movs	r4, #0
		if(i==0)	//20ohm
 800a962:	2c00      	cmp	r4, #0
 800a964:	f040 80b2 	bne.w	800aacc <R_Function+0x184>
			HAL_GPIO_WritePin(FET6_GPIO_Port, FET6_Pin, GPIO_PIN_SET); //200K OFF
 800a968:	2201      	movs	r2, #1
 800a96a:	2120      	movs	r1, #32
 800a96c:	4630      	mov	r0, r6
 800a96e:	f7ff f99f 	bl	8009cb0 <HAL_GPIO_WritePin>
			HAL_GPIO_WritePin(FET1_GPIO_Port, FET1_Pin, GPIO_PIN_RESET); //20 ON
 800a972:	4622      	mov	r2, r4
 800a974:	2140      	movs	r1, #64	; 0x40
 800a976:	4630      	mov	r0, r6
 800a978:	f7ff f99a 	bl	8009cb0 <HAL_GPIO_WritePin>
			res = 20;
 800a97c:	2514      	movs	r5, #20
		HAL_Delay(1);
 800a97e:	2001      	movs	r0, #1
			HAL_ADC_Start(&hadc1);
 800a980:	f8df b220 	ldr.w	fp, [pc, #544]	; 800aba4 <R_Function+0x25c>
		HAL_Delay(1);
 800a984:	f7fe fc94 	bl	80092b0 <HAL_Delay>
 800a988:	2700      	movs	r7, #0
 800a98a:	2337      	movs	r3, #55	; 0x37
			HAL_ADC_Start(&hadc1);
 800a98c:	4658      	mov	r0, fp
 800a98e:	9301      	str	r3, [sp, #4]
 800a990:	f7fe fd48 	bl	8009424 <HAL_ADC_Start>
			HAL_ADC_PollForConversion(&hadc1, 500);
 800a994:	f44f 71fa 	mov.w	r1, #500	; 0x1f4
 800a998:	4658      	mov	r0, fp
 800a99a:	f7fe fdc1 	bl	8009520 <HAL_ADC_PollForConversion>
			adc_sum += HAL_ADC_GetValue(&hadc1);
 800a99e:	4658      	mov	r0, fp
 800a9a0:	f7fe fe0e 	bl	80095c0 <HAL_ADC_GetValue>
 800a9a4:	4407      	add	r7, r0
			HAL_ADC_Stop(&hadc1);
 800a9a6:	4658      	mov	r0, fp
 800a9a8:	f7fe fd9c 	bl	80094e4 <HAL_ADC_Stop>
		for(int j=0; j<time; j++)
 800a9ac:	9b01      	ldr	r3, [sp, #4]
 800a9ae:	3b01      	subs	r3, #1
 800a9b0:	d1ec      	bne.n	800a98c <R_Function+0x44>
		voltage = ((float)(adc_sum/time)/4095)*3.3;
 800a9b2:	2337      	movs	r3, #55	; 0x37
 800a9b4:	fbb7 f7f3 	udiv	r7, r7, r3
 800a9b8:	ee07 7a90 	vmov	s15, r7
 800a9bc:	ed9f 7a6f 	vldr	s14, [pc, #444]	; 800ab7c <R_Function+0x234>
 800a9c0:	eef8 7ae7 	vcvt.f32.s32	s15, s15
 800a9c4:	eec7 6a87 	vdiv.f32	s13, s15, s14
 800a9c8:	ee16 0a90 	vmov	r0, s13
 800a9cc:	f7fd fdc4 	bl	8008558 <__aeabi_f2d>
 800a9d0:	4642      	mov	r2, r8
 800a9d2:	464b      	mov	r3, r9
 800a9d4:	f7fd fe14 	bl	8008600 <__aeabi_dmul>
 800a9d8:	f7fe f8ea 	bl	8008bb0 <__aeabi_d2f>
 800a9dc:	ee08 0a10 	vmov	s16, r0
		if(voltage < 3.0)
 800a9e0:	eef0 7a08 	vmov.f32	s15, #8	; 0x40400000  3.0
 800a9e4:	eeb4 8ae7 	vcmpe.f32	s16, s15
 800a9e8:	eef1 fa10 	vmrs	APSR_nzcv, fpscr
 800a9ec:	d402      	bmi.n	800a9f4 <R_Function+0xac>
	for(i=0; i<6; i++)
 800a9ee:	3401      	adds	r4, #1
 800a9f0:	2c06      	cmp	r4, #6
 800a9f2:	d1b6      	bne.n	800a962 <R_Function+0x1a>
	HAL_GPIO_WritePin(FET1_GPIO_Port, FET1_Pin, GPIO_PIN_SET); //20 OFF
 800a9f4:	2201      	movs	r2, #1
 800a9f6:	2140      	movs	r1, #64	; 0x40
 800a9f8:	485f      	ldr	r0, [pc, #380]	; (800ab78 <R_Function+0x230>)
 800a9fa:	f7ff f959 	bl	8009cb0 <HAL_GPIO_WritePin>
	HAL_GPIO_WritePin(FET2_GPIO_Port, FET2_Pin, GPIO_PIN_SET); //200 OFF
 800a9fe:	2201      	movs	r2, #1
 800aa00:	2180      	movs	r1, #128	; 0x80
 800aa02:	485f      	ldr	r0, [pc, #380]	; (800ab80 <R_Function+0x238>)
 800aa04:	f7ff f954 	bl	8009cb0 <HAL_GPIO_WritePin>
	HAL_GPIO_WritePin(FET3_GPIO_Port, FET3_Pin, GPIO_PIN_SET); //2K OFF
 800aa08:	2201      	movs	r2, #1
 800aa0a:	f44f 7180 	mov.w	r1, #256	; 0x100
 800aa0e:	485d      	ldr	r0, [pc, #372]	; (800ab84 <R_Function+0x23c>)
 800aa10:	f7ff f94e 	bl	8009cb0 <HAL_GPIO_WritePin>
	HAL_GPIO_WritePin(FET4_GPIO_Port, FET4_Pin, GPIO_PIN_SET); //20K OFF
 800aa14:	2201      	movs	r2, #1
 800aa16:	f44f 6180 	mov.w	r1, #1024	; 0x400
 800aa1a:	4857      	ldr	r0, [pc, #348]	; (800ab78 <R_Function+0x230>)
 800aa1c:	f7ff f948 	bl	8009cb0 <HAL_GPIO_WritePin>
	HAL_GPIO_WritePin(FET5_GPIO_Port, FET5_Pin, GPIO_PIN_SET); //200K OFF
 800aa20:	2201      	movs	r2, #1
 800aa22:	2110      	movs	r1, #16
 800aa24:	4854      	ldr	r0, [pc, #336]	; (800ab78 <R_Function+0x230>)
 800aa26:	f7ff f943 	bl	8009cb0 <HAL_GPIO_WritePin>
	HAL_GPIO_WritePin(FET6_GPIO_Port, FET6_Pin, GPIO_PIN_SET); //500K OFF
 800aa2a:	2201      	movs	r2, #1
 800aa2c:	2120      	movs	r1, #32
 800aa2e:	4852      	ldr	r0, [pc, #328]	; (800ab78 <R_Function+0x230>)
 800aa30:	f7ff f93e 	bl	8009cb0 <HAL_GPIO_WritePin>
	if((i==5) && (voltage >= 3.185)) R_value = 20000000;
 800aa34:	2c05      	cmp	r4, #5
 800aa36:	d10b      	bne.n	800aa50 <R_Function+0x108>
 800aa38:	ee18 0a10 	vmov	r0, s16
 800aa3c:	f7fd fd8c 	bl	8008558 <__aeabi_f2d>
 800aa40:	a349      	add	r3, pc, #292	; (adr r3, 800ab68 <R_Function+0x220>)
 800aa42:	e9d3 2300 	ldrd	r2, r3, [r3]
 800aa46:	f7fe f861 	bl	8008b0c <__aeabi_dcmpge>
 800aa4a:	2800      	cmp	r0, #0
 800aa4c:	f040 8089 	bne.w	800ab62 <R_Function+0x21a>
	else R_value = (((voltage * res)/(3.3-voltage))-80); //20
 800aa50:	ee07 5a90 	vmov	s15, r5
 800aa54:	eef8 7ae7 	vcvt.f32.s32	s15, s15
 800aa58:	ee67 7a88 	vmul.f32	s15, s15, s16
 800aa5c:	ee17 0a90 	vmov	r0, s15
 800aa60:	f7fd fd7a 	bl	8008558 <__aeabi_f2d>
 800aa64:	4604      	mov	r4, r0
 800aa66:	ee18 0a10 	vmov	r0, s16
 800aa6a:	460d      	mov	r5, r1
 800aa6c:	f7fd fd74 	bl	8008558 <__aeabi_f2d>
 800aa70:	4602      	mov	r2, r0
 800aa72:	460b      	mov	r3, r1
 800aa74:	a13e      	add	r1, pc, #248	; (adr r1, 800ab70 <R_Function+0x228>)
 800aa76:	e9d1 0100 	ldrd	r0, r1, [r1]
 800aa7a:	f7fd fc0d 	bl	8008298 <__aeabi_dsub>
 800aa7e:	4602      	mov	r2, r0
 800aa80:	460b      	mov	r3, r1
 800aa82:	4620      	mov	r0, r4
 800aa84:	4629      	mov	r1, r5
 800aa86:	f7fd fee5 	bl	8008854 <__aeabi_ddiv>
 800aa8a:	2200      	movs	r2, #0
 800aa8c:	4b3e      	ldr	r3, [pc, #248]	; (800ab88 <R_Function+0x240>)
 800aa8e:	f7fd fc03 	bl	8008298 <__aeabi_dsub>
 800aa92:	f7fe f88d 	bl	8008bb0 <__aeabi_d2f>
	if(R_value>10000000)
 800aa96:	ed9f 7a3d 	vldr	s14, [pc, #244]	; 800ab8c <R_Function+0x244>
	else R_value = (((voltage * res)/(3.3-voltage))-80); //20
 800aa9a:	ee07 0a90 	vmov	s15, r0
	if(R_value>10000000)
 800aa9e:	eef4 7ac7 	vcmpe.f32	s15, s14
 800aaa2:	eef1 fa10 	vmrs	APSR_nzcv, fpscr
 800aaa6:	dd03      	ble.n	800aab0 <R_Function+0x168>
		R_value = R_value-2000000;
 800aaa8:	ed9f 7a39 	vldr	s14, [pc, #228]	; 800ab90 <R_Function+0x248>
 800aaac:	ee77 7ac7 	vsub.f32	s15, s15, s14
	if(R_value < 0) R_value = 0;
 800aab0:	eef5 7a40 	vcmp.f32	s15, #0.0
}
 800aab4:	ed9f 0a37 	vldr	s0, [pc, #220]	; 800ab94 <R_Function+0x24c>
	if(R_value < 0) R_value = 0;
 800aab8:	eef1 fa10 	vmrs	APSR_nzcv, fpscr
}
 800aabc:	bf58      	it	pl
 800aabe:	eeb0 0a67 	vmovpl.f32	s0, s15
 800aac2:	b003      	add	sp, #12
 800aac4:	ecbd 8b02 	vpop	{d8}
 800aac8:	e8bd 8ff0 	ldmia.w	sp!, {r4, r5, r6, r7, r8, r9, sl, fp, pc}
		else if(i==1)	//200ohm
 800aacc:	2c01      	cmp	r4, #1
 800aace:	d10b      	bne.n	800aae8 <R_Function+0x1a0>
			HAL_GPIO_WritePin(FET1_GPIO_Port, FET1_Pin, GPIO_PIN_SET); //20 OFF
 800aad0:	4622      	mov	r2, r4
 800aad2:	2140      	movs	r1, #64	; 0x40
 800aad4:	4630      	mov	r0, r6
 800aad6:	f7ff f8eb 	bl	8009cb0 <HAL_GPIO_WritePin>
			HAL_GPIO_WritePin(FET2_GPIO_Port, FET2_Pin, GPIO_PIN_RESET); //200 ON
 800aada:	2200      	movs	r2, #0
 800aadc:	2180      	movs	r1, #128	; 0x80
 800aade:	4650      	mov	r0, sl
 800aae0:	f7ff f8e6 	bl	8009cb0 <HAL_GPIO_WritePin>
			res = 200;
 800aae4:	25c8      	movs	r5, #200	; 0xc8
 800aae6:	e74a      	b.n	800a97e <R_Function+0x36>
		else if(i==2)	//2Kohm
 800aae8:	2c02      	cmp	r4, #2
			HAL_GPIO_WritePin(FET2_GPIO_Port, FET2_Pin, GPIO_PIN_SET); //200 OFF
 800aaea:	f04f 0201 	mov.w	r2, #1
		else if(i==2)	//2Kohm
 800aaee:	d10c      	bne.n	800ab0a <R_Function+0x1c2>
			HAL_GPIO_WritePin(FET2_GPIO_Port, FET2_Pin, GPIO_PIN_SET); //200 OFF
 800aaf0:	2180      	movs	r1, #128	; 0x80
 800aaf2:	4650      	mov	r0, sl
 800aaf4:	f7ff f8dc 	bl	8009cb0 <HAL_GPIO_WritePin>
			HAL_GPIO_WritePin(FET3_GPIO_Port, FET3_Pin, GPIO_PIN_RESET); //2K ON
 800aaf8:	2200      	movs	r2, #0
 800aafa:	f44f 7180 	mov.w	r1, #256	; 0x100
 800aafe:	4821      	ldr	r0, [pc, #132]	; (800ab84 <R_Function+0x23c>)
 800ab00:	f7ff f8d6 	bl	8009cb0 <HAL_GPIO_WritePin>
			res = 2000;
 800ab04:	f44f 65fa 	mov.w	r5, #2000	; 0x7d0
 800ab08:	e739      	b.n	800a97e <R_Function+0x36>
		else if(i==3)	//20Kohm
 800ab0a:	2c03      	cmp	r4, #3
 800ab0c:	d10d      	bne.n	800ab2a <R_Function+0x1e2>
			HAL_GPIO_WritePin(FET3_GPIO_Port, FET3_Pin, GPIO_PIN_SET); //2K OFF
 800ab0e:	f44f 7180 	mov.w	r1, #256	; 0x100
 800ab12:	481c      	ldr	r0, [pc, #112]	; (800ab84 <R_Function+0x23c>)
 800ab14:	f7ff f8cc 	bl	8009cb0 <HAL_GPIO_WritePin>
			HAL_GPIO_WritePin(FET4_GPIO_Port, FET4_Pin, GPIO_PIN_RESET); //20K ON
 800ab18:	2200      	movs	r2, #0
 800ab1a:	f44f 6180 	mov.w	r1, #1024	; 0x400
 800ab1e:	4630      	mov	r0, r6
 800ab20:	f7ff f8c6 	bl	8009cb0 <HAL_GPIO_WritePin>
			res = 20000;
 800ab24:	f644 6520 	movw	r5, #20000	; 0x4e20
 800ab28:	e729      	b.n	800a97e <R_Function+0x36>
		else if(i==4)	//200Kohm
 800ab2a:	2c04      	cmp	r4, #4
 800ab2c:	d10b      	bne.n	800ab46 <R_Function+0x1fe>
			HAL_GPIO_WritePin(FET4_GPIO_Port, FET4_Pin, GPIO_PIN_SET); //20K OFF
 800ab2e:	f44f 6180 	mov.w	r1, #1024	; 0x400
 800ab32:	4630      	mov	r0, r6
 800ab34:	f7ff f8bc 	bl	8009cb0 <HAL_GPIO_WritePin>
			HAL_GPIO_WritePin(FET5_GPIO_Port, FET5_Pin, GPIO_PIN_RESET); //200K ON
 800ab38:	2200      	movs	r2, #0
 800ab3a:	2110      	movs	r1, #16
 800ab3c:	4630      	mov	r0, r6
 800ab3e:	f7ff f8b7 	bl	8009cb0 <HAL_GPIO_WritePin>
			res = 200000;
 800ab42:	4d15      	ldr	r5, [pc, #84]	; (800ab98 <R_Function+0x250>)
 800ab44:	e71b      	b.n	800a97e <R_Function+0x36>
			HAL_GPIO_WritePin(FET5_GPIO_Port, FET5_Pin, GPIO_PIN_SET); //20K OFF
 800ab46:	2110      	movs	r1, #16
 800ab48:	4630      	mov	r0, r6
 800ab4a:	f7ff f8b1 	bl	8009cb0 <HAL_GPIO_WritePin>
			HAL_GPIO_WritePin(FET6_GPIO_Port, FET6_Pin, GPIO_PIN_RESET); //500K ON
 800ab4e:	2200      	movs	r2, #0
 800ab50:	2120      	movs	r1, #32
 800ab52:	4630      	mov	r0, r6
 800ab54:	f7ff f8ac 	bl	8009cb0 <HAL_GPIO_WritePin>
			HAL_Delay(1);
 800ab58:	2001      	movs	r0, #1
 800ab5a:	f7fe fba9 	bl	80092b0 <HAL_Delay>
			res = 500000;
 800ab5e:	4d0f      	ldr	r5, [pc, #60]	; (800ab9c <R_Function+0x254>)
 800ab60:	e70d      	b.n	800a97e <R_Function+0x36>
	if((i==5) && (voltage >= 3.185)) R_value = 20000000;
 800ab62:	eddf 7a0f 	vldr	s15, [pc, #60]	; 800aba0 <R_Function+0x258>
 800ab66:	e79f      	b.n	800aaa8 <R_Function+0x160>
 800ab68:	47ae147b 	.word	0x47ae147b
 800ab6c:	40097ae1 	.word	0x40097ae1
 800ab70:	66666666 	.word	0x66666666
 800ab74:	400a6666 	.word	0x400a6666
 800ab78:	40020400 	.word	0x40020400
 800ab7c:	457ff000 	.word	0x457ff000
 800ab80:	40020800 	.word	0x40020800
 800ab84:	40020000 	.word	0x40020000
 800ab88:	40540000 	.word	0x40540000
 800ab8c:	4b189680 	.word	0x4b189680
 800ab90:	49f42400 	.word	0x49f42400
 800ab94:	00000000 	.word	0x00000000
 800ab98:	00030d40 	.word	0x00030d40
 800ab9c:	0007a120 	.word	0x0007a120
 800aba0:	4b989680 	.word	0x4b989680
 800aba4:	20001a84 	.word	0x20001a84

0800aba8 <Fet_spec.part.0>:

static void Fet_spec(uint8_t fet, uint8_t status){
 800aba8:	b510      	push	{r4, lr}
	if(fet==2){
		if(status == FET_ON){
			HAL_GPIO_WritePin(FET1_GPIO_Port, FET1_Pin, GPIO_PIN_SET); //20 Ohm FET OFF
 800abaa:	4c09      	ldr	r4, [pc, #36]	; (800abd0 <Fet_spec.part.0+0x28>)
 800abac:	2201      	movs	r2, #1
 800abae:	2140      	movs	r1, #64	; 0x40
 800abb0:	4620      	mov	r0, r4
 800abb2:	f7ff f87d 	bl	8009cb0 <HAL_GPIO_WritePin>
			HAL_Delay(1);
 800abb6:	2001      	movs	r0, #1
 800abb8:	f7fe fb7a 	bl	80092b0 <HAL_Delay>
			HAL_GPIO_WritePin(FET6_GPIO_Port,FET6_Pin, GPIO_PIN_RESET); //200K FET ON
 800abbc:	4620      	mov	r0, r4
 800abbe:	2200      	movs	r2, #0
 800abc0:	2120      	movs	r1, #32
 800abc2:	f7ff f875 	bl	8009cb0 <HAL_GPIO_WritePin>
			HAL_Delay(1);
 800abc6:	2001      	movs	r0, #1
		}
		else if(status == FET_OFF){
			HAL_GPIO_WritePin(FET6_GPIO_Port, FET6_Pin, GPIO_PIN_SET);  //200K FET OFF
		}
	}
}
 800abc8:	e8bd 4010 	ldmia.w	sp!, {r4, lr}
			HAL_Delay(1);
 800abcc:	f7fe bb70 	b.w	80092b0 <HAL_Delay>
 800abd0:	40020400 	.word	0x40020400

0800abd4 <Fet_spec>:
	if(fet==2){
 800abd4:	2802      	cmp	r0, #2
static void Fet_spec(uint8_t fet, uint8_t status){
 800abd6:	b510      	push	{r4, lr}
 800abd8:	4602      	mov	r2, r0
 800abda:	460c      	mov	r4, r1
	if(fet==2){
 800abdc:	d118      	bne.n	800ac10 <Fet_spec+0x3c>
		if(status == FET_ON){
 800abde:	2901      	cmp	r1, #1
 800abe0:	d103      	bne.n	800abea <Fet_spec+0x16>
}
 800abe2:	e8bd 4010 	ldmia.w	sp!, {r4, lr}
 800abe6:	f7ff bfdf 	b.w	800aba8 <Fet_spec.part.0>
		else if(status == FET_OFF){
 800abea:	b9f1      	cbnz	r1, 800ac2a <Fet_spec+0x56>
			HAL_GPIO_WritePin(FET6_GPIO_Port, FET6_Pin, GPIO_PIN_SET); //200K OFF
 800abec:	2201      	movs	r2, #1
 800abee:	2120      	movs	r1, #32
 800abf0:	480e      	ldr	r0, [pc, #56]	; (800ac2c <Fet_spec+0x58>)
 800abf2:	f7ff f85d 	bl	8009cb0 <HAL_GPIO_WritePin>
			HAL_Delay(1);
 800abf6:	2001      	movs	r0, #1
 800abf8:	f7fe fb5a 	bl	80092b0 <HAL_Delay>
			HAL_GPIO_WritePin(FET1_GPIO_Port, FET1_Pin, GPIO_PIN_RESET); //20 ON
 800abfc:	4622      	mov	r2, r4
 800abfe:	480b      	ldr	r0, [pc, #44]	; (800ac2c <Fet_spec+0x58>)
 800ac00:	2140      	movs	r1, #64	; 0x40
 800ac02:	f7ff f855 	bl	8009cb0 <HAL_GPIO_WritePin>
			HAL_Delay(1);
 800ac06:	2001      	movs	r0, #1
}
 800ac08:	e8bd 4010 	ldmia.w	sp!, {r4, lr}
			HAL_Delay(1);
 800ac0c:	f7fe bb50 	b.w	80092b0 <HAL_Delay>
	else if(fet==1){
 800ac10:	2801      	cmp	r0, #1
 800ac12:	d10a      	bne.n	800ac2a <Fet_spec+0x56>
		if(status == FET_ON){
 800ac14:	2901      	cmp	r1, #1
 800ac16:	d106      	bne.n	800ac26 <Fet_spec+0x52>
			HAL_GPIO_WritePin(FET6_GPIO_Port,FET6_Pin, GPIO_PIN_RESET); //200K FET ON
 800ac18:	2200      	movs	r2, #0
			HAL_GPIO_WritePin(FET6_GPIO_Port, FET6_Pin, GPIO_PIN_SET);  //200K FET OFF
 800ac1a:	2120      	movs	r1, #32
 800ac1c:	4803      	ldr	r0, [pc, #12]	; (800ac2c <Fet_spec+0x58>)
}
 800ac1e:	e8bd 4010 	ldmia.w	sp!, {r4, lr}
			HAL_GPIO_WritePin(FET6_GPIO_Port, FET6_Pin, GPIO_PIN_SET);  //200K FET OFF
 800ac22:	f7ff b845 	b.w	8009cb0 <HAL_GPIO_WritePin>
		else if(status == FET_OFF){
 800ac26:	2900      	cmp	r1, #0
 800ac28:	d0f7      	beq.n	800ac1a <Fet_spec+0x46>
 800ac2a:	bd10      	pop	{r4, pc}
 800ac2c:	40020400 	.word	0x40020400

0800ac30 <SystemClock_Config>:
{
 800ac30:	b530      	push	{r4, r5, lr}
 800ac32:	b095      	sub	sp, #84	; 0x54
  RCC_OscInitTypeDef RCC_OscInitStruct = {0};
 800ac34:	2230      	movs	r2, #48	; 0x30
 800ac36:	2100      	movs	r1, #0
 800ac38:	a808      	add	r0, sp, #32
 800ac3a:	f003 ff01 	bl	800ea40 <memset>
  RCC_ClkInitTypeDef RCC_ClkInitStruct = {0};
 800ac3e:	2100      	movs	r1, #0
 800ac40:	2214      	movs	r2, #20
 800ac42:	a803      	add	r0, sp, #12
 800ac44:	f003 fefc 	bl	800ea40 <memset>
  __HAL_RCC_PWR_CLK_ENABLE();
 800ac48:	2500      	movs	r5, #0
 800ac4a:	4b1c      	ldr	r3, [pc, #112]	; (800acbc <SystemClock_Config+0x8c>)
 800ac4c:	9501      	str	r5, [sp, #4]
 800ac4e:	6c1a      	ldr	r2, [r3, #64]	; 0x40
 800ac50:	f042 5280 	orr.w	r2, r2, #268435456	; 0x10000000
 800ac54:	641a      	str	r2, [r3, #64]	; 0x40
 800ac56:	6c1b      	ldr	r3, [r3, #64]	; 0x40
 800ac58:	f003 5380 	and.w	r3, r3, #268435456	; 0x10000000
 800ac5c:	9301      	str	r3, [sp, #4]
 800ac5e:	9b01      	ldr	r3, [sp, #4]
  __HAL_PWR_VOLTAGESCALING_CONFIG(PWR_REGULATOR_VOLTAGE_SCALE1);
 800ac60:	4b17      	ldr	r3, [pc, #92]	; (800acc0 <SystemClock_Config+0x90>)
 800ac62:	9502      	str	r5, [sp, #8]
 800ac64:	681a      	ldr	r2, [r3, #0]
 800ac66:	f442 4240 	orr.w	r2, r2, #49152	; 0xc000
 800ac6a:	601a      	str	r2, [r3, #0]
 800ac6c:	681b      	ldr	r3, [r3, #0]
 800ac6e:	f403 4340 	and.w	r3, r3, #49152	; 0xc000
 800ac72:	9302      	str	r3, [sp, #8]
 800ac74:	9b02      	ldr	r3, [sp, #8]
  RCC_OscInitStruct.OscillatorType = RCC_OSCILLATORTYPE_HSE;
 800ac76:	2301      	movs	r3, #1
 800ac78:	9308      	str	r3, [sp, #32]
  RCC_OscInitStruct.HSEState = RCC_HSE_BYPASS;
 800ac7a:	f44f 23a0 	mov.w	r3, #327680	; 0x50000
 800ac7e:	9309      	str	r3, [sp, #36]	; 0x24
  RCC_OscInitStruct.PLL.PLLSource = RCC_PLLSOURCE_HSE;
 800ac80:	f44f 0380 	mov.w	r3, #4194304	; 0x400000
 800ac84:	930f      	str	r3, [sp, #60]	; 0x3c
  RCC_OscInitStruct.PLL.PLLM = 4;
 800ac86:	2304      	movs	r3, #4
 800ac88:	9310      	str	r3, [sp, #64]	; 0x40
  RCC_OscInitStruct.PLL.PLLN = 72;
 800ac8a:	2348      	movs	r3, #72	; 0x48
  RCC_OscInitStruct.PLL.PLLState = RCC_PLL_ON;
 800ac8c:	2402      	movs	r4, #2
  RCC_OscInitStruct.PLL.PLLN = 72;
 800ac8e:	9311      	str	r3, [sp, #68]	; 0x44
  if (HAL_RCC_OscConfig(&RCC_OscInitStruct) != HAL_OK)
 800ac90:	a808      	add	r0, sp, #32
  RCC_OscInitStruct.PLL.PLLQ = 3;
 800ac92:	2303      	movs	r3, #3
 800ac94:	9313      	str	r3, [sp, #76]	; 0x4c
  RCC_OscInitStruct.PLL.PLLState = RCC_PLL_ON;
 800ac96:	940e      	str	r4, [sp, #56]	; 0x38
  RCC_OscInitStruct.PLL.PLLP = RCC_PLLP_DIV2;
 800ac98:	9412      	str	r4, [sp, #72]	; 0x48
  if (HAL_RCC_OscConfig(&RCC_OscInitStruct) != HAL_OK)
 800ac9a:	f7ff f81b 	bl	8009cd4 <HAL_RCC_OscConfig>
  RCC_ClkInitStruct.ClockType = RCC_CLOCKTYPE_HCLK|RCC_CLOCKTYPE_SYSCLK
 800ac9e:	230f      	movs	r3, #15
 800aca0:	9303      	str	r3, [sp, #12]
  if (HAL_RCC_ClockConfig(&RCC_ClkInitStruct, FLASH_LATENCY_2) != HAL_OK)
 800aca2:	4621      	mov	r1, r4
  RCC_ClkInitStruct.APB1CLKDivider = RCC_HCLK_DIV2;
 800aca4:	f44f 5380 	mov.w	r3, #4096	; 0x1000
  if (HAL_RCC_ClockConfig(&RCC_ClkInitStruct, FLASH_LATENCY_2) != HAL_OK)
 800aca8:	a803      	add	r0, sp, #12
  RCC_ClkInitStruct.SYSCLKSource = RCC_SYSCLKSOURCE_PLLCLK;
 800acaa:	9404      	str	r4, [sp, #16]
  RCC_ClkInitStruct.AHBCLKDivider = RCC_SYSCLK_DIV1;
 800acac:	9505      	str	r5, [sp, #20]
  RCC_ClkInitStruct.APB1CLKDivider = RCC_HCLK_DIV2;
 800acae:	9306      	str	r3, [sp, #24]
  RCC_ClkInitStruct.APB2CLKDivider = RCC_HCLK_DIV1;
 800acb0:	9507      	str	r5, [sp, #28]
  if (HAL_RCC_ClockConfig(&RCC_ClkInitStruct, FLASH_LATENCY_2) != HAL_OK)
 800acb2:	f7ff f9bf 	bl	800a034 <HAL_RCC_ClockConfig>
}
 800acb6:	b015      	add	sp, #84	; 0x54
 800acb8:	bd30      	pop	{r4, r5, pc}
 800acba:	bf00      	nop
 800acbc:	40023800 	.word	0x40023800
 800acc0:	40007000 	.word	0x40007000

0800acc4 <_write>:
{
 800acc4:	b573      	push	{r0, r1, r4, r5, r6, lr}
	if(*ptr == '\n')
 800acc6:	780b      	ldrb	r3, [r1, #0]
 800acc8:	2b0a      	cmp	r3, #10
{
 800acca:	460c      	mov	r4, r1
 800accc:	4615      	mov	r5, r2
	if(*ptr == '\n')
 800acce:	d109      	bne.n	800ace4 <_write+0x20>
		uint8_t ch_temp = '\r';
 800acd0:	a902      	add	r1, sp, #8
 800acd2:	230d      	movs	r3, #13
 800acd4:	f801 3d01 	strb.w	r3, [r1, #-1]!
		HAL_UART_Transmit(&huart2, &ch_temp, 1, 0xFFFF);
 800acd8:	2201      	movs	r2, #1
 800acda:	f64f 73ff 	movw	r3, #65535	; 0xffff
 800acde:	480d      	ldr	r0, [pc, #52]	; (800ad14 <_write+0x50>)
 800ace0:	f7ff fbe0 	bl	800a4a4 <HAL_UART_Transmit>
	HAL_UART_Transmit(&huart2, (uint8_t*)ptr, len, 0xFFFF);
 800ace4:	f64f 73ff 	movw	r3, #65535	; 0xffff
 800ace8:	b2aa      	uxth	r2, r5
 800acea:	4621      	mov	r1, r4
 800acec:	4809      	ldr	r0, [pc, #36]	; (800ad14 <_write+0x50>)
 800acee:	f7ff fbd9 	bl	800a4a4 <HAL_UART_Transmit>
	if(page4_state == pba_true)
 800acf2:	4b09      	ldr	r3, [pc, #36]	; (800ad18 <_write+0x54>)
 800acf4:	781b      	ldrb	r3, [r3, #0]
 800acf6:	2b01      	cmp	r3, #1
 800acf8:	d103      	bne.n	800ad02 <_write+0x3e>
 800acfa:	4626      	mov	r6, r4
		for (DataIdx = 0; DataIdx < len; DataIdx++)
 800acfc:	1b33      	subs	r3, r6, r4
 800acfe:	429d      	cmp	r5, r3
 800ad00:	dc02      	bgt.n	800ad08 <_write+0x44>
}
 800ad02:	4628      	mov	r0, r5
 800ad04:	b002      	add	sp, #8
 800ad06:	bd70      	pop	{r4, r5, r6, pc}
			__io_putchar(*ptr++);
 800ad08:	f816 0b01 	ldrb.w	r0, [r6], #1
 800ad0c:	f003 fcda 	bl	800e6c4 <__io_putchar>
 800ad10:	e7f4      	b.n	800acfc <_write+0x38>
 800ad12:	bf00      	nop
 800ad14:	20001b94 	.word	0x20001b94
 800ad18:	200017e0 	.word	0x200017e0

0800ad1c <Debug_serial>:
{
 800ad1c:	b510      	push	{r4, lr}
 800ad1e:	4604      	mov	r4, r0
	uint8_t num = strlen(buff);
 800ad20:	f7fd fa5e 	bl	80081e0 <strlen>
	HAL_UART_Transmit(&huart2, (uint8_t*)buff, num, 0xFFFFFFFF);
 800ad24:	4621      	mov	r1, r4
 800ad26:	b2c2      	uxtb	r2, r0
 800ad28:	f04f 33ff 	mov.w	r3, #4294967295
 800ad2c:	4802      	ldr	r0, [pc, #8]	; (800ad38 <Debug_serial+0x1c>)
}
 800ad2e:	e8bd 4010 	ldmia.w	sp!, {r4, lr}
	HAL_UART_Transmit(&huart2, (uint8_t*)buff, num, 0xFFFFFFFF);
 800ad32:	f7ff bbb7 	b.w	800a4a4 <HAL_UART_Transmit>
 800ad36:	bf00      	nop
 800ad38:	20001b94 	.word	0x20001b94

0800ad3c <TFT_Serial>:
{
 800ad3c:	b573      	push	{r0, r1, r4, r5, r6, lr}
	char END_FILE[3] = {0xFF, 0xFF, 0xFF};
 800ad3e:	4b11      	ldr	r3, [pc, #68]	; (800ad84 <TFT_Serial+0x48>)
	strcpy((char*)g_buff, (char*)string);
 800ad40:	4c11      	ldr	r4, [pc, #68]	; (800ad88 <TFT_Serial+0x4c>)
	char END_FILE[3] = {0xFF, 0xFF, 0xFF};
 800ad42:	881a      	ldrh	r2, [r3, #0]
 800ad44:	789b      	ldrb	r3, [r3, #2]
 800ad46:	f8ad 2004 	strh.w	r2, [sp, #4]
 800ad4a:	f88d 3006 	strb.w	r3, [sp, #6]
{
 800ad4e:	4606      	mov	r6, r0
	uint8_t size = strlen((char*)string);
 800ad50:	f7fd fa46 	bl	80081e0 <strlen>
	strcpy((char*)g_buff, (char*)string);
 800ad54:	4631      	mov	r1, r6
	uint8_t size = strlen((char*)string);
 800ad56:	4605      	mov	r5, r0
	strcpy((char*)g_buff, (char*)string);
 800ad58:	4620      	mov	r0, r4
 800ad5a:	f004 fc4a 	bl	800f5f2 <strcpy>
	strcat((char*)g_buff, END_FILE);
 800ad5e:	a901      	add	r1, sp, #4
 800ad60:	4620      	mov	r0, r4
 800ad62:	f004 fc37 	bl	800f5d4 <strcat>
	HAL_UART_Transmit(&huart1, g_buff, size+3, 0xFFFF);
 800ad66:	b2ea      	uxtb	r2, r5
 800ad68:	f64f 73ff 	movw	r3, #65535	; 0xffff
 800ad6c:	3203      	adds	r2, #3
 800ad6e:	4621      	mov	r1, r4
 800ad70:	4806      	ldr	r0, [pc, #24]	; (800ad8c <TFT_Serial+0x50>)
 800ad72:	f7ff fb97 	bl	800a4a4 <HAL_UART_Transmit>
	HAL_Delay(5); //
 800ad76:	2005      	movs	r0, #5
}
 800ad78:	b002      	add	sp, #8
 800ad7a:	e8bd 4070 	ldmia.w	sp!, {r4, r5, r6, lr}
	HAL_Delay(5); //
 800ad7e:	f7fe ba97 	b.w	80092b0 <HAL_Delay>
 800ad82:	bf00      	nop
 800ad84:	080116d8 	.word	0x080116d8
 800ad88:	200019b4 	.word	0x200019b4
 800ad8c:	20001b34 	.word	0x20001b34

0800ad90 <Beep>:
{
 800ad90:	b5f8      	push	{r3, r4, r5, r6, r7, lr}
		HAL_GPIO_WritePin(BUZZER_GPIO_Port, BUZZER_Pin, GPIO_PIN_SET);
 800ad92:	4e0d      	ldr	r6, [pc, #52]	; (800adc8 <Beep+0x38>)
{
 800ad94:	4607      	mov	r7, r0
 800ad96:	460d      	mov	r5, r1
	for(int i=0; i<count; i++)
 800ad98:	2400      	movs	r4, #0
 800ad9a:	42bc      	cmp	r4, r7
 800ad9c:	db00      	blt.n	800ada0 <Beep+0x10>
}
 800ad9e:	bdf8      	pop	{r3, r4, r5, r6, r7, pc}
		HAL_GPIO_WritePin(BUZZER_GPIO_Port, BUZZER_Pin, GPIO_PIN_SET);
 800ada0:	2201      	movs	r2, #1
 800ada2:	f44f 7100 	mov.w	r1, #512	; 0x200
 800ada6:	4630      	mov	r0, r6
 800ada8:	f7fe ff82 	bl	8009cb0 <HAL_GPIO_WritePin>
		HAL_Delay(delay);
 800adac:	4628      	mov	r0, r5
 800adae:	f7fe fa7f 	bl	80092b0 <HAL_Delay>
		HAL_GPIO_WritePin(BUZZER_GPIO_Port, BUZZER_Pin, GPIO_PIN_RESET);
 800adb2:	2200      	movs	r2, #0
 800adb4:	f44f 7100 	mov.w	r1, #512	; 0x200
 800adb8:	4630      	mov	r0, r6
 800adba:	f7fe ff79 	bl	8009cb0 <HAL_GPIO_WritePin>
		HAL_Delay(delay);
 800adbe:	4628      	mov	r0, r5
 800adc0:	f7fe fa76 	bl	80092b0 <HAL_Delay>
	for(int i=0; i<count; i++)
 800adc4:	3401      	adds	r4, #1
 800adc6:	e7e8      	b.n	800ad9a <Beep+0xa>
 800adc8:	40020800 	.word	0x40020800

0800adcc <Result_Display>:
{
 800adcc:	b538      	push	{r3, r4, r5, lr}
 800adce:	4605      	mov	r5, r0
	BSP_LCD_Clear(BLACK);
 800add0:	2005      	movs	r0, #5
{
 800add2:	460c      	mov	r4, r1
	BSP_LCD_Clear(BLACK);
 800add4:	f7fe f932 	bl	800903c <BSP_LCD_Clear>
	if(result_in == pba_true)
 800add8:	2d01      	cmp	r5, #1
 800adda:	d11f      	bne.n	800ae1c <Result_Display+0x50>
		sprintf((char*)g_buff,"xstr 20,61,300,80,5,GREEN,BLACK,0,0,1,\"IN :OK\"");
 800addc:	4922      	ldr	r1, [pc, #136]	; (800ae68 <Result_Display+0x9c>)
 800adde:	4823      	ldr	r0, [pc, #140]	; (800ae6c <Result_Display+0xa0>)
 800ade0:	f004 fc07 	bl	800f5f2 <strcpy>
		TFT_Serial(g_buff);
 800ade4:	4821      	ldr	r0, [pc, #132]	; (800ae6c <Result_Display+0xa0>)
 800ade6:	f7ff ffa9 	bl	800ad3c <TFT_Serial>
		sprintf((char*)g_buff,"xstr 380,70,95,50,2,GREEN,BLACK,1,1,1,\"OK\"");
 800adea:	4921      	ldr	r1, [pc, #132]	; (800ae70 <Result_Display+0xa4>)
		sprintf((char*)g_buff,"xstr 380,70,95,50,2,WHITE,BLACK,1,1,1,\"-\"");
 800adec:	481f      	ldr	r0, [pc, #124]	; (800ae6c <Result_Display+0xa0>)
 800adee:	f004 fc00 	bl	800f5f2 <strcpy>
		TFT_Serial(g_buff);
 800adf2:	481e      	ldr	r0, [pc, #120]	; (800ae6c <Result_Display+0xa0>)
 800adf4:	f7ff ffa2 	bl	800ad3c <TFT_Serial>
	if(result_out == pba_true)
 800adf8:	2c01      	cmp	r4, #1
 800adfa:	d122      	bne.n	800ae42 <Result_Display+0x76>
		sprintf((char*)g_buff,"xstr 20,161,300,80,5,GREEN,BLACK,0,0,1,\"OUT:OK\"");
 800adfc:	491d      	ldr	r1, [pc, #116]	; (800ae74 <Result_Display+0xa8>)
 800adfe:	481b      	ldr	r0, [pc, #108]	; (800ae6c <Result_Display+0xa0>)
 800ae00:	f004 fbf7 	bl	800f5f2 <strcpy>
		TFT_Serial(g_buff);
 800ae04:	4819      	ldr	r0, [pc, #100]	; (800ae6c <Result_Display+0xa0>)
 800ae06:	f7ff ff99 	bl	800ad3c <TFT_Serial>
		sprintf((char*)g_buff,"xstr 380,134,95,50,2,GREEN,BLACK,1,1,1,\"OK\"");
 800ae0a:	491b      	ldr	r1, [pc, #108]	; (800ae78 <Result_Display+0xac>)
		sprintf((char*)g_buff,"xstr 380,134,95,50,2,WHITE,BLACK,1,1,1,\"-\"");
 800ae0c:	4817      	ldr	r0, [pc, #92]	; (800ae6c <Result_Display+0xa0>)
 800ae0e:	f004 fbf0 	bl	800f5f2 <strcpy>
		TFT_Serial(g_buff);
 800ae12:	4816      	ldr	r0, [pc, #88]	; (800ae6c <Result_Display+0xa0>)
}
 800ae14:	e8bd 4038 	ldmia.w	sp!, {r3, r4, r5, lr}
		TFT_Serial(g_buff);
 800ae18:	f7ff bf90 	b.w	800ad3c <TFT_Serial>
	else if(result_in == pba_false)
 800ae1c:	b945      	cbnz	r5, 800ae30 <Result_Display+0x64>
		sprintf((char*)g_buff,"xstr 20,61,300,80,5,RED,BLACK,0,0,1,\"IN :NG\"");
 800ae1e:	4917      	ldr	r1, [pc, #92]	; (800ae7c <Result_Display+0xb0>)
 800ae20:	4812      	ldr	r0, [pc, #72]	; (800ae6c <Result_Display+0xa0>)
 800ae22:	f004 fbe6 	bl	800f5f2 <strcpy>
		TFT_Serial(g_buff);
 800ae26:	4811      	ldr	r0, [pc, #68]	; (800ae6c <Result_Display+0xa0>)
 800ae28:	f7ff ff88 	bl	800ad3c <TFT_Serial>
		sprintf((char*)g_buff,"xstr 380,70,95,50,2,RED,BLACK,1,1,1,\"NG\"");
 800ae2c:	4914      	ldr	r1, [pc, #80]	; (800ae80 <Result_Display+0xb4>)
 800ae2e:	e7dd      	b.n	800adec <Result_Display+0x20>
		sprintf((char*)g_buff,"xstr 20,61,300,80,5,WHITE,BLACK,0,0,1,\"IN :-\"");
 800ae30:	4914      	ldr	r1, [pc, #80]	; (800ae84 <Result_Display+0xb8>)
 800ae32:	480e      	ldr	r0, [pc, #56]	; (800ae6c <Result_Display+0xa0>)
 800ae34:	f004 fbdd 	bl	800f5f2 <strcpy>
		TFT_Serial(g_buff);
 800ae38:	480c      	ldr	r0, [pc, #48]	; (800ae6c <Result_Display+0xa0>)
 800ae3a:	f7ff ff7f 	bl	800ad3c <TFT_Serial>
		sprintf((char*)g_buff,"xstr 380,70,95,50,2,WHITE,BLACK,1,1,1,\"-\"");
 800ae3e:	4912      	ldr	r1, [pc, #72]	; (800ae88 <Result_Display+0xbc>)
 800ae40:	e7d4      	b.n	800adec <Result_Display+0x20>
	else if(result_out == pba_false)
 800ae42:	b944      	cbnz	r4, 800ae56 <Result_Display+0x8a>
		sprintf((char*)g_buff,"xstr 20,161,300,80,5,RED,BLACK,0,0,1,\"OUT:NG\"");
 800ae44:	4911      	ldr	r1, [pc, #68]	; (800ae8c <Result_Display+0xc0>)
 800ae46:	4809      	ldr	r0, [pc, #36]	; (800ae6c <Result_Display+0xa0>)
 800ae48:	f004 fbd3 	bl	800f5f2 <strcpy>
		TFT_Serial(g_buff);
 800ae4c:	4807      	ldr	r0, [pc, #28]	; (800ae6c <Result_Display+0xa0>)
 800ae4e:	f7ff ff75 	bl	800ad3c <TFT_Serial>
		sprintf((char*)g_buff,"xstr 380,134,95,50,2,RED,BLACK,1,1,1,\"NG\"");
 800ae52:	490f      	ldr	r1, [pc, #60]	; (800ae90 <Result_Display+0xc4>)
 800ae54:	e7da      	b.n	800ae0c <Result_Display+0x40>
		sprintf((char*)g_buff,"xstr 20,161,300,80,5,WHITE,BLACK,0,0,1,\"OUT:-\"");
 800ae56:	490f      	ldr	r1, [pc, #60]	; (800ae94 <Result_Display+0xc8>)
 800ae58:	4804      	ldr	r0, [pc, #16]	; (800ae6c <Result_Display+0xa0>)
 800ae5a:	f004 fbca 	bl	800f5f2 <strcpy>
		TFT_Serial(g_buff);
 800ae5e:	4803      	ldr	r0, [pc, #12]	; (800ae6c <Result_Display+0xa0>)
 800ae60:	f7ff ff6c 	bl	800ad3c <TFT_Serial>
		sprintf((char*)g_buff,"xstr 380,134,95,50,2,WHITE,BLACK,1,1,1,\"-\"");
 800ae64:	490c      	ldr	r1, [pc, #48]	; (800ae98 <Result_Display+0xcc>)
 800ae66:	e7d1      	b.n	800ae0c <Result_Display+0x40>
 800ae68:	08011a06 	.word	0x08011a06
 800ae6c:	200019b4 	.word	0x200019b4
 800ae70:	08011a35 	.word	0x08011a35
 800ae74:	08011b0e 	.word	0x08011b0e
 800ae78:	08011b3e 	.word	0x08011b3e
 800ae7c:	08011a60 	.word	0x08011a60
 800ae80:	08011a8d 	.word	0x08011a8d
 800ae84:	08011ab6 	.word	0x08011ab6
 800ae88:	08011ae4 	.word	0x08011ae4
 800ae8c:	08011b6a 	.word	0x08011b6a
 800ae90:	08011b98 	.word	0x08011b98
 800ae94:	08011bc2 	.word	0x08011bc2
 800ae98:	08011bf1 	.word	0x08011bf1

0800ae9c <system_information>:
{
 800ae9c:	b573      	push	{r0, r1, r4, r5, r6, lr}
	uint8_t rbuf[4] = {0,};
 800ae9e:	ac02      	add	r4, sp, #8
 800aea0:	2600      	movs	r6, #0
 800aea2:	f844 6d04 	str.w	r6, [r4, #-4]!
	eep_256_burst_read(TYPE_ADDRESS, rbuf, 4);
 800aea6:	2204      	movs	r2, #4
 800aea8:	4621      	mov	r1, r4
 800aeaa:	200c      	movs	r0, #12
 800aeac:	f002 ff7a 	bl	800dda4 <eep_256_burst_read>
	g_type = ((uint32_t)rbuf[3] << 24) + ((uint32_t)rbuf[2] << 16) + ((uint32_t)rbuf[1] << 8) + (uint32_t)rbuf[0];
 800aeb0:	f89d 3006 	ldrb.w	r3, [sp, #6]
 800aeb4:	f89d 2007 	ldrb.w	r2, [sp, #7]
 800aeb8:	4daa      	ldr	r5, [pc, #680]	; (800b164 <system_information+0x2c8>)
 800aeba:	041b      	lsls	r3, r3, #16
 800aebc:	eb03 6302 	add.w	r3, r3, r2, lsl #24
 800aec0:	f89d 2004 	ldrb.w	r2, [sp, #4]
 800aec4:	4413      	add	r3, r2
 800aec6:	f89d 2005 	ldrb.w	r2, [sp, #5]
 800aeca:	eb03 2302 	add.w	r3, r3, r2, lsl #8
	if(g_type != IN && g_type != OUT && g_type != ALL)
 800aece:	2b02      	cmp	r3, #2
	g_type = ((uint32_t)rbuf[3] << 24) + ((uint32_t)rbuf[2] << 16) + ((uint32_t)rbuf[1] << 8) + (uint32_t)rbuf[0];
 800aed0:	602b      	str	r3, [r5, #0]
	if(g_type != IN && g_type != OUT && g_type != ALL)
 800aed2:	d919      	bls.n	800af08 <system_information+0x6c>
		eep_256_burst_write(TYPE_ADDRESS, rbuf, 4); //0 Clear, default IN+OUT
 800aed4:	2204      	movs	r2, #4
 800aed6:	4621      	mov	r1, r4
 800aed8:	200c      	movs	r0, #12
		memset(rbuf, 0, 4);
 800aeda:	9601      	str	r6, [sp, #4]
		eep_256_burst_write(TYPE_ADDRESS, rbuf, 4); //0 Clear, default IN+OUT
 800aedc:	f002 ff22 	bl	800dd24 <eep_256_burst_write>
		eep_256_burst_read(TYPE_ADDRESS, rbuf, 4);
 800aee0:	2204      	movs	r2, #4
 800aee2:	4621      	mov	r1, r4
 800aee4:	200c      	movs	r0, #12
 800aee6:	f002 ff5d 	bl	800dda4 <eep_256_burst_read>
		g_type = ((uint32_t)rbuf[3] << 24) + ((uint32_t)rbuf[2] << 16) + ((uint32_t)rbuf[1] << 8) + (uint32_t)rbuf[0];
 800aeea:	f89d 3006 	ldrb.w	r3, [sp, #6]
 800aeee:	f89d 2007 	ldrb.w	r2, [sp, #7]
 800aef2:	041b      	lsls	r3, r3, #16
 800aef4:	eb03 6302 	add.w	r3, r3, r2, lsl #24
 800aef8:	f89d 2004 	ldrb.w	r2, [sp, #4]
 800aefc:	4413      	add	r3, r2
 800aefe:	f89d 2005 	ldrb.w	r2, [sp, #5]
 800af02:	eb03 2302 	add.w	r3, r3, r2, lsl #8
 800af06:	602b      	str	r3, [r5, #0]
	eep_256_burst_read(MARK_ADDRESS, rbuf, 4);
 800af08:	2204      	movs	r2, #4
 800af0a:	4621      	mov	r1, r4
 800af0c:	2010      	movs	r0, #16
 800af0e:	f002 ff49 	bl	800dda4 <eep_256_burst_read>
	g_mark = ((uint32_t)rbuf[3] << 24) + ((uint32_t)rbuf[2] << 16) + ((uint32_t)rbuf[1] << 8) + (uint32_t)rbuf[0];
 800af12:	f89d 3006 	ldrb.w	r3, [sp, #6]
 800af16:	f89d 2007 	ldrb.w	r2, [sp, #7]
 800af1a:	4d93      	ldr	r5, [pc, #588]	; (800b168 <system_information+0x2cc>)
 800af1c:	041b      	lsls	r3, r3, #16
 800af1e:	eb03 6302 	add.w	r3, r3, r2, lsl #24
 800af22:	f89d 2004 	ldrb.w	r2, [sp, #4]
 800af26:	4413      	add	r3, r2
 800af28:	f89d 2005 	ldrb.w	r2, [sp, #5]
 800af2c:	eb03 2302 	add.w	r3, r3, r2, lsl #8
	if(g_mark != MARK_ON && g_mark !=  MARK_OFF)
 800af30:	2b01      	cmp	r3, #1
	g_mark = ((uint32_t)rbuf[3] << 24) + ((uint32_t)rbuf[2] << 16) + ((uint32_t)rbuf[1] << 8) + (uint32_t)rbuf[0];
 800af32:	602b      	str	r3, [r5, #0]
	if(g_mark != MARK_ON && g_mark !=  MARK_OFF)
 800af34:	d91a      	bls.n	800af6c <system_information+0xd0>
		memset(rbuf, 0, 4);
 800af36:	2300      	movs	r3, #0
		eep_256_burst_write(MARK_ADDRESS, rbuf, 4); //0 Clear, default MARK_ON
 800af38:	2204      	movs	r2, #4
 800af3a:	4621      	mov	r1, r4
 800af3c:	2010      	movs	r0, #16
		memset(rbuf, 0, 4);
 800af3e:	9301      	str	r3, [sp, #4]
		eep_256_burst_write(MARK_ADDRESS, rbuf, 4); //0 Clear, default MARK_ON
 800af40:	f002 fef0 	bl	800dd24 <eep_256_burst_write>
		eep_256_burst_read(MARK_ADDRESS, rbuf, 4);
 800af44:	2204      	movs	r2, #4
 800af46:	4621      	mov	r1, r4
 800af48:	2010      	movs	r0, #16
 800af4a:	f002 ff2b 	bl	800dda4 <eep_256_burst_read>
		g_mark = ((uint32_t)rbuf[3] << 24) + ((uint32_t)rbuf[2] << 16) + ((uint32_t)rbuf[1] << 8) + (uint32_t)rbuf[0];
 800af4e:	f89d 3006 	ldrb.w	r3, [sp, #6]
 800af52:	f89d 2007 	ldrb.w	r2, [sp, #7]
 800af56:	041b      	lsls	r3, r3, #16
 800af58:	eb03 6302 	add.w	r3, r3, r2, lsl #24
 800af5c:	f89d 2004 	ldrb.w	r2, [sp, #4]
 800af60:	4413      	add	r3, r2
 800af62:	f89d 2005 	ldrb.w	r2, [sp, #5]
 800af66:	eb03 2302 	add.w	r3, r3, r2, lsl #8
 800af6a:	602b      	str	r3, [r5, #0]
	eep_256_burst_read(DEBUG_ADDRESS, rbuf, 4);
 800af6c:	2204      	movs	r2, #4
 800af6e:	4621      	mov	r1, r4
 800af70:	2014      	movs	r0, #20
 800af72:	f002 ff17 	bl	800dda4 <eep_256_burst_read>
	g_mode = ((uint32_t)rbuf[3] << 24) + ((uint32_t)rbuf[2] << 16) + ((uint32_t)rbuf[1] << 8) + (uint32_t)rbuf[0];
 800af76:	f89d 3006 	ldrb.w	r3, [sp, #6]
 800af7a:	f89d 2007 	ldrb.w	r2, [sp, #7]
 800af7e:	4d7b      	ldr	r5, [pc, #492]	; (800b16c <system_information+0x2d0>)
 800af80:	041b      	lsls	r3, r3, #16
 800af82:	eb03 6302 	add.w	r3, r3, r2, lsl #24
 800af86:	f89d 2004 	ldrb.w	r2, [sp, #4]
 800af8a:	4413      	add	r3, r2
 800af8c:	f89d 2005 	ldrb.w	r2, [sp, #5]
 800af90:	eb03 2302 	add.w	r3, r3, r2, lsl #8
	if(g_mode != DEBUG_ON && g_mode != DEBUG_OFF)
 800af94:	2b01      	cmp	r3, #1
	g_mode = ((uint32_t)rbuf[3] << 24) + ((uint32_t)rbuf[2] << 16) + ((uint32_t)rbuf[1] << 8) + (uint32_t)rbuf[0];
 800af96:	602b      	str	r3, [r5, #0]
	if(g_mode != DEBUG_ON && g_mode != DEBUG_OFF)
 800af98:	d91a      	bls.n	800afd0 <system_information+0x134>
		memset(rbuf, 0, 4);
 800af9a:	2300      	movs	r3, #0
		eep_256_burst_write(DEBUG_ADDRESS, rbuf, 4); //0 Clear, default DEBUG ON
 800af9c:	2204      	movs	r2, #4
 800af9e:	4621      	mov	r1, r4
 800afa0:	2014      	movs	r0, #20
		memset(rbuf, 0, 4);
 800afa2:	9301      	str	r3, [sp, #4]
		eep_256_burst_write(DEBUG_ADDRESS, rbuf, 4); //0 Clear, default DEBUG ON
 800afa4:	f002 febe 	bl	800dd24 <eep_256_burst_write>
		eep_256_burst_read(DEBUG_ADDRESS, rbuf, 4);
 800afa8:	2204      	movs	r2, #4
 800afaa:	4621      	mov	r1, r4
 800afac:	2014      	movs	r0, #20
 800afae:	f002 fef9 	bl	800dda4 <eep_256_burst_read>
		g_mode = ((uint32_t)rbuf[3] << 24) + ((uint32_t)rbuf[2] << 16) + ((uint32_t)rbuf[1] << 8) + (uint32_t)rbuf[0];
 800afb2:	f89d 3006 	ldrb.w	r3, [sp, #6]
 800afb6:	f89d 2007 	ldrb.w	r2, [sp, #7]
 800afba:	041b      	lsls	r3, r3, #16
 800afbc:	eb03 6302 	add.w	r3, r3, r2, lsl #24
 800afc0:	f89d 2004 	ldrb.w	r2, [sp, #4]
 800afc4:	4413      	add	r3, r2
 800afc6:	f89d 2005 	ldrb.w	r2, [sp, #5]
 800afca:	eb03 2302 	add.w	r3, r3, r2, lsl #8
 800afce:	602b      	str	r3, [r5, #0]
	eep_256_burst_read(ERROR_STOP_ADDRESS, rbuf, 4);
 800afd0:	2204      	movs	r2, #4
 800afd2:	4621      	mov	r1, r4
 800afd4:	2018      	movs	r0, #24
 800afd6:	f002 fee5 	bl	800dda4 <eep_256_burst_read>
	g_error = ((uint32_t)rbuf[3] << 24) + ((uint32_t)rbuf[2] << 16) + ((uint32_t)rbuf[1] << 8) + (uint32_t)rbuf[0];
 800afda:	f89d 3006 	ldrb.w	r3, [sp, #6]
 800afde:	f89d 2007 	ldrb.w	r2, [sp, #7]
 800afe2:	4d63      	ldr	r5, [pc, #396]	; (800b170 <system_information+0x2d4>)
 800afe4:	041b      	lsls	r3, r3, #16
 800afe6:	eb03 6302 	add.w	r3, r3, r2, lsl #24
 800afea:	f89d 2004 	ldrb.w	r2, [sp, #4]
 800afee:	4413      	add	r3, r2
 800aff0:	f89d 2005 	ldrb.w	r2, [sp, #5]
 800aff4:	eb03 2302 	add.w	r3, r3, r2, lsl #8
	if(g_error != DEBUG_ON && g_error != DEBUG_OFF)
 800aff8:	2b01      	cmp	r3, #1
	g_error = ((uint32_t)rbuf[3] << 24) + ((uint32_t)rbuf[2] << 16) + ((uint32_t)rbuf[1] << 8) + (uint32_t)rbuf[0];
 800affa:	602b      	str	r3, [r5, #0]
	if(g_error != DEBUG_ON && g_error != DEBUG_OFF)
 800affc:	d91a      	bls.n	800b034 <system_information+0x198>
		memset(rbuf, 0, 4);
 800affe:	2300      	movs	r3, #0
		eep_256_burst_write(ERROR_STOP_ADDRESS, rbuf, 4); //0 Clear, default ERROR STOP ON
 800b000:	2204      	movs	r2, #4
 800b002:	4621      	mov	r1, r4
 800b004:	2018      	movs	r0, #24
		memset(rbuf, 0, 4);
 800b006:	9301      	str	r3, [sp, #4]
		eep_256_burst_write(ERROR_STOP_ADDRESS, rbuf, 4); //0 Clear, default ERROR STOP ON
 800b008:	f002 fe8c 	bl	800dd24 <eep_256_burst_write>
		eep_256_burst_read(ERROR_STOP_ADDRESS, rbuf, 4);
 800b00c:	2204      	movs	r2, #4
 800b00e:	4621      	mov	r1, r4
 800b010:	2018      	movs	r0, #24
 800b012:	f002 fec7 	bl	800dda4 <eep_256_burst_read>
		g_error = ((uint32_t)rbuf[3] << 24) + ((uint32_t)rbuf[2] << 16) + ((uint32_t)rbuf[1] << 8) + (uint32_t)rbuf[0];
 800b016:	f89d 3006 	ldrb.w	r3, [sp, #6]
 800b01a:	f89d 2007 	ldrb.w	r2, [sp, #7]
 800b01e:	041b      	lsls	r3, r3, #16
 800b020:	eb03 6302 	add.w	r3, r3, r2, lsl #24
 800b024:	f89d 2004 	ldrb.w	r2, [sp, #4]
 800b028:	4413      	add	r3, r2
 800b02a:	f89d 2005 	ldrb.w	r2, [sp, #5]
 800b02e:	eb03 2302 	add.w	r3, r3, r2, lsl #8
 800b032:	602b      	str	r3, [r5, #0]
	eep_256_burst_read(TEST_MODE_ADDRESS, rbuf, 4);
 800b034:	2204      	movs	r2, #4
 800b036:	4621      	mov	r1, r4
 800b038:	201c      	movs	r0, #28
 800b03a:	f002 feb3 	bl	800dda4 <eep_256_burst_read>
	g_test = ((uint32_t)rbuf[3] << 24) + ((uint32_t)rbuf[2] << 16) + ((uint32_t)rbuf[1] << 8) + (uint32_t)rbuf[0];
 800b03e:	f89d 3006 	ldrb.w	r3, [sp, #6]
 800b042:	f89d 2007 	ldrb.w	r2, [sp, #7]
 800b046:	4d4b      	ldr	r5, [pc, #300]	; (800b174 <system_information+0x2d8>)
 800b048:	041b      	lsls	r3, r3, #16
 800b04a:	eb03 6302 	add.w	r3, r3, r2, lsl #24
 800b04e:	f89d 2004 	ldrb.w	r2, [sp, #4]
 800b052:	4413      	add	r3, r2
 800b054:	f89d 2005 	ldrb.w	r2, [sp, #5]
 800b058:	eb03 2302 	add.w	r3, r3, r2, lsl #8
	if(g_test != DEBUG_ON && g_test != DEBUG_OFF)
 800b05c:	2b01      	cmp	r3, #1
	g_test = ((uint32_t)rbuf[3] << 24) + ((uint32_t)rbuf[2] << 16) + ((uint32_t)rbuf[1] << 8) + (uint32_t)rbuf[0];
 800b05e:	602b      	str	r3, [r5, #0]
	if(g_test != DEBUG_ON && g_test != DEBUG_OFF)
 800b060:	d91a      	bls.n	800b098 <system_information+0x1fc>
		memset(rbuf, 0, 4);
 800b062:	2300      	movs	r3, #0
		eep_256_burst_write(TEST_MODE_ADDRESS, rbuf, 4); //0 Clear, default TEST MODE OFF
 800b064:	2204      	movs	r2, #4
 800b066:	4621      	mov	r1, r4
 800b068:	201c      	movs	r0, #28
		memset(rbuf, 0, 4);
 800b06a:	9301      	str	r3, [sp, #4]
		eep_256_burst_write(TEST_MODE_ADDRESS, rbuf, 4); //0 Clear, default TEST MODE OFF
 800b06c:	f002 fe5a 	bl	800dd24 <eep_256_burst_write>
		eep_256_burst_read(TEST_MODE_ADDRESS, rbuf, 4);
 800b070:	2204      	movs	r2, #4
 800b072:	4621      	mov	r1, r4
 800b074:	201c      	movs	r0, #28
 800b076:	f002 fe95 	bl	800dda4 <eep_256_burst_read>
		g_test = ((uint32_t)rbuf[3] << 24) + ((uint32_t)rbuf[2] << 16) + ((uint32_t)rbuf[1] << 8) + (uint32_t)rbuf[0];
 800b07a:	f89d 3006 	ldrb.w	r3, [sp, #6]
 800b07e:	f89d 2007 	ldrb.w	r2, [sp, #7]
 800b082:	041b      	lsls	r3, r3, #16
 800b084:	eb03 6302 	add.w	r3, r3, r2, lsl #24
 800b088:	f89d 2004 	ldrb.w	r2, [sp, #4]
 800b08c:	4413      	add	r3, r2
 800b08e:	f89d 2005 	ldrb.w	r2, [sp, #5]
 800b092:	eb03 2302 	add.w	r3, r3, r2, lsl #8
 800b096:	602b      	str	r3, [r5, #0]
	eep_256_burst_read(LOCK_ON_ADDRESS, rbuf, 4);
 800b098:	2204      	movs	r2, #4
 800b09a:	4621      	mov	r1, r4
 800b09c:	2020      	movs	r0, #32
 800b09e:	f002 fe81 	bl	800dda4 <eep_256_burst_read>
	g_lock_on = ((uint32_t)rbuf[3] << 24) + ((uint32_t)rbuf[2] << 16) + ((uint32_t)rbuf[1] << 8) + (uint32_t)rbuf[0];
 800b0a2:	f89d 3006 	ldrb.w	r3, [sp, #6]
 800b0a6:	f89d 2007 	ldrb.w	r2, [sp, #7]
 800b0aa:	4d33      	ldr	r5, [pc, #204]	; (800b178 <system_information+0x2dc>)
 800b0ac:	041b      	lsls	r3, r3, #16
 800b0ae:	eb03 6302 	add.w	r3, r3, r2, lsl #24
 800b0b2:	f89d 2004 	ldrb.w	r2, [sp, #4]
 800b0b6:	4413      	add	r3, r2
 800b0b8:	f89d 2005 	ldrb.w	r2, [sp, #5]
 800b0bc:	eb03 2302 	add.w	r3, r3, r2, lsl #8
	if(g_lock_on != LOCK_ON && g_lock_on != LOCK_OFF)
 800b0c0:	2b01      	cmp	r3, #1
	g_lock_on = ((uint32_t)rbuf[3] << 24) + ((uint32_t)rbuf[2] << 16) + ((uint32_t)rbuf[1] << 8) + (uint32_t)rbuf[0];
 800b0c2:	602b      	str	r3, [r5, #0]
	if(g_lock_on != LOCK_ON && g_lock_on != LOCK_OFF)
 800b0c4:	d91a      	bls.n	800b0fc <system_information+0x260>
		memset(rbuf, 0, 4);
 800b0c6:	2300      	movs	r3, #0
		eep_256_burst_write(LOCK_ON_ADDRESS, rbuf, 4); //0 Clear, default LOCK_OFF
 800b0c8:	2204      	movs	r2, #4
 800b0ca:	4621      	mov	r1, r4
 800b0cc:	2020      	movs	r0, #32
		memset(rbuf, 0, 4);
 800b0ce:	9301      	str	r3, [sp, #4]
		eep_256_burst_write(LOCK_ON_ADDRESS, rbuf, 4); //0 Clear, default LOCK_OFF
 800b0d0:	f002 fe28 	bl	800dd24 <eep_256_burst_write>
		eep_256_burst_read(LOCK_ON_ADDRESS, rbuf, 4);
 800b0d4:	2204      	movs	r2, #4
 800b0d6:	4621      	mov	r1, r4
 800b0d8:	2020      	movs	r0, #32
 800b0da:	f002 fe63 	bl	800dda4 <eep_256_burst_read>
		g_lock_on = ((uint32_t)rbuf[3] << 24) + ((uint32_t)rbuf[2] << 16) + ((uint32_t)rbuf[1] << 8) + (uint32_t)rbuf[0];
 800b0de:	f89d 3006 	ldrb.w	r3, [sp, #6]
 800b0e2:	f89d 2007 	ldrb.w	r2, [sp, #7]
 800b0e6:	041b      	lsls	r3, r3, #16
 800b0e8:	eb03 6302 	add.w	r3, r3, r2, lsl #24
 800b0ec:	f89d 2004 	ldrb.w	r2, [sp, #4]
 800b0f0:	4413      	add	r3, r2
 800b0f2:	f89d 2005 	ldrb.w	r2, [sp, #5]
 800b0f6:	eb03 2302 	add.w	r3, r3, r2, lsl #8
 800b0fa:	602b      	str	r3, [r5, #0]
	eep_256_burst_read(KEY_INPUT_ADDRESS, rbuf, 4);
 800b0fc:	2204      	movs	r2, #4
 800b0fe:	4621      	mov	r1, r4
 800b100:	2030      	movs	r0, #48	; 0x30
 800b102:	f002 fe4f 	bl	800dda4 <eep_256_burst_read>
	g_key_on = ((uint32_t)rbuf[3] << 24) + ((uint32_t)rbuf[2] << 16) + ((uint32_t)rbuf[1] << 8) + (uint32_t)rbuf[0];
 800b106:	f89d 3006 	ldrb.w	r3, [sp, #6]
 800b10a:	f89d 2007 	ldrb.w	r2, [sp, #7]
 800b10e:	4d1b      	ldr	r5, [pc, #108]	; (800b17c <system_information+0x2e0>)
 800b110:	041b      	lsls	r3, r3, #16
 800b112:	eb03 6302 	add.w	r3, r3, r2, lsl #24
 800b116:	f89d 2004 	ldrb.w	r2, [sp, #4]
 800b11a:	4413      	add	r3, r2
 800b11c:	f89d 2005 	ldrb.w	r2, [sp, #5]
 800b120:	eb03 2302 	add.w	r3, r3, r2, lsl #8
	if(g_key_on != KEY_ON && g_key_on != KEY_OFF)
 800b124:	2b01      	cmp	r3, #1
	g_key_on = ((uint32_t)rbuf[3] << 24) + ((uint32_t)rbuf[2] << 16) + ((uint32_t)rbuf[1] << 8) + (uint32_t)rbuf[0];
 800b126:	602b      	str	r3, [r5, #0]
	if(g_key_on != KEY_ON && g_key_on != KEY_OFF)
 800b128:	d91a      	bls.n	800b160 <system_information+0x2c4>
		memset(rbuf, 0, 4);
 800b12a:	2300      	movs	r3, #0
		eep_256_burst_write(KEY_INPUT_ADDRESS, rbuf, 4); //0 Clear, default LOCK_OFF
 800b12c:	2204      	movs	r2, #4
 800b12e:	4621      	mov	r1, r4
 800b130:	2030      	movs	r0, #48	; 0x30
		memset(rbuf, 0, 4);
 800b132:	9301      	str	r3, [sp, #4]
		eep_256_burst_write(KEY_INPUT_ADDRESS, rbuf, 4); //0 Clear, default LOCK_OFF
 800b134:	f002 fdf6 	bl	800dd24 <eep_256_burst_write>
		eep_256_burst_read(KEY_INPUT_ADDRESS, rbuf, 4);
 800b138:	2204      	movs	r2, #4
 800b13a:	4621      	mov	r1, r4
 800b13c:	2030      	movs	r0, #48	; 0x30
 800b13e:	f002 fe31 	bl	800dda4 <eep_256_burst_read>
		g_key_on = ((uint32_t)rbuf[3] << 24) + ((uint32_t)rbuf[2] << 16) + ((uint32_t)rbuf[1] << 8) + (uint32_t)rbuf[0];
 800b142:	f89d 3006 	ldrb.w	r3, [sp, #6]
 800b146:	f89d 2007 	ldrb.w	r2, [sp, #7]
 800b14a:	041b      	lsls	r3, r3, #16
 800b14c:	eb03 6302 	add.w	r3, r3, r2, lsl #24
 800b150:	f89d 2004 	ldrb.w	r2, [sp, #4]
 800b154:	4413      	add	r3, r2
 800b156:	f89d 2005 	ldrb.w	r2, [sp, #5]
 800b15a:	eb03 2302 	add.w	r3, r3, r2, lsl #8
 800b15e:	602b      	str	r3, [r5, #0]
}
 800b160:	b002      	add	sp, #8
 800b162:	bd70      	pop	{r4, r5, r6, pc}
 800b164:	200017d4 	.word	0x200017d4
 800b168:	200017bc 	.word	0x200017bc
 800b16c:	200017c0 	.word	0x200017c0
 800b170:	200017b0 	.word	0x200017b0
 800b174:	200017c8 	.word	0x200017c8
 800b178:	200017b8 	.word	0x200017b8
 800b17c:	200017b4 	.word	0x200017b4

0800b180 <Banner_Display>:
{
 800b180:	b508      	push	{r3, lr}
	system_information();
 800b182:	f7ff fe8b 	bl	800ae9c <system_information>
	if(g_mode == DEBUG_ON) TFT_Serial((uint8_t*)"t10.txt=\"Debug ON\"");
 800b186:	4b0f      	ldr	r3, [pc, #60]	; (800b1c4 <Banner_Display+0x44>)
 800b188:	681b      	ldr	r3, [r3, #0]
 800b18a:	b9b3      	cbnz	r3, 800b1ba <Banner_Display+0x3a>
 800b18c:	480e      	ldr	r0, [pc, #56]	; (800b1c8 <Banner_Display+0x48>)
	else if(g_mode == DEBUG_OFF) TFT_Serial((uint8_t*)"t10.txt=\"Debug OFF\"");
 800b18e:	f7ff fdd5 	bl	800ad3c <TFT_Serial>
	sprintf((char*)g_buff, "t7.txt=\"%s\"", g_model_name);
 800b192:	4b0e      	ldr	r3, [pc, #56]	; (800b1cc <Banner_Display+0x4c>)
 800b194:	490e      	ldr	r1, [pc, #56]	; (800b1d0 <Banner_Display+0x50>)
 800b196:	681a      	ldr	r2, [r3, #0]
 800b198:	480e      	ldr	r0, [pc, #56]	; (800b1d4 <Banner_Display+0x54>)
 800b19a:	f004 f9f7 	bl	800f58c <siprintf>
	TFT_Serial(g_buff);
 800b19e:	480d      	ldr	r0, [pc, #52]	; (800b1d4 <Banner_Display+0x54>)
 800b1a0:	f7ff fdcc 	bl	800ad3c <TFT_Serial>
	sprintf((char*)g_buff, "t8.txt=\"%s\"", g_fw_ver);
 800b1a4:	4b0c      	ldr	r3, [pc, #48]	; (800b1d8 <Banner_Display+0x58>)
 800b1a6:	490d      	ldr	r1, [pc, #52]	; (800b1dc <Banner_Display+0x5c>)
 800b1a8:	681a      	ldr	r2, [r3, #0]
 800b1aa:	480a      	ldr	r0, [pc, #40]	; (800b1d4 <Banner_Display+0x54>)
 800b1ac:	f004 f9ee 	bl	800f58c <siprintf>
	TFT_Serial(g_buff);
 800b1b0:	4808      	ldr	r0, [pc, #32]	; (800b1d4 <Banner_Display+0x54>)
}
 800b1b2:	e8bd 4008 	ldmia.w	sp!, {r3, lr}
	TFT_Serial(g_buff);
 800b1b6:	f7ff bdc1 	b.w	800ad3c <TFT_Serial>
	else if(g_mode == DEBUG_OFF) TFT_Serial((uint8_t*)"t10.txt=\"Debug OFF\"");
 800b1ba:	2b01      	cmp	r3, #1
 800b1bc:	d1e9      	bne.n	800b192 <Banner_Display+0x12>
 800b1be:	4808      	ldr	r0, [pc, #32]	; (800b1e0 <Banner_Display+0x60>)
 800b1c0:	e7e5      	b.n	800b18e <Banner_Display+0xe>
 800b1c2:	bf00      	nop
 800b1c4:	200017c0 	.word	0x200017c0
 800b1c8:	080117d6 	.word	0x080117d6
 800b1cc:	20000070 	.word	0x20000070
 800b1d0:	080117fd 	.word	0x080117fd
 800b1d4:	200019b4 	.word	0x200019b4
 800b1d8:	2000006c 	.word	0x2000006c
 800b1dc:	08011809 	.word	0x08011809
 800b1e0:	080117e9 	.word	0x080117e9

0800b1e4 <Count_Display>:
{
 800b1e4:	e92d 43f7 	stmdb	sp!, {r0, r1, r2, r4, r5, r6, r7, r8, r9, lr}
	uint8_t rbuf[4] = {0,};
 800b1e8:	ad02      	add	r5, sp, #8
 800b1ea:	2000      	movs	r0, #0
 800b1ec:	f845 0d04 	str.w	r0, [r5, #-4]!
	eep_256_burst_read(IN_OK_ADDRESS, rbuf, 4);
 800b1f0:	2204      	movs	r2, #4
 800b1f2:	4629      	mov	r1, r5
 800b1f4:	f002 fdd6 	bl	800dda4 <eep_256_burst_read>
	in_ok_count = ((uint32_t)rbuf[3] << 24) + ((uint32_t)rbuf[2] << 16) + ((uint32_t)rbuf[1] << 8) + (int32_t)rbuf[0];
 800b1f8:	f89d 2006 	ldrb.w	r2, [sp, #6]
 800b1fc:	f89d 3007 	ldrb.w	r3, [sp, #7]
	sprintf((char*)g_buff, "t16.txt=\"%5ld\"", in_ok_count);
 800b200:	4c68      	ldr	r4, [pc, #416]	; (800b3a4 <Count_Display+0x1c0>)
	in_ok_count = ((uint32_t)rbuf[3] << 24) + ((uint32_t)rbuf[2] << 16) + ((uint32_t)rbuf[1] << 8) + (int32_t)rbuf[0];
 800b202:	f8df 81ec 	ldr.w	r8, [pc, #492]	; 800b3f0 <Count_Display+0x20c>
	sprintf((char*)g_buff, "t16.txt=\"%5ld\"", in_ok_count);
 800b206:	4968      	ldr	r1, [pc, #416]	; (800b3a8 <Count_Display+0x1c4>)
	in_ng_count = ((uint32_t)rbuf[3] << 24) + ((uint32_t)rbuf[2] << 16) + ((uint32_t)rbuf[1] << 8) + (int32_t)rbuf[0];
 800b208:	4f68      	ldr	r7, [pc, #416]	; (800b3ac <Count_Display+0x1c8>)
	out_ok_count = ((uint32_t)rbuf[3] << 24) + ((uint32_t)rbuf[2] << 16) + ((uint32_t)rbuf[1] << 8) + (int32_t)rbuf[0];
 800b20a:	4e69      	ldr	r6, [pc, #420]	; (800b3b0 <Count_Display+0x1cc>)
	out_ng_count = ((uint32_t)rbuf[3] << 24) + ((uint32_t)rbuf[2] << 16) + ((uint32_t)rbuf[1] << 8) + (int32_t)rbuf[0];
 800b20c:	f8df 91e4 	ldr.w	r9, [pc, #484]	; 800b3f4 <Count_Display+0x210>
	in_ok_count = ((uint32_t)rbuf[3] << 24) + ((uint32_t)rbuf[2] << 16) + ((uint32_t)rbuf[1] << 8) + (int32_t)rbuf[0];
 800b210:	0412      	lsls	r2, r2, #16
 800b212:	eb02 6203 	add.w	r2, r2, r3, lsl #24
 800b216:	f89d 3004 	ldrb.w	r3, [sp, #4]
 800b21a:	441a      	add	r2, r3
 800b21c:	f89d 3005 	ldrb.w	r3, [sp, #5]
	sprintf((char*)g_buff, "t16.txt=\"%5ld\"", in_ok_count);
 800b220:	4620      	mov	r0, r4
	in_ok_count = ((uint32_t)rbuf[3] << 24) + ((uint32_t)rbuf[2] << 16) + ((uint32_t)rbuf[1] << 8) + (int32_t)rbuf[0];
 800b222:	eb02 2203 	add.w	r2, r2, r3, lsl #8
 800b226:	f8c8 2000 	str.w	r2, [r8]
	sprintf((char*)g_buff, "t16.txt=\"%5ld\"", in_ok_count);
 800b22a:	f004 f9af 	bl	800f58c <siprintf>
	TFT_Serial(g_buff);
 800b22e:	4620      	mov	r0, r4
 800b230:	f7ff fd84 	bl	800ad3c <TFT_Serial>
	eep_256_burst_read(IN_NG_ADDRESS, rbuf, 4);
 800b234:	4629      	mov	r1, r5
 800b236:	2204      	movs	r2, #4
 800b238:	2028      	movs	r0, #40	; 0x28
 800b23a:	f002 fdb3 	bl	800dda4 <eep_256_burst_read>
	in_ng_count = ((uint32_t)rbuf[3] << 24) + ((uint32_t)rbuf[2] << 16) + ((uint32_t)rbuf[1] << 8) + (int32_t)rbuf[0];
 800b23e:	f89d 2006 	ldrb.w	r2, [sp, #6]
 800b242:	f89d 3007 	ldrb.w	r3, [sp, #7]
	sprintf((char*)g_buff, "t24.txt=\"%5ld\"", in_ng_count);
 800b246:	495b      	ldr	r1, [pc, #364]	; (800b3b4 <Count_Display+0x1d0>)
	in_ng_count = ((uint32_t)rbuf[3] << 24) + ((uint32_t)rbuf[2] << 16) + ((uint32_t)rbuf[1] << 8) + (int32_t)rbuf[0];
 800b248:	0412      	lsls	r2, r2, #16
 800b24a:	eb02 6203 	add.w	r2, r2, r3, lsl #24
 800b24e:	f89d 3004 	ldrb.w	r3, [sp, #4]
 800b252:	441a      	add	r2, r3
 800b254:	f89d 3005 	ldrb.w	r3, [sp, #5]
	sprintf((char*)g_buff, "t24.txt=\"%5ld\"", in_ng_count);
 800b258:	4620      	mov	r0, r4
	in_ng_count = ((uint32_t)rbuf[3] << 24) + ((uint32_t)rbuf[2] << 16) + ((uint32_t)rbuf[1] << 8) + (int32_t)rbuf[0];
 800b25a:	eb02 2203 	add.w	r2, r2, r3, lsl #8
 800b25e:	603a      	str	r2, [r7, #0]
	sprintf((char*)g_buff, "t24.txt=\"%5ld\"", in_ng_count);
 800b260:	f004 f994 	bl	800f58c <siprintf>
	TFT_Serial(g_buff);
 800b264:	4620      	mov	r0, r4
 800b266:	f7ff fd69 	bl	800ad3c <TFT_Serial>
	in_sum_count = in_ok_count + in_ng_count;
 800b26a:	683b      	ldr	r3, [r7, #0]
 800b26c:	f8d8 2000 	ldr.w	r2, [r8]
	sprintf((char*)g_buff, "t20.txt=\"%5ld\"", in_sum_count);
 800b270:	4951      	ldr	r1, [pc, #324]	; (800b3b8 <Count_Display+0x1d4>)
	in_sum_count = in_ok_count + in_ng_count;
 800b272:	441a      	add	r2, r3
 800b274:	4b51      	ldr	r3, [pc, #324]	; (800b3bc <Count_Display+0x1d8>)
	sprintf((char*)g_buff, "t20.txt=\"%5ld\"", in_sum_count);
 800b276:	4620      	mov	r0, r4
	in_sum_count = in_ok_count + in_ng_count;
 800b278:	601a      	str	r2, [r3, #0]
	sprintf((char*)g_buff, "t20.txt=\"%5ld\"", in_sum_count);
 800b27a:	f004 f987 	bl	800f58c <siprintf>
	TFT_Serial(g_buff);
 800b27e:	4620      	mov	r0, r4
 800b280:	f7ff fd5c 	bl	800ad3c <TFT_Serial>
	eep_256_burst_read(OUT_OK_ADDRESS, rbuf, 4);
 800b284:	2204      	movs	r2, #4
 800b286:	4629      	mov	r1, r5
 800b288:	4610      	mov	r0, r2
 800b28a:	f002 fd8b 	bl	800dda4 <eep_256_burst_read>
	out_ok_count = ((uint32_t)rbuf[3] << 24) + ((uint32_t)rbuf[2] << 16) + ((uint32_t)rbuf[1] << 8) + (int32_t)rbuf[0];
 800b28e:	f89d 2006 	ldrb.w	r2, [sp, #6]
 800b292:	f89d 3007 	ldrb.w	r3, [sp, #7]
	sprintf((char*)g_buff, "t17.txt=\"%5ld\"", out_ok_count);
 800b296:	494a      	ldr	r1, [pc, #296]	; (800b3c0 <Count_Display+0x1dc>)
	out_ok_count = ((uint32_t)rbuf[3] << 24) + ((uint32_t)rbuf[2] << 16) + ((uint32_t)rbuf[1] << 8) + (int32_t)rbuf[0];
 800b298:	0412      	lsls	r2, r2, #16
 800b29a:	eb02 6203 	add.w	r2, r2, r3, lsl #24
 800b29e:	f89d 3004 	ldrb.w	r3, [sp, #4]
 800b2a2:	441a      	add	r2, r3
 800b2a4:	f89d 3005 	ldrb.w	r3, [sp, #5]
	sprintf((char*)g_buff, "t17.txt=\"%5ld\"", out_ok_count);
 800b2a8:	4620      	mov	r0, r4
	out_ok_count = ((uint32_t)rbuf[3] << 24) + ((uint32_t)rbuf[2] << 16) + ((uint32_t)rbuf[1] << 8) + (int32_t)rbuf[0];
 800b2aa:	eb02 2203 	add.w	r2, r2, r3, lsl #8
 800b2ae:	6032      	str	r2, [r6, #0]
	sprintf((char*)g_buff, "t17.txt=\"%5ld\"", out_ok_count);
 800b2b0:	f004 f96c 	bl	800f58c <siprintf>
	TFT_Serial(g_buff);
 800b2b4:	4620      	mov	r0, r4
 800b2b6:	f7ff fd41 	bl	800ad3c <TFT_Serial>
	eep_256_burst_read(OUT_NG_ADDRESS, rbuf, 4);
 800b2ba:	4629      	mov	r1, r5
 800b2bc:	2204      	movs	r2, #4
 800b2be:	202c      	movs	r0, #44	; 0x2c
 800b2c0:	f002 fd70 	bl	800dda4 <eep_256_burst_read>
	out_ng_count = ((uint32_t)rbuf[3] << 24) + ((uint32_t)rbuf[2] << 16) + ((uint32_t)rbuf[1] << 8) + (int32_t)rbuf[0];
 800b2c4:	f89d 2006 	ldrb.w	r2, [sp, #6]
 800b2c8:	f89d 3007 	ldrb.w	r3, [sp, #7]
	sprintf((char*)g_buff, "t26.txt=\"%5ld\"", out_ng_count);
 800b2cc:	493d      	ldr	r1, [pc, #244]	; (800b3c4 <Count_Display+0x1e0>)
	out_ng_count = ((uint32_t)rbuf[3] << 24) + ((uint32_t)rbuf[2] << 16) + ((uint32_t)rbuf[1] << 8) + (int32_t)rbuf[0];
 800b2ce:	0412      	lsls	r2, r2, #16
 800b2d0:	eb02 6203 	add.w	r2, r2, r3, lsl #24
 800b2d4:	f89d 3004 	ldrb.w	r3, [sp, #4]
 800b2d8:	441a      	add	r2, r3
 800b2da:	f89d 3005 	ldrb.w	r3, [sp, #5]
	sprintf((char*)g_buff, "t26.txt=\"%5ld\"", out_ng_count);
 800b2de:	4620      	mov	r0, r4
	out_ng_count = ((uint32_t)rbuf[3] << 24) + ((uint32_t)rbuf[2] << 16) + ((uint32_t)rbuf[1] << 8) + (int32_t)rbuf[0];
 800b2e0:	eb02 2203 	add.w	r2, r2, r3, lsl #8
 800b2e4:	f8c9 2000 	str.w	r2, [r9]
	sprintf((char*)g_buff, "t26.txt=\"%5ld\"", out_ng_count);
 800b2e8:	f004 f950 	bl	800f58c <siprintf>
	TFT_Serial(g_buff);
 800b2ec:	4620      	mov	r0, r4
 800b2ee:	f7ff fd25 	bl	800ad3c <TFT_Serial>
	out_sum_count = out_ok_count + out_ng_count;
 800b2f2:	f8d9 3000 	ldr.w	r3, [r9]
 800b2f6:	6832      	ldr	r2, [r6, #0]
	sprintf((char*)g_buff, "t25.txt=\"%5ld\"", out_sum_count);
 800b2f8:	4933      	ldr	r1, [pc, #204]	; (800b3c8 <Count_Display+0x1e4>)
	out_sum_count = out_ok_count + out_ng_count;
 800b2fa:	441a      	add	r2, r3
 800b2fc:	4b33      	ldr	r3, [pc, #204]	; (800b3cc <Count_Display+0x1e8>)
	sprintf((char*)g_buff, "t25.txt=\"%5ld\"", out_sum_count);
 800b2fe:	4620      	mov	r0, r4
	out_sum_count = out_ok_count + out_ng_count;
 800b300:	601a      	str	r2, [r3, #0]
	sprintf((char*)g_buff, "t25.txt=\"%5ld\"", out_sum_count);
 800b302:	f004 f943 	bl	800f58c <siprintf>
	TFT_Serial(g_buff);
 800b306:	4620      	mov	r0, r4
 800b308:	f7ff fd18 	bl	800ad3c <TFT_Serial>
	total_ok_count = in_ok_count + out_ok_count;
 800b30c:	6833      	ldr	r3, [r6, #0]
 800b30e:	f8d8 2000 	ldr.w	r2, [r8]
	sprintf((char*)g_buff, "t18.txt=\"%5ld\"", total_ok_count);
 800b312:	492f      	ldr	r1, [pc, #188]	; (800b3d0 <Count_Display+0x1ec>)
	total_ok_count = in_ok_count + out_ok_count;
 800b314:	441a      	add	r2, r3
 800b316:	4b2f      	ldr	r3, [pc, #188]	; (800b3d4 <Count_Display+0x1f0>)
	sprintf((char*)g_buff, "t18.txt=\"%5ld\"", total_ok_count);
 800b318:	4620      	mov	r0, r4
	total_ok_count = in_ok_count + out_ok_count;
 800b31a:	601a      	str	r2, [r3, #0]
	sprintf((char*)g_buff, "t18.txt=\"%5ld\"", total_ok_count);
 800b31c:	f004 f936 	bl	800f58c <siprintf>
	TFT_Serial(g_buff);
 800b320:	4620      	mov	r0, r4
 800b322:	f7ff fd0b 	bl	800ad3c <TFT_Serial>
	total_ng_count = in_ng_count + out_ng_count;
 800b326:	f8d9 3000 	ldr.w	r3, [r9]
 800b32a:	683a      	ldr	r2, [r7, #0]
	sprintf((char*)g_buff, "t28.txt=\"%5ld\"", total_ng_count);
 800b32c:	492a      	ldr	r1, [pc, #168]	; (800b3d8 <Count_Display+0x1f4>)
	total_ng_count = in_ng_count + out_ng_count;
 800b32e:	441a      	add	r2, r3
 800b330:	4b2a      	ldr	r3, [pc, #168]	; (800b3dc <Count_Display+0x1f8>)
	sprintf((char*)g_buff, "t28.txt=\"%5ld\"", total_ng_count);
 800b332:	4620      	mov	r0, r4
	total_ng_count = in_ng_count + out_ng_count;
 800b334:	601a      	str	r2, [r3, #0]
	sprintf((char*)g_buff, "t28.txt=\"%5ld\"", total_ng_count);
 800b336:	f004 f929 	bl	800f58c <siprintf>
	TFT_Serial(g_buff);
 800b33a:	4620      	mov	r0, r4
 800b33c:	f7ff fcfe 	bl	800ad3c <TFT_Serial>
	total_sum_count = in_ok_count + in_ng_count + out_ok_count + out_ng_count;
 800b340:	683b      	ldr	r3, [r7, #0]
 800b342:	f8d8 2000 	ldr.w	r2, [r8]
	sprintf((char*)g_buff, "t29.txt=\"%5ld\"", total_sum_count);
 800b346:	4926      	ldr	r1, [pc, #152]	; (800b3e0 <Count_Display+0x1fc>)
	total_sum_count = in_ok_count + in_ng_count + out_ok_count + out_ng_count;
 800b348:	441a      	add	r2, r3
 800b34a:	6833      	ldr	r3, [r6, #0]
 800b34c:	441a      	add	r2, r3
 800b34e:	f8d9 3000 	ldr.w	r3, [r9]
 800b352:	441a      	add	r2, r3
 800b354:	4b23      	ldr	r3, [pc, #140]	; (800b3e4 <Count_Display+0x200>)
	sprintf((char*)g_buff, "t29.txt=\"%5ld\"", total_sum_count);
 800b356:	4620      	mov	r0, r4
	total_sum_count = in_ok_count + in_ng_count + out_ok_count + out_ng_count;
 800b358:	601a      	str	r2, [r3, #0]
	sprintf((char*)g_buff, "t29.txt=\"%5ld\"", total_sum_count);
 800b35a:	f004 f917 	bl	800f58c <siprintf>
	TFT_Serial(g_buff);
 800b35e:	4620      	mov	r0, r4
 800b360:	f7ff fcec 	bl	800ad3c <TFT_Serial>
	eep_256_burst_read(CLEAN_ADDRESS, rbuf, 4);
 800b364:	4629      	mov	r1, r5
 800b366:	2204      	movs	r2, #4
 800b368:	2024      	movs	r0, #36	; 0x24
 800b36a:	f002 fd1b 	bl	800dda4 <eep_256_burst_read>
	g_clean = ((uint32_t)rbuf[3] << 24) + ((uint32_t)rbuf[2] << 16) + ((uint32_t)rbuf[1] << 8) + (int32_t)rbuf[0];
 800b36e:	f89d 2006 	ldrb.w	r2, [sp, #6]
 800b372:	f89d 3007 	ldrb.w	r3, [sp, #7]
	sprintf((char*)g_buff, "t21.txt=\"%5ld\"", g_clean);
 800b376:	491c      	ldr	r1, [pc, #112]	; (800b3e8 <Count_Display+0x204>)
	g_clean = ((uint32_t)rbuf[3] << 24) + ((uint32_t)rbuf[2] << 16) + ((uint32_t)rbuf[1] << 8) + (int32_t)rbuf[0];
 800b378:	0412      	lsls	r2, r2, #16
 800b37a:	eb02 6203 	add.w	r2, r2, r3, lsl #24
 800b37e:	f89d 3004 	ldrb.w	r3, [sp, #4]
 800b382:	441a      	add	r2, r3
 800b384:	f89d 3005 	ldrb.w	r3, [sp, #5]
 800b388:	eb02 2203 	add.w	r2, r2, r3, lsl #8
 800b38c:	4b17      	ldr	r3, [pc, #92]	; (800b3ec <Count_Display+0x208>)
	sprintf((char*)g_buff, "t21.txt=\"%5ld\"", g_clean);
 800b38e:	4620      	mov	r0, r4
	g_clean = ((uint32_t)rbuf[3] << 24) + ((uint32_t)rbuf[2] << 16) + ((uint32_t)rbuf[1] << 8) + (int32_t)rbuf[0];
 800b390:	601a      	str	r2, [r3, #0]
	sprintf((char*)g_buff, "t21.txt=\"%5ld\"", g_clean);
 800b392:	f004 f8fb 	bl	800f58c <siprintf>
	TFT_Serial(g_buff);
 800b396:	4620      	mov	r0, r4
 800b398:	f7ff fcd0 	bl	800ad3c <TFT_Serial>
}
 800b39c:	b003      	add	sp, #12
 800b39e:	e8bd 83f0 	ldmia.w	sp!, {r4, r5, r6, r7, r8, r9, pc}
 800b3a2:	bf00      	nop
 800b3a4:	200019b4 	.word	0x200019b4
 800b3a8:	08011815 	.word	0x08011815
 800b3ac:	20001bd4 	.word	0x20001bd4
 800b3b0:	20001938 	.word	0x20001938
 800b3b4:	08011824 	.word	0x08011824
 800b3b8:	08011833 	.word	0x08011833
 800b3bc:	20001be0 	.word	0x20001be0
 800b3c0:	08011842 	.word	0x08011842
 800b3c4:	08011851 	.word	0x08011851
 800b3c8:	08011860 	.word	0x08011860
 800b3cc:	20001a7c 	.word	0x20001a7c
 800b3d0:	0801186f 	.word	0x0801186f
 800b3d4:	20001bdc 	.word	0x20001bdc
 800b3d8:	0801187e 	.word	0x0801187e
 800b3dc:	20001bd8 	.word	0x20001bd8
 800b3e0:	0801188d 	.word	0x0801188d
 800b3e4:	20001b78 	.word	0x20001b78
 800b3e8:	0801189c 	.word	0x0801189c
 800b3ec:	200019ac 	.word	0x200019ac
 800b3f0:	20001b88 	.word	0x20001b88
 800b3f4:	20001b2c 	.word	0x20001b2c

0800b3f8 <Touch_Task>:
{
 800b3f8:	b570      	push	{r4, r5, r6, lr}
	if(BSP_TS_GetState(&TS) == TS_OK)
 800b3fa:	4daf      	ldr	r5, [pc, #700]	; (800b6b8 <Touch_Task+0x2c0>)
 800b3fc:	4628      	mov	r0, r5
 800b3fe:	f7fd fee3 	bl	80091c8 <BSP_TS_GetState>
 800b402:	4604      	mov	r4, r0
 800b404:	2800      	cmp	r0, #0
 800b406:	f040 8156 	bne.w	800b6b6 <Touch_Task+0x2be>
		if(g_touch_buff[0] == 0x70) //in mode
 800b40a:	4eac      	ldr	r6, [pc, #688]	; (800b6bc <Touch_Task+0x2c4>)
 800b40c:	7833      	ldrb	r3, [r6, #0]
 800b40e:	2b70      	cmp	r3, #112	; 0x70
 800b410:	f040 8146 	bne.w	800b6a0 <Touch_Task+0x2a8>
			Beep(1,10);
 800b414:	210a      	movs	r1, #10
 800b416:	2001      	movs	r0, #1
 800b418:	f7ff fcba 	bl	800ad90 <Beep>
			if(g_touch_buff[5] == '1')
 800b41c:	7973      	ldrb	r3, [r6, #5]
 800b41e:	2b31      	cmp	r3, #49	; 0x31
 800b420:	d113      	bne.n	800b44a <Touch_Task+0x52>
				memset(g_rbuf, 0, 4);
 800b422:	4da7      	ldr	r5, [pc, #668]	; (800b6c0 <Touch_Task+0x2c8>)
				eep_256_burst_write(IN_OK_ADDRESS, g_rbuf, 4);
 800b424:	2204      	movs	r2, #4
 800b426:	4629      	mov	r1, r5
				memset(g_rbuf, 0, 4);
 800b428:	602c      	str	r4, [r5, #0]
				eep_256_burst_write(IN_OK_ADDRESS, g_rbuf, 4);
 800b42a:	4620      	mov	r0, r4
 800b42c:	f002 fc7a 	bl	800dd24 <eep_256_burst_write>
				memset(g_rbuf, 0, 4);
 800b430:	602c      	str	r4, [r5, #0]
				eep_256_burst_write(IN_NG_ADDRESS, g_rbuf, 4);
 800b432:	2204      	movs	r2, #4
 800b434:	4629      	mov	r1, r5
 800b436:	2028      	movs	r0, #40	; 0x28
				eep_256_burst_write(OUT_NG_ADDRESS, g_rbuf, 4);
 800b438:	f002 fc74 	bl	800dd24 <eep_256_burst_write>
		HAL_UART_Receive_DMA(&huart1, gUart1_Rx_Buff, 9);
 800b43c:	2209      	movs	r2, #9
 800b43e:	49a1      	ldr	r1, [pc, #644]	; (800b6c4 <Touch_Task+0x2cc>)
 800b440:	48a1      	ldr	r0, [pc, #644]	; (800b6c8 <Touch_Task+0x2d0>)
}
 800b442:	e8bd 4070 	ldmia.w	sp!, {r4, r5, r6, lr}
		HAL_UART_Receive_DMA(&huart1, gUart1_Rx_Buff, 9);
 800b446:	f7ff b88b 	b.w	800a560 <HAL_UART_Receive_DMA>
			else if(g_touch_buff[5] == '2')
 800b44a:	2b32      	cmp	r3, #50	; 0x32
 800b44c:	d10b      	bne.n	800b466 <Touch_Task+0x6e>
				memset(g_rbuf, 0, 4);
 800b44e:	4d9c      	ldr	r5, [pc, #624]	; (800b6c0 <Touch_Task+0x2c8>)
				eep_256_burst_write(OUT_OK_ADDRESS, g_rbuf, 4);
 800b450:	2204      	movs	r2, #4
 800b452:	4629      	mov	r1, r5
 800b454:	4610      	mov	r0, r2
				memset(g_rbuf, 0, 4);
 800b456:	602c      	str	r4, [r5, #0]
				eep_256_burst_write(OUT_OK_ADDRESS, g_rbuf, 4);
 800b458:	f002 fc64 	bl	800dd24 <eep_256_burst_write>
				memset(g_rbuf, 0, 4);
 800b45c:	602c      	str	r4, [r5, #0]
				eep_256_burst_write(OUT_NG_ADDRESS, g_rbuf, 4);
 800b45e:	2204      	movs	r2, #4
 800b460:	4629      	mov	r1, r5
 800b462:	202c      	movs	r0, #44	; 0x2c
 800b464:	e7e8      	b.n	800b438 <Touch_Task+0x40>
			else if(g_touch_buff[5] == '3')
 800b466:	2b33      	cmp	r3, #51	; 0x33
 800b468:	d104      	bne.n	800b474 <Touch_Task+0x7c>
				memset(g_rbuf, 0, 4);
 800b46a:	4995      	ldr	r1, [pc, #596]	; (800b6c0 <Touch_Task+0x2c8>)
				eep_256_burst_write(TOTAL_ADDRESS, g_rbuf, 4);
 800b46c:	2204      	movs	r2, #4
				memset(g_rbuf, 0, 4);
 800b46e:	600c      	str	r4, [r1, #0]
				eep_256_burst_write(TOTAL_ADDRESS, g_rbuf, 4);
 800b470:	2008      	movs	r0, #8
 800b472:	e7e1      	b.n	800b438 <Touch_Task+0x40>
			else if(g_touch_buff[5] == 'Y')
 800b474:	2b59      	cmp	r3, #89	; 0x59
 800b476:	d104      	bne.n	800b482 <Touch_Task+0x8a>
				memset(g_rbuf, 0, 4);
 800b478:	4991      	ldr	r1, [pc, #580]	; (800b6c0 <Touch_Task+0x2c8>)
				eep_256_burst_write(CLEAN_ADDRESS, g_rbuf, 4);
 800b47a:	2204      	movs	r2, #4
				memset(g_rbuf, 0, 4);
 800b47c:	600c      	str	r4, [r1, #0]
				eep_256_burst_write(CLEAN_ADDRESS, g_rbuf, 4);
 800b47e:	2024      	movs	r0, #36	; 0x24
 800b480:	e7da      	b.n	800b438 <Touch_Task+0x40>
			else if(g_touch_buff[5] == '4')
 800b482:	2b34      	cmp	r3, #52	; 0x34
 800b484:	d10c      	bne.n	800b4a0 <Touch_Task+0xa8>
				g_rbuf[0] = (uint8_t)(wdata & 0x000000FF);
 800b486:	498e      	ldr	r1, [pc, #568]	; (800b6c0 <Touch_Task+0x2c8>)
				eep_256_burst_write(TYPE_ADDRESS, g_rbuf, 4);
 800b488:	2204      	movs	r2, #4
 800b48a:	200c      	movs	r0, #12
				g_rbuf[0] = (uint8_t)(wdata & 0x000000FF);
 800b48c:	700c      	strb	r4, [r1, #0]
				g_rbuf[1] = (uint8_t)((wdata & 0x0000FF00) >> 8);
 800b48e:	704c      	strb	r4, [r1, #1]
				g_rbuf[2] = (uint8_t)((wdata & 0x00FF0000) >> 16);
 800b490:	708c      	strb	r4, [r1, #2]
				g_rbuf[3] = (uint8_t)((wdata & 0xFF000000) >> 24);
 800b492:	70cc      	strb	r4, [r1, #3]
				eep_256_burst_write(TYPE_ADDRESS, g_rbuf, 4);
 800b494:	f002 fc46 	bl	800dd24 <eep_256_burst_write>
				TFT_Serial((uint8_t*)"t4.txt=\"IN\"");
 800b498:	488c      	ldr	r0, [pc, #560]	; (800b6cc <Touch_Task+0x2d4>)
				TFT_Serial((uint8_t*)"t4.txt=\"OUT\"");
 800b49a:	f7ff fc4f 	bl	800ad3c <TFT_Serial>
 800b49e:	e7cd      	b.n	800b43c <Touch_Task+0x44>
			else if(g_touch_buff[5] == '5')
 800b4a0:	2b35      	cmp	r3, #53	; 0x35
 800b4a2:	d10b      	bne.n	800b4bc <Touch_Task+0xc4>
				g_rbuf[0] = (uint8_t)(wdata & 0x000000FF);
 800b4a4:	4986      	ldr	r1, [pc, #536]	; (800b6c0 <Touch_Task+0x2c8>)
 800b4a6:	2301      	movs	r3, #1
				eep_256_burst_write(TYPE_ADDRESS, g_rbuf, 4);
 800b4a8:	2204      	movs	r2, #4
 800b4aa:	200c      	movs	r0, #12
				g_rbuf[0] = (uint8_t)(wdata & 0x000000FF);
 800b4ac:	700b      	strb	r3, [r1, #0]
				g_rbuf[1] = (uint8_t)((wdata & 0x0000FF00) >> 8);
 800b4ae:	704c      	strb	r4, [r1, #1]
				g_rbuf[2] = (uint8_t)((wdata & 0x00FF0000) >> 16);
 800b4b0:	708c      	strb	r4, [r1, #2]
				g_rbuf[3] = (uint8_t)((wdata & 0xFF000000) >> 24);
 800b4b2:	70cc      	strb	r4, [r1, #3]
				eep_256_burst_write(TYPE_ADDRESS, g_rbuf, 4);
 800b4b4:	f002 fc36 	bl	800dd24 <eep_256_burst_write>
				TFT_Serial((uint8_t*)"t4.txt=\"OUT\"");
 800b4b8:	4885      	ldr	r0, [pc, #532]	; (800b6d0 <Touch_Task+0x2d8>)
 800b4ba:	e7ee      	b.n	800b49a <Touch_Task+0xa2>
			else if(g_touch_buff[5] == '6')
 800b4bc:	2b36      	cmp	r3, #54	; 0x36
 800b4be:	d10b      	bne.n	800b4d8 <Touch_Task+0xe0>
				g_rbuf[0] = (uint8_t)(wdata & 0x000000FF);
 800b4c0:	497f      	ldr	r1, [pc, #508]	; (800b6c0 <Touch_Task+0x2c8>)
 800b4c2:	2302      	movs	r3, #2
				eep_256_burst_write(TYPE_ADDRESS, g_rbuf, 4);
 800b4c4:	2204      	movs	r2, #4
 800b4c6:	200c      	movs	r0, #12
				g_rbuf[0] = (uint8_t)(wdata & 0x000000FF);
 800b4c8:	700b      	strb	r3, [r1, #0]
				g_rbuf[1] = (uint8_t)((wdata & 0x0000FF00) >> 8);
 800b4ca:	704c      	strb	r4, [r1, #1]
				g_rbuf[2] = (uint8_t)((wdata & 0x00FF0000) >> 16);
 800b4cc:	708c      	strb	r4, [r1, #2]
				g_rbuf[3] = (uint8_t)((wdata & 0xFF000000) >> 24);
 800b4ce:	70cc      	strb	r4, [r1, #3]
				eep_256_burst_write(TYPE_ADDRESS, g_rbuf, 4);
 800b4d0:	f002 fc28 	bl	800dd24 <eep_256_burst_write>
				TFT_Serial((uint8_t*)"t4.txt=\"IN+OUT\"");
 800b4d4:	487f      	ldr	r0, [pc, #508]	; (800b6d4 <Touch_Task+0x2dc>)
 800b4d6:	e7e0      	b.n	800b49a <Touch_Task+0xa2>
			else if(g_touch_buff[5] == '7')
 800b4d8:	2b37      	cmp	r3, #55	; 0x37
 800b4da:	d108      	bne.n	800b4ee <Touch_Task+0xf6>
				memset(g_rbuf, MARK_ON, 4);
 800b4dc:	4978      	ldr	r1, [pc, #480]	; (800b6c0 <Touch_Task+0x2c8>)
 800b4de:	2300      	movs	r3, #0
 800b4e0:	600b      	str	r3, [r1, #0]
				eep_256_burst_write(MARK_ADDRESS, g_rbuf, 4);
 800b4e2:	2204      	movs	r2, #4
 800b4e4:	2010      	movs	r0, #16
				eep_256_burst_write(TEST_MODE_ADDRESS, g_rbuf, 4);
 800b4e6:	f002 fc1d 	bl	800dd24 <eep_256_burst_write>
				TFT_Serial((uint8_t*)"t3.txt=\"ON\"");
 800b4ea:	487b      	ldr	r0, [pc, #492]	; (800b6d8 <Touch_Task+0x2e0>)
 800b4ec:	e7d5      	b.n	800b49a <Touch_Task+0xa2>
			else if(g_touch_buff[5] == '8')
 800b4ee:	2b38      	cmp	r3, #56	; 0x38
 800b4f0:	d10c      	bne.n	800b50c <Touch_Task+0x114>
				g_rbuf[0] = (uint8_t)(wdata & 0x000000FF);
 800b4f2:	4973      	ldr	r1, [pc, #460]	; (800b6c0 <Touch_Task+0x2c8>)
 800b4f4:	2301      	movs	r3, #1
 800b4f6:	700b      	strb	r3, [r1, #0]
				g_rbuf[1] = (uint8_t)((wdata & 0x0000FF00) >> 8);
 800b4f8:	2300      	movs	r3, #0
 800b4fa:	704b      	strb	r3, [r1, #1]
				g_rbuf[2] = (uint8_t)((wdata & 0x00FF0000) >> 16);
 800b4fc:	708b      	strb	r3, [r1, #2]
				g_rbuf[3] = (uint8_t)((wdata & 0xFF000000) >> 24);
 800b4fe:	70cb      	strb	r3, [r1, #3]
				eep_256_burst_write(MARK_ADDRESS, g_rbuf, 4);
 800b500:	2204      	movs	r2, #4
 800b502:	2010      	movs	r0, #16
				eep_256_burst_write(TEST_MODE_ADDRESS, g_rbuf, 4);
 800b504:	f002 fc0e 	bl	800dd24 <eep_256_burst_write>
				TFT_Serial((uint8_t*)"t3.txt=\"OFF\"");
 800b508:	4874      	ldr	r0, [pc, #464]	; (800b6dc <Touch_Task+0x2e4>)
 800b50a:	e7c6      	b.n	800b49a <Touch_Task+0xa2>
			else if(g_touch_buff[5] == '9')
 800b50c:	2b39      	cmp	r3, #57	; 0x39
 800b50e:	d10b      	bne.n	800b528 <Touch_Task+0x130>
				g_rbuf[0] = (uint8_t)(wdata & 0x000000FF);
 800b510:	496b      	ldr	r1, [pc, #428]	; (800b6c0 <Touch_Task+0x2c8>)
 800b512:	2300      	movs	r3, #0
				eep_256_burst_write(DEBUG_ADDRESS, g_rbuf, 4);
 800b514:	2204      	movs	r2, #4
 800b516:	2014      	movs	r0, #20
				g_rbuf[0] = (uint8_t)(wdata & 0x000000FF);
 800b518:	700b      	strb	r3, [r1, #0]
				g_rbuf[1] = (uint8_t)((wdata & 0x0000FF00) >> 8);
 800b51a:	704b      	strb	r3, [r1, #1]
				g_rbuf[2] = (uint8_t)((wdata & 0x00FF0000) >> 16);
 800b51c:	708b      	strb	r3, [r1, #2]
				g_rbuf[3] = (uint8_t)((wdata & 0xFF000000) >> 24);
 800b51e:	70cb      	strb	r3, [r1, #3]
				eep_256_burst_write(DEBUG_ADDRESS, g_rbuf, 4);
 800b520:	f002 fc00 	bl	800dd24 <eep_256_burst_write>
				if(g_mode == DEBUG_ON) TFT_Serial((uint8_t*)"t9.txt=\"ON\"");
 800b524:	486e      	ldr	r0, [pc, #440]	; (800b6e0 <Touch_Task+0x2e8>)
 800b526:	e7b8      	b.n	800b49a <Touch_Task+0xa2>
			else if(g_touch_buff[5] == 'A')
 800b528:	2b41      	cmp	r3, #65	; 0x41
 800b52a:	d10c      	bne.n	800b546 <Touch_Task+0x14e>
				g_rbuf[0] = (uint8_t)(wdata & 0x000000FF);
 800b52c:	4964      	ldr	r1, [pc, #400]	; (800b6c0 <Touch_Task+0x2c8>)
 800b52e:	2301      	movs	r3, #1
 800b530:	700b      	strb	r3, [r1, #0]
				eep_256_burst_write(DEBUG_ADDRESS, g_rbuf, 4);
 800b532:	2204      	movs	r2, #4
				g_rbuf[1] = (uint8_t)((wdata & 0x0000FF00) >> 8);
 800b534:	2300      	movs	r3, #0
				eep_256_burst_write(DEBUG_ADDRESS, g_rbuf, 4);
 800b536:	2014      	movs	r0, #20
				g_rbuf[1] = (uint8_t)((wdata & 0x0000FF00) >> 8);
 800b538:	704b      	strb	r3, [r1, #1]
				g_rbuf[2] = (uint8_t)((wdata & 0x00FF0000) >> 16);
 800b53a:	708b      	strb	r3, [r1, #2]
				g_rbuf[3] = (uint8_t)((wdata & 0xFF000000) >> 24);
 800b53c:	70cb      	strb	r3, [r1, #3]
				eep_256_burst_write(DEBUG_ADDRESS, g_rbuf, 4);
 800b53e:	f002 fbf1 	bl	800dd24 <eep_256_burst_write>
				else if(g_mode == DEBUG_OFF) TFT_Serial((uint8_t*)"t9.txt=\"OFF\"");
 800b542:	4868      	ldr	r0, [pc, #416]	; (800b6e4 <Touch_Task+0x2ec>)
 800b544:	e7a9      	b.n	800b49a <Touch_Task+0xa2>
			else if(g_touch_buff[5] == 'D')
 800b546:	2b44      	cmp	r3, #68	; 0x44
 800b548:	d123      	bne.n	800b592 <Touch_Task+0x19a>
				system_information();
 800b54a:	f7ff fca7 	bl	800ae9c <system_information>
				TFT_Serial((uint8_t*)"page 5");
 800b54e:	4866      	ldr	r0, [pc, #408]	; (800b6e8 <Touch_Task+0x2f0>)
 800b550:	f7ff fbf4 	bl	800ad3c <TFT_Serial>
				if(g_error == DEBUG_ON) TFT_Serial((uint8_t*)"t4.txt=\"ON\"");
 800b554:	4b65      	ldr	r3, [pc, #404]	; (800b6ec <Touch_Task+0x2f4>)
 800b556:	681b      	ldr	r3, [r3, #0]
 800b558:	b973      	cbnz	r3, 800b578 <Touch_Task+0x180>
 800b55a:	4865      	ldr	r0, [pc, #404]	; (800b6f0 <Touch_Task+0x2f8>)
				else if(g_error == DEBUG_OFF) TFT_Serial((uint8_t*)"t4.txt=\"OFF\"");
 800b55c:	f7ff fbee 	bl	800ad3c <TFT_Serial>
				if(g_test == DEBUG_ON) TFT_Serial((uint8_t*)"t3.txt=\"ON\"");
 800b560:	4b64      	ldr	r3, [pc, #400]	; (800b6f4 <Touch_Task+0x2fc>)
 800b562:	681b      	ldr	r3, [r3, #0]
 800b564:	b963      	cbnz	r3, 800b580 <Touch_Task+0x188>
 800b566:	485c      	ldr	r0, [pc, #368]	; (800b6d8 <Touch_Task+0x2e0>)
				else if(g_test == DEBUG_OFF) TFT_Serial((uint8_t*)"t3.txt=\"OFF\"");
 800b568:	f7ff fbe8 	bl	800ad3c <TFT_Serial>
				if(g_key_on == KEY_ON) TFT_Serial((uint8_t*)"t7.txt=\"ON\"");
 800b56c:	4b62      	ldr	r3, [pc, #392]	; (800b6f8 <Touch_Task+0x300>)
 800b56e:	681b      	ldr	r3, [r3, #0]
 800b570:	2b01      	cmp	r3, #1
 800b572:	d109      	bne.n	800b588 <Touch_Task+0x190>
				TFT_Serial((uint8_t*)"t7.txt=\"ON\"");
 800b574:	4861      	ldr	r0, [pc, #388]	; (800b6fc <Touch_Task+0x304>)
 800b576:	e790      	b.n	800b49a <Touch_Task+0xa2>
				else if(g_error == DEBUG_OFF) TFT_Serial((uint8_t*)"t4.txt=\"OFF\"");
 800b578:	2b01      	cmp	r3, #1
 800b57a:	d1f1      	bne.n	800b560 <Touch_Task+0x168>
 800b57c:	4860      	ldr	r0, [pc, #384]	; (800b700 <Touch_Task+0x308>)
 800b57e:	e7ed      	b.n	800b55c <Touch_Task+0x164>
				else if(g_test == DEBUG_OFF) TFT_Serial((uint8_t*)"t3.txt=\"OFF\"");
 800b580:	2b01      	cmp	r3, #1
 800b582:	d1f3      	bne.n	800b56c <Touch_Task+0x174>
 800b584:	4855      	ldr	r0, [pc, #340]	; (800b6dc <Touch_Task+0x2e4>)
 800b586:	e7ef      	b.n	800b568 <Touch_Task+0x170>
				else if(g_key_on == KEY_OFF) TFT_Serial((uint8_t*)"t7.txt=\"OFF\"");
 800b588:	2b00      	cmp	r3, #0
 800b58a:	f47f af57 	bne.w	800b43c <Touch_Task+0x44>
				TFT_Serial((uint8_t*)"t7.txt=\"OFF\"");
 800b58e:	485d      	ldr	r0, [pc, #372]	; (800b704 <Touch_Task+0x30c>)
 800b590:	e783      	b.n	800b49a <Touch_Task+0xa2>
			else if(g_touch_buff[5] == 'E')
 800b592:	2b45      	cmp	r3, #69	; 0x45
 800b594:	d10b      	bne.n	800b5ae <Touch_Task+0x1b6>
				g_rbuf[0] = (uint8_t)(wdata & 0x000000FF);
 800b596:	494a      	ldr	r1, [pc, #296]	; (800b6c0 <Touch_Task+0x2c8>)
 800b598:	2300      	movs	r3, #0
				eep_256_burst_write(ERROR_STOP_ADDRESS, g_rbuf, 4);
 800b59a:	2204      	movs	r2, #4
 800b59c:	2018      	movs	r0, #24
				g_rbuf[0] = (uint8_t)(wdata & 0x000000FF);
 800b59e:	700b      	strb	r3, [r1, #0]
				g_rbuf[1] = (uint8_t)((wdata & 0x0000FF00) >> 8);
 800b5a0:	704b      	strb	r3, [r1, #1]
				g_rbuf[2] = (uint8_t)((wdata & 0x00FF0000) >> 16);
 800b5a2:	708b      	strb	r3, [r1, #2]
				g_rbuf[3] = (uint8_t)((wdata & 0xFF000000) >> 24);
 800b5a4:	70cb      	strb	r3, [r1, #3]
				eep_256_burst_write(ERROR_STOP_ADDRESS, g_rbuf, 4);
 800b5a6:	f002 fbbd 	bl	800dd24 <eep_256_burst_write>
				TFT_Serial((uint8_t*)"t4.txt=\"ON\"");
 800b5aa:	4851      	ldr	r0, [pc, #324]	; (800b6f0 <Touch_Task+0x2f8>)
 800b5ac:	e775      	b.n	800b49a <Touch_Task+0xa2>
			else if(g_touch_buff[5] == 'F')
 800b5ae:	2b46      	cmp	r3, #70	; 0x46
 800b5b0:	d10c      	bne.n	800b5cc <Touch_Task+0x1d4>
				g_rbuf[0] = (uint8_t)(wdata & 0x000000FF);
 800b5b2:	4943      	ldr	r1, [pc, #268]	; (800b6c0 <Touch_Task+0x2c8>)
 800b5b4:	2301      	movs	r3, #1
 800b5b6:	700b      	strb	r3, [r1, #0]
				eep_256_burst_write(ERROR_STOP_ADDRESS, g_rbuf, 4);
 800b5b8:	2204      	movs	r2, #4
				g_rbuf[1] = (uint8_t)((wdata & 0x0000FF00) >> 8);
 800b5ba:	2300      	movs	r3, #0
				eep_256_burst_write(ERROR_STOP_ADDRESS, g_rbuf, 4);
 800b5bc:	2018      	movs	r0, #24
				g_rbuf[1] = (uint8_t)((wdata & 0x0000FF00) >> 8);
 800b5be:	704b      	strb	r3, [r1, #1]
				g_rbuf[2] = (uint8_t)((wdata & 0x00FF0000) >> 16);
 800b5c0:	708b      	strb	r3, [r1, #2]
				g_rbuf[3] = (uint8_t)((wdata & 0xFF000000) >> 24);
 800b5c2:	70cb      	strb	r3, [r1, #3]
				eep_256_burst_write(ERROR_STOP_ADDRESS, g_rbuf, 4);
 800b5c4:	f002 fbae 	bl	800dd24 <eep_256_burst_write>
				TFT_Serial((uint8_t*)"t4.txt=\"OFF\"");
 800b5c8:	484d      	ldr	r0, [pc, #308]	; (800b700 <Touch_Task+0x308>)
 800b5ca:	e766      	b.n	800b49a <Touch_Task+0xa2>
			else if(g_touch_buff[5] == 'G')
 800b5cc:	2b47      	cmp	r3, #71	; 0x47
 800b5ce:	d108      	bne.n	800b5e2 <Touch_Task+0x1ea>
				g_rbuf[0] = (uint8_t)(wdata & 0x000000FF);
 800b5d0:	493b      	ldr	r1, [pc, #236]	; (800b6c0 <Touch_Task+0x2c8>)
 800b5d2:	2300      	movs	r3, #0
 800b5d4:	700b      	strb	r3, [r1, #0]
				g_rbuf[1] = (uint8_t)((wdata & 0x0000FF00) >> 8);
 800b5d6:	704b      	strb	r3, [r1, #1]
				g_rbuf[2] = (uint8_t)((wdata & 0x00FF0000) >> 16);
 800b5d8:	708b      	strb	r3, [r1, #2]
				g_rbuf[3] = (uint8_t)((wdata & 0xFF000000) >> 24);
 800b5da:	70cb      	strb	r3, [r1, #3]
				eep_256_burst_write(TEST_MODE_ADDRESS, g_rbuf, 4);
 800b5dc:	2204      	movs	r2, #4
 800b5de:	201c      	movs	r0, #28
 800b5e0:	e781      	b.n	800b4e6 <Touch_Task+0xee>
			else if(g_touch_buff[5] == 'H')
 800b5e2:	2b48      	cmp	r3, #72	; 0x48
 800b5e4:	d109      	bne.n	800b5fa <Touch_Task+0x202>
				g_rbuf[0] = (uint8_t)(wdata & 0x000000FF);
 800b5e6:	4936      	ldr	r1, [pc, #216]	; (800b6c0 <Touch_Task+0x2c8>)
 800b5e8:	2301      	movs	r3, #1
 800b5ea:	700b      	strb	r3, [r1, #0]
				g_rbuf[1] = (uint8_t)((wdata & 0x0000FF00) >> 8);
 800b5ec:	2300      	movs	r3, #0
 800b5ee:	704b      	strb	r3, [r1, #1]
				g_rbuf[2] = (uint8_t)((wdata & 0x00FF0000) >> 16);
 800b5f0:	708b      	strb	r3, [r1, #2]
				g_rbuf[3] = (uint8_t)((wdata & 0xFF000000) >> 24);
 800b5f2:	70cb      	strb	r3, [r1, #3]
				eep_256_burst_write(TEST_MODE_ADDRESS, g_rbuf, 4);
 800b5f4:	2204      	movs	r2, #4
 800b5f6:	201c      	movs	r0, #28
 800b5f8:	e784      	b.n	800b504 <Touch_Task+0x10c>
			else if(g_touch_buff[5] == 'I')
 800b5fa:	2b49      	cmp	r3, #73	; 0x49
 800b5fc:	d125      	bne.n	800b64a <Touch_Task+0x252>
				system_information();
 800b5fe:	f7ff fc4d 	bl	800ae9c <system_information>
				TFT_Serial((uint8_t*)"page 2");
 800b602:	4841      	ldr	r0, [pc, #260]	; (800b708 <Touch_Task+0x310>)
 800b604:	f7ff fb9a 	bl	800ad3c <TFT_Serial>
				if(g_type == IN) TFT_Serial((uint8_t*)"t4.txt=\"IN\"");
 800b608:	4b40      	ldr	r3, [pc, #256]	; (800b70c <Touch_Task+0x314>)
 800b60a:	681b      	ldr	r3, [r3, #0]
 800b60c:	b98b      	cbnz	r3, 800b632 <Touch_Task+0x23a>
 800b60e:	482f      	ldr	r0, [pc, #188]	; (800b6cc <Touch_Task+0x2d4>)
				else if(g_type == ALL) TFT_Serial((uint8_t*)"t4.txt=\"IN+OUT\"");
 800b610:	f7ff fb94 	bl	800ad3c <TFT_Serial>
				if(g_mark == MARK_ON) TFT_Serial((uint8_t*)"t3.txt=\"MARK ON\"");
 800b614:	4b3e      	ldr	r3, [pc, #248]	; (800b710 <Touch_Task+0x318>)
 800b616:	681b      	ldr	r3, [r3, #0]
 800b618:	b99b      	cbnz	r3, 800b642 <Touch_Task+0x24a>
 800b61a:	483e      	ldr	r0, [pc, #248]	; (800b714 <Touch_Task+0x31c>)
				else if(g_mark == MARK_OFF) TFT_Serial((uint8_t*)"t3.txt=\"MARK OFF\"");
 800b61c:	f7ff fb8e 	bl	800ad3c <TFT_Serial>
				if(g_mode == DEBUG_ON) TFT_Serial((uint8_t*)"t9.txt=\"ON\"");
 800b620:	4b3d      	ldr	r3, [pc, #244]	; (800b718 <Touch_Task+0x320>)
 800b622:	681b      	ldr	r3, [r3, #0]
 800b624:	2b00      	cmp	r3, #0
 800b626:	f43f af7d 	beq.w	800b524 <Touch_Task+0x12c>
				else if(g_mode == DEBUG_OFF) TFT_Serial((uint8_t*)"t9.txt=\"OFF\"");
 800b62a:	2b01      	cmp	r3, #1
 800b62c:	f47f af06 	bne.w	800b43c <Touch_Task+0x44>
 800b630:	e787      	b.n	800b542 <Touch_Task+0x14a>
				else if(g_type == OUT) TFT_Serial((uint8_t*)"t4.txt=\"OUT\"");
 800b632:	2b01      	cmp	r3, #1
 800b634:	d101      	bne.n	800b63a <Touch_Task+0x242>
 800b636:	4826      	ldr	r0, [pc, #152]	; (800b6d0 <Touch_Task+0x2d8>)
 800b638:	e7ea      	b.n	800b610 <Touch_Task+0x218>
				else if(g_type == ALL) TFT_Serial((uint8_t*)"t4.txt=\"IN+OUT\"");
 800b63a:	2b02      	cmp	r3, #2
 800b63c:	d1ea      	bne.n	800b614 <Touch_Task+0x21c>
 800b63e:	4825      	ldr	r0, [pc, #148]	; (800b6d4 <Touch_Task+0x2dc>)
 800b640:	e7e6      	b.n	800b610 <Touch_Task+0x218>
				else if(g_mark == MARK_OFF) TFT_Serial((uint8_t*)"t3.txt=\"MARK OFF\"");
 800b642:	2b01      	cmp	r3, #1
 800b644:	d1ec      	bne.n	800b620 <Touch_Task+0x228>
 800b646:	4835      	ldr	r0, [pc, #212]	; (800b71c <Touch_Task+0x324>)
 800b648:	e7e8      	b.n	800b61c <Touch_Task+0x224>
			else if(g_touch_buff[5] == 'M')
 800b64a:	2b4d      	cmp	r3, #77	; 0x4d
 800b64c:	d10b      	bne.n	800b666 <Touch_Task+0x26e>
				g_rbuf[0] = (uint8_t)(wdata & 0x000000FF);
 800b64e:	491c      	ldr	r1, [pc, #112]	; (800b6c0 <Touch_Task+0x2c8>)
 800b650:	2301      	movs	r3, #1
 800b652:	700b      	strb	r3, [r1, #0]
				eep_256_burst_write(KEY_INPUT_ADDRESS, g_rbuf, 4);
 800b654:	2204      	movs	r2, #4
				g_rbuf[1] = (uint8_t)((wdata & 0x0000FF00) >> 8);
 800b656:	2300      	movs	r3, #0
				eep_256_burst_write(KEY_INPUT_ADDRESS, g_rbuf, 4);
 800b658:	2030      	movs	r0, #48	; 0x30
				g_rbuf[1] = (uint8_t)((wdata & 0x0000FF00) >> 8);
 800b65a:	704b      	strb	r3, [r1, #1]
				g_rbuf[2] = (uint8_t)((wdata & 0x00FF0000) >> 16);
 800b65c:	708b      	strb	r3, [r1, #2]
				g_rbuf[3] = (uint8_t)((wdata & 0xFF000000) >> 24);
 800b65e:	70cb      	strb	r3, [r1, #3]
				eep_256_burst_write(KEY_INPUT_ADDRESS, g_rbuf, 4);
 800b660:	f002 fb60 	bl	800dd24 <eep_256_burst_write>
 800b664:	e786      	b.n	800b574 <Touch_Task+0x17c>
			else if(g_touch_buff[5] == 'N')
 800b666:	2b4e      	cmp	r3, #78	; 0x4e
 800b668:	d10a      	bne.n	800b680 <Touch_Task+0x288>
				g_rbuf[0] = (uint8_t)(wdata & 0x000000FF);
 800b66a:	4915      	ldr	r1, [pc, #84]	; (800b6c0 <Touch_Task+0x2c8>)
 800b66c:	2300      	movs	r3, #0
				eep_256_burst_write(KEY_INPUT_ADDRESS, g_rbuf, 4);
 800b66e:	2204      	movs	r2, #4
 800b670:	2030      	movs	r0, #48	; 0x30
				g_rbuf[0] = (uint8_t)(wdata & 0x000000FF);
 800b672:	700b      	strb	r3, [r1, #0]
				g_rbuf[1] = (uint8_t)((wdata & 0x0000FF00) >> 8);
 800b674:	704b      	strb	r3, [r1, #1]
				g_rbuf[2] = (uint8_t)((wdata & 0x00FF0000) >> 16);
 800b676:	708b      	strb	r3, [r1, #2]
				g_rbuf[3] = (uint8_t)((wdata & 0xFF000000) >> 24);
 800b678:	70cb      	strb	r3, [r1, #3]
				eep_256_burst_write(KEY_INPUT_ADDRESS, g_rbuf, 4);
 800b67a:	f002 fb53 	bl	800dd24 <eep_256_burst_write>
 800b67e:	e786      	b.n	800b58e <Touch_Task+0x196>
			else if(g_touch_buff[5] == 'Z')
 800b680:	2b5a      	cmp	r3, #90	; 0x5a
 800b682:	f47f aedb 	bne.w	800b43c <Touch_Task+0x44>
				TFT_Serial((uint8_t*)"page 1");
 800b686:	4826      	ldr	r0, [pc, #152]	; (800b720 <Touch_Task+0x328>)
 800b688:	f7ff fb58 	bl	800ad3c <TFT_Serial>
				mode_state = pba_false;
 800b68c:	4b25      	ldr	r3, [pc, #148]	; (800b724 <Touch_Task+0x32c>)
 800b68e:	2200      	movs	r2, #0
 800b690:	701a      	strb	r2, [r3, #0]
				BSP_LCD_Init();
 800b692:	f7fd fca1 	bl	8008fd8 <BSP_LCD_Init>
				Banner_Display();
 800b696:	f7ff fd73 	bl	800b180 <Banner_Display>
				Count_Display();
 800b69a:	f7ff fda3 	bl	800b1e4 <Count_Display>
 800b69e:	e6cd      	b.n	800b43c <Touch_Task+0x44>
			if(TS.x > LCD_PIXEL_WIDTH/2)
 800b6a0:	886b      	ldrh	r3, [r5, #2]
 800b6a2:	2bf0      	cmp	r3, #240	; 0xf0
 800b6a4:	d902      	bls.n	800b6ac <Touch_Task+0x2b4>
				LCD_LOG_ScrollForward();
 800b6a6:	f003 f927 	bl	800e8f8 <LCD_LOG_ScrollForward>
 800b6aa:	e6c7      	b.n	800b43c <Touch_Task+0x44>
			else if(TS.x < LCD_PIXEL_WIDTH/2)
 800b6ac:	f43f aec6 	beq.w	800b43c <Touch_Task+0x44>
				LCD_LOG_ScrollBack();
 800b6b0:	f003 f8b8 	bl	800e824 <LCD_LOG_ScrollBack>
 800b6b4:	e6c2      	b.n	800b43c <Touch_Task+0x44>
 800b6b6:	bd70      	pop	{r4, r5, r6, pc}
 800b6b8:	20001b8c 	.word	0x20001b8c
 800b6bc:	200019a0 	.word	0x200019a0
 800b6c0:	200017c4 	.word	0x200017c4
 800b6c4:	20001b7d 	.word	0x20001b7d
 800b6c8:	20001b34 	.word	0x20001b34
 800b6cc:	08011edb 	.word	0x08011edb
 800b6d0:	08011ee7 	.word	0x08011ee7
 800b6d4:	08011ef4 	.word	0x08011ef4
 800b6d8:	08011f04 	.word	0x08011f04
 800b6dc:	08011f10 	.word	0x08011f10
 800b6e0:	08011f1d 	.word	0x08011f1d
 800b6e4:	08011f29 	.word	0x08011f29
 800b6e8:	08011f36 	.word	0x08011f36
 800b6ec:	200017b0 	.word	0x200017b0
 800b6f0:	08011f3d 	.word	0x08011f3d
 800b6f4:	200017c8 	.word	0x200017c8
 800b6f8:	200017b4 	.word	0x200017b4
 800b6fc:	08011f56 	.word	0x08011f56
 800b700:	08011f49 	.word	0x08011f49
 800b704:	08011f62 	.word	0x08011f62
 800b708:	08011f6f 	.word	0x08011f6f
 800b70c:	200017d4 	.word	0x200017d4
 800b710:	200017bc 	.word	0x200017bc
 800b714:	08011f76 	.word	0x08011f76
 800b718:	200017c0 	.word	0x200017c0
 800b71c:	08011f87 	.word	0x08011f87
 800b720:	080116e3 	.word	0x080116e3
 800b724:	200017dc 	.word	0x200017dc

0800b728 <Mode_Task>:
{
 800b728:	b570      	push	{r4, r5, r6, lr}
	if((HAL_GPIO_ReadPin(MODE_KEY_GPIO_Port, MODE_KEY_Pin) == GPIO_PIN_RESET))
 800b72a:	2104      	movs	r1, #4
 800b72c:	483f      	ldr	r0, [pc, #252]	; (800b82c <Mode_Task+0x104>)
 800b72e:	f7fe fab9 	bl	8009ca4 <HAL_GPIO_ReadPin>
 800b732:	2800      	cmp	r0, #0
 800b734:	d178      	bne.n	800b828 <Mode_Task+0x100>
		HAL_Delay(40);
 800b736:	2028      	movs	r0, #40	; 0x28
 800b738:	f7fd fdba 	bl	80092b0 <HAL_Delay>
		if((HAL_GPIO_ReadPin(MODE_KEY_GPIO_Port, MODE_KEY_Pin) == GPIO_PIN_RESET))
 800b73c:	2104      	movs	r1, #4
 800b73e:	483b      	ldr	r0, [pc, #236]	; (800b82c <Mode_Task+0x104>)
 800b740:	4c3b      	ldr	r4, [pc, #236]	; (800b830 <Mode_Task+0x108>)
 800b742:	f7fe faaf 	bl	8009ca4 <HAL_GPIO_ReadPin>
 800b746:	b910      	cbnz	r0, 800b74e <Mode_Task+0x26>
			gmode_count++;
 800b748:	7823      	ldrb	r3, [r4, #0]
 800b74a:	3301      	adds	r3, #1
 800b74c:	7023      	strb	r3, [r4, #0]
		if(gmode_count == 80)
 800b74e:	7823      	ldrb	r3, [r4, #0]
 800b750:	2b50      	cmp	r3, #80	; 0x50
 800b752:	d169      	bne.n	800b828 <Mode_Task+0x100>
			Beep(1,50);
 800b754:	2132      	movs	r1, #50	; 0x32
 800b756:	2001      	movs	r0, #1
 800b758:	f7ff fb1a 	bl	800ad90 <Beep>
			count1 = 0;
 800b75c:	4a35      	ldr	r2, [pc, #212]	; (800b834 <Mode_Task+0x10c>)
			TFT_Serial((uint8_t*)"page 2");
 800b75e:	4836      	ldr	r0, [pc, #216]	; (800b838 <Mode_Task+0x110>)
			g_type = ((uint32_t)g_rbuf[3] << 24) + ((uint32_t)g_rbuf[2] << 16) + ((uint32_t)g_rbuf[1] << 8) + (int32_t)g_rbuf[0];
 800b760:	4e36      	ldr	r6, [pc, #216]	; (800b83c <Mode_Task+0x114>)
			g_mark = ((uint32_t)g_rbuf[3] << 24) + ((uint32_t)g_rbuf[2] << 16) + ((uint32_t)g_rbuf[1] << 8) + (int32_t)g_rbuf[0];
 800b762:	4d37      	ldr	r5, [pc, #220]	; (800b840 <Mode_Task+0x118>)
			gmode_count = 0;
 800b764:	2300      	movs	r3, #0
			count1 = 0;
 800b766:	7013      	strb	r3, [r2, #0]
			count2 = 0;
 800b768:	4a36      	ldr	r2, [pc, #216]	; (800b844 <Mode_Task+0x11c>)
			gmode_count = 0;
 800b76a:	7023      	strb	r3, [r4, #0]
			count2 = 0;
 800b76c:	7013      	strb	r3, [r2, #0]
			count3 = 0;
 800b76e:	4a36      	ldr	r2, [pc, #216]	; (800b848 <Mode_Task+0x120>)
			eep_256_burst_read(TYPE_ADDRESS, g_rbuf, 4);
 800b770:	4c36      	ldr	r4, [pc, #216]	; (800b84c <Mode_Task+0x124>)
			count3 = 0;
 800b772:	7013      	strb	r3, [r2, #0]
			Vaccum_Push = 0;
 800b774:	4a36      	ldr	r2, [pc, #216]	; (800b850 <Mode_Task+0x128>)
 800b776:	7013      	strb	r3, [r2, #0]
			mode_state = pba_true;
 800b778:	4b36      	ldr	r3, [pc, #216]	; (800b854 <Mode_Task+0x12c>)
 800b77a:	2201      	movs	r2, #1
 800b77c:	701a      	strb	r2, [r3, #0]
			TFT_Serial((uint8_t*)"page 2");
 800b77e:	f7ff fadd 	bl	800ad3c <TFT_Serial>
			eep_256_burst_read(TYPE_ADDRESS, g_rbuf, 4);
 800b782:	4621      	mov	r1, r4
 800b784:	2204      	movs	r2, #4
 800b786:	200c      	movs	r0, #12
 800b788:	f002 fb0c 	bl	800dda4 <eep_256_burst_read>
			g_type = ((uint32_t)g_rbuf[3] << 24) + ((uint32_t)g_rbuf[2] << 16) + ((uint32_t)g_rbuf[1] << 8) + (int32_t)g_rbuf[0];
 800b78c:	78a3      	ldrb	r3, [r4, #2]
 800b78e:	78e2      	ldrb	r2, [r4, #3]
 800b790:	041b      	lsls	r3, r3, #16
 800b792:	eb03 6302 	add.w	r3, r3, r2, lsl #24
 800b796:	7822      	ldrb	r2, [r4, #0]
 800b798:	4413      	add	r3, r2
 800b79a:	7862      	ldrb	r2, [r4, #1]
			eep_256_burst_read(MARK_ADDRESS, g_rbuf, 4);
 800b79c:	4621      	mov	r1, r4
			g_type = ((uint32_t)g_rbuf[3] << 24) + ((uint32_t)g_rbuf[2] << 16) + ((uint32_t)g_rbuf[1] << 8) + (int32_t)g_rbuf[0];
 800b79e:	eb03 2302 	add.w	r3, r3, r2, lsl #8
			eep_256_burst_read(MARK_ADDRESS, g_rbuf, 4);
 800b7a2:	2010      	movs	r0, #16
 800b7a4:	2204      	movs	r2, #4
			g_type = ((uint32_t)g_rbuf[3] << 24) + ((uint32_t)g_rbuf[2] << 16) + ((uint32_t)g_rbuf[1] << 8) + (int32_t)g_rbuf[0];
 800b7a6:	6033      	str	r3, [r6, #0]
			eep_256_burst_read(MARK_ADDRESS, g_rbuf, 4);
 800b7a8:	f002 fafc 	bl	800dda4 <eep_256_burst_read>
			g_mark = ((uint32_t)g_rbuf[3] << 24) + ((uint32_t)g_rbuf[2] << 16) + ((uint32_t)g_rbuf[1] << 8) + (int32_t)g_rbuf[0];
 800b7ac:	78a3      	ldrb	r3, [r4, #2]
 800b7ae:	78e2      	ldrb	r2, [r4, #3]
 800b7b0:	041b      	lsls	r3, r3, #16
 800b7b2:	eb03 6302 	add.w	r3, r3, r2, lsl #24
 800b7b6:	7822      	ldrb	r2, [r4, #0]
 800b7b8:	4413      	add	r3, r2
 800b7ba:	7862      	ldrb	r2, [r4, #1]
			eep_256_burst_read(DEBUG_ADDRESS, g_rbuf, 4);
 800b7bc:	4621      	mov	r1, r4
			g_mark = ((uint32_t)g_rbuf[3] << 24) + ((uint32_t)g_rbuf[2] << 16) + ((uint32_t)g_rbuf[1] << 8) + (int32_t)g_rbuf[0];
 800b7be:	eb03 2302 	add.w	r3, r3, r2, lsl #8
			eep_256_burst_read(DEBUG_ADDRESS, g_rbuf, 4);
 800b7c2:	2014      	movs	r0, #20
 800b7c4:	2204      	movs	r2, #4
			g_mark = ((uint32_t)g_rbuf[3] << 24) + ((uint32_t)g_rbuf[2] << 16) + ((uint32_t)g_rbuf[1] << 8) + (int32_t)g_rbuf[0];
 800b7c6:	602b      	str	r3, [r5, #0]
			eep_256_burst_read(DEBUG_ADDRESS, g_rbuf, 4);
 800b7c8:	f002 faec 	bl	800dda4 <eep_256_burst_read>
			g_mode = ((uint32_t)g_rbuf[3] << 24) + ((uint32_t)g_rbuf[2] << 16) + ((uint32_t)g_rbuf[1] << 8) + (int32_t)g_rbuf[0];
 800b7cc:	78a3      	ldrb	r3, [r4, #2]
 800b7ce:	78e1      	ldrb	r1, [r4, #3]
 800b7d0:	4a21      	ldr	r2, [pc, #132]	; (800b858 <Mode_Task+0x130>)
 800b7d2:	041b      	lsls	r3, r3, #16
 800b7d4:	eb03 6301 	add.w	r3, r3, r1, lsl #24
 800b7d8:	7821      	ldrb	r1, [r4, #0]
 800b7da:	440b      	add	r3, r1
 800b7dc:	7861      	ldrb	r1, [r4, #1]
 800b7de:	eb03 2301 	add.w	r3, r3, r1, lsl #8
 800b7e2:	6013      	str	r3, [r2, #0]
			if(g_type == IN) TFT_Serial((uint8_t*)"t4.txt=\"IN\"");
 800b7e4:	6833      	ldr	r3, [r6, #0]
 800b7e6:	4614      	mov	r4, r2
 800b7e8:	b973      	cbnz	r3, 800b808 <Mode_Task+0xe0>
 800b7ea:	481c      	ldr	r0, [pc, #112]	; (800b85c <Mode_Task+0x134>)
			else if(g_type == ALL) TFT_Serial((uint8_t*)"t4.txt=\"IN+OUT\"");
 800b7ec:	f7ff faa6 	bl	800ad3c <TFT_Serial>
			if(g_mark == MARK_ON) TFT_Serial((uint8_t*)"t3.txt=\"MARK ON\"");
 800b7f0:	682b      	ldr	r3, [r5, #0]
 800b7f2:	b98b      	cbnz	r3, 800b818 <Mode_Task+0xf0>
 800b7f4:	481a      	ldr	r0, [pc, #104]	; (800b860 <Mode_Task+0x138>)
			else if(g_mark == MARK_OFF) TFT_Serial((uint8_t*)"t3.txt=\"MARK OFF\"");
 800b7f6:	f7ff faa1 	bl	800ad3c <TFT_Serial>
			if(g_mode == DEBUG_ON) TFT_Serial((uint8_t*)"t9.txt=\"ON\"");
 800b7fa:	6823      	ldr	r3, [r4, #0]
 800b7fc:	b983      	cbnz	r3, 800b820 <Mode_Task+0xf8>
 800b7fe:	4819      	ldr	r0, [pc, #100]	; (800b864 <Mode_Task+0x13c>)
}
 800b800:	e8bd 4070 	ldmia.w	sp!, {r4, r5, r6, lr}
			else if(g_mode == DEBUG_OFF) TFT_Serial((uint8_t*)"t9.txt=\"OFF\"");
 800b804:	f7ff ba9a 	b.w	800ad3c <TFT_Serial>
			else if(g_type == OUT) TFT_Serial((uint8_t*)"t4.txt=\"OUT\"");
 800b808:	2b01      	cmp	r3, #1
 800b80a:	d101      	bne.n	800b810 <Mode_Task+0xe8>
 800b80c:	4816      	ldr	r0, [pc, #88]	; (800b868 <Mode_Task+0x140>)
 800b80e:	e7ed      	b.n	800b7ec <Mode_Task+0xc4>
			else if(g_type == ALL) TFT_Serial((uint8_t*)"t4.txt=\"IN+OUT\"");
 800b810:	2b02      	cmp	r3, #2
 800b812:	d1ed      	bne.n	800b7f0 <Mode_Task+0xc8>
 800b814:	4815      	ldr	r0, [pc, #84]	; (800b86c <Mode_Task+0x144>)
 800b816:	e7e9      	b.n	800b7ec <Mode_Task+0xc4>
			else if(g_mark == MARK_OFF) TFT_Serial((uint8_t*)"t3.txt=\"MARK OFF\"");
 800b818:	2b01      	cmp	r3, #1
 800b81a:	d1ee      	bne.n	800b7fa <Mode_Task+0xd2>
 800b81c:	4814      	ldr	r0, [pc, #80]	; (800b870 <Mode_Task+0x148>)
 800b81e:	e7ea      	b.n	800b7f6 <Mode_Task+0xce>
			else if(g_mode == DEBUG_OFF) TFT_Serial((uint8_t*)"t9.txt=\"OFF\"");
 800b820:	2b01      	cmp	r3, #1
 800b822:	d101      	bne.n	800b828 <Mode_Task+0x100>
 800b824:	4813      	ldr	r0, [pc, #76]	; (800b874 <Mode_Task+0x14c>)
 800b826:	e7eb      	b.n	800b800 <Mode_Task+0xd8>
 800b828:	bd70      	pop	{r4, r5, r6, pc}
 800b82a:	bf00      	nop
 800b82c:	40020400 	.word	0x40020400
 800b830:	2000193c 	.word	0x2000193c
 800b834:	200017ab 	.word	0x200017ab
 800b838:	08011f6f 	.word	0x08011f6f
 800b83c:	200017d4 	.word	0x200017d4
 800b840:	200017bc 	.word	0x200017bc
 800b844:	200017ac 	.word	0x200017ac
 800b848:	200017ad 	.word	0x200017ad
 800b84c:	200017c4 	.word	0x200017c4
 800b850:	200017aa 	.word	0x200017aa
 800b854:	200017dc 	.word	0x200017dc
 800b858:	200017c0 	.word	0x200017c0
 800b85c:	08011edb 	.word	0x08011edb
 800b860:	08011f76 	.word	0x08011f76
 800b864:	08011f1d 	.word	0x08011f1d
 800b868:	08011ee7 	.word	0x08011ee7
 800b86c:	08011ef4 	.word	0x08011ef4
 800b870:	08011f87 	.word	0x08011f87
 800b874:	08011f29 	.word	0x08011f29

0800b878 <Create_DFF_In>:
{
 800b878:	b5f8      	push	{r3, r4, r5, r6, r7, lr}
	HAL_GPIO_WritePin(FET1_GPIO_Port, FET1_Pin, GPIO_PIN_RESET); //20 Ohm FET ON => Open inspection First
 800b87a:	2200      	movs	r2, #0
{
 800b87c:	4605      	mov	r5, r0
	HAL_GPIO_WritePin(FET1_GPIO_Port, FET1_Pin, GPIO_PIN_RESET); //20 Ohm FET ON => Open inspection First
 800b87e:	2140      	movs	r1, #64	; 0x40
 800b880:	480f      	ldr	r0, [pc, #60]	; (800b8c0 <Create_DFF_In+0x48>)
 800b882:	f7fe fa15 	bl	8009cb0 <HAL_GPIO_WritePin>
	HAL_Delay(1);
 800b886:	2001      	movs	r0, #1
 800b888:	f7fd fd12 	bl	80092b0 <HAL_Delay>
	inspection_num = model1[i].inspection_num; //IN
 800b88c:	eb05 0345 	add.w	r3, r5, r5, lsl #1
 800b890:	4d0c      	ldr	r5, [pc, #48]	; (800b8c4 <Create_DFF_In+0x4c>)
 800b892:	eb05 0583 	add.w	r5, r5, r3, lsl #2
	for(j=0; j<inspection_num; j++)
 800b896:	2400      	movs	r4, #0
	inspection_num = model1[i].inspection_num; //IN
 800b898:	792e      	ldrb	r6, [r5, #4]
	for(j=0; j<inspection_num; j++)
 800b89a:	42b4      	cmp	r4, r6
 800b89c:	db04      	blt.n	800b8a8 <Create_DFF_In+0x30>
	HAL_Delay(1);
 800b89e:	2001      	movs	r0, #1
}
 800b8a0:	e8bd 40f8 	ldmia.w	sp!, {r3, r4, r5, r6, r7, lr}
	HAL_Delay(1);
 800b8a4:	f7fd bd04 	b.w	80092b0 <HAL_Delay>
		Func = model1[i].pin[j].Func;
 800b8a8:	68ab      	ldr	r3, [r5, #8]
 800b8aa:	eb03 02c4 	add.w	r2, r3, r4, lsl #3
 800b8ae:	f853 7034 	ldr.w	r7, [r3, r4, lsl #3]
		DFF_Data(pinmap);
 800b8b2:	7910      	ldrb	r0, [r2, #4]
 800b8b4:	f002 fad6 	bl	800de64 <DFF_Data>
	for(j=0; j<inspection_num; j++)
 800b8b8:	3401      	adds	r4, #1
		Func();
 800b8ba:	47b8      	blx	r7
 800b8bc:	e7ed      	b.n	800b89a <Create_DFF_In+0x22>
 800b8be:	bf00      	nop
 800b8c0:	40020400 	.word	0x40020400
 800b8c4:	20000a4c 	.word	0x20000a4c

0800b8c8 <Create_DFF_OUT>:
{
 800b8c8:	b5f8      	push	{r3, r4, r5, r6, r7, lr}
	HAL_GPIO_WritePin(FET1_GPIO_Port, FET1_Pin, GPIO_PIN_RESET); //20 Ohm FET ON => Open inspection First
 800b8ca:	2200      	movs	r2, #0
{
 800b8cc:	4605      	mov	r5, r0
	HAL_GPIO_WritePin(FET1_GPIO_Port, FET1_Pin, GPIO_PIN_RESET); //20 Ohm FET ON => Open inspection First
 800b8ce:	2140      	movs	r1, #64	; 0x40
 800b8d0:	480f      	ldr	r0, [pc, #60]	; (800b910 <Create_DFF_OUT+0x48>)
 800b8d2:	f7fe f9ed 	bl	8009cb0 <HAL_GPIO_WritePin>
	HAL_Delay(1);
 800b8d6:	2001      	movs	r0, #1
 800b8d8:	f7fd fcea 	bl	80092b0 <HAL_Delay>
	inspection_num = model2[i].inspection_num; //IN
 800b8dc:	eb05 0345 	add.w	r3, r5, r5, lsl #1
 800b8e0:	4d0c      	ldr	r5, [pc, #48]	; (800b914 <Create_DFF_OUT+0x4c>)
 800b8e2:	eb05 0583 	add.w	r5, r5, r3, lsl #2
	for(j=0; j<inspection_num; j++)
 800b8e6:	2400      	movs	r4, #0
	inspection_num = model2[i].inspection_num; //IN
 800b8e8:	792e      	ldrb	r6, [r5, #4]
	for(j=0; j<inspection_num; j++)
 800b8ea:	42b4      	cmp	r4, r6
 800b8ec:	db04      	blt.n	800b8f8 <Create_DFF_OUT+0x30>
	HAL_Delay(1);
 800b8ee:	2001      	movs	r0, #1
}
 800b8f0:	e8bd 40f8 	ldmia.w	sp!, {r3, r4, r5, r6, r7, lr}
	HAL_Delay(1);
 800b8f4:	f7fd bcdc 	b.w	80092b0 <HAL_Delay>
		Func = model2[i].pin[j].Func;
 800b8f8:	68ab      	ldr	r3, [r5, #8]
 800b8fa:	eb03 02c4 	add.w	r2, r3, r4, lsl #3
 800b8fe:	f853 7034 	ldr.w	r7, [r3, r4, lsl #3]
		DFF_Data(pinmap);
 800b902:	7910      	ldrb	r0, [r2, #4]
 800b904:	f002 faae 	bl	800de64 <DFF_Data>
	for(j=0; j<inspection_num; j++)
 800b908:	3401      	adds	r4, #1
		Func();
 800b90a:	47b8      	blx	r7
 800b90c:	e7ed      	b.n	800b8ea <Create_DFF_OUT+0x22>
 800b90e:	bf00      	nop
 800b910:	40020400 	.word	0x40020400
 800b914:	200014e8 	.word	0x200014e8

0800b918 <DFF_Init_In>:
{
 800b918:	b5f8      	push	{r3, r4, r5, r6, r7, lr}
	HAL_GPIO_WritePin(FET1_GPIO_Port, FET1_Pin, GPIO_PIN_RESET); //20 Ohm FET ON => Open inspection First
 800b91a:	2200      	movs	r2, #0
{
 800b91c:	4605      	mov	r5, r0
	HAL_GPIO_WritePin(FET1_GPIO_Port, FET1_Pin, GPIO_PIN_RESET); //20 Ohm FET ON => Open inspection First
 800b91e:	2140      	movs	r1, #64	; 0x40
 800b920:	480c      	ldr	r0, [pc, #48]	; (800b954 <DFF_Init_In+0x3c>)
 800b922:	f7fe f9c5 	bl	8009cb0 <HAL_GPIO_WritePin>
	HAL_Delay(1);
 800b926:	2001      	movs	r0, #1
 800b928:	f7fd fcc2 	bl	80092b0 <HAL_Delay>
	inspection_num = model1[i].inspection_num; //IN
 800b92c:	eb05 0345 	add.w	r3, r5, r5, lsl #1
 800b930:	4d09      	ldr	r5, [pc, #36]	; (800b958 <DFF_Init_In+0x40>)
 800b932:	eb05 0583 	add.w	r5, r5, r3, lsl #2
	for(int j=0; j<inspection_num; j++)
 800b936:	2400      	movs	r4, #0
	inspection_num = model1[i].inspection_num; //IN
 800b938:	792e      	ldrb	r6, [r5, #4]
	for(int j=0; j<inspection_num; j++)
 800b93a:	42b4      	cmp	r4, r6
 800b93c:	db00      	blt.n	800b940 <DFF_Init_In+0x28>
}
 800b93e:	bdf8      	pop	{r3, r4, r5, r6, r7, pc}
		Func = model1[i].pin[j].Func;
 800b940:	68ab      	ldr	r3, [r5, #8]
		DFF_Data(0x00);
 800b942:	2000      	movs	r0, #0
		Func = model1[i].pin[j].Func;
 800b944:	f853 7034 	ldr.w	r7, [r3, r4, lsl #3]
		DFF_Data(0x00);
 800b948:	f002 fa8c 	bl	800de64 <DFF_Data>
	for(int j=0; j<inspection_num; j++)
 800b94c:	3401      	adds	r4, #1
		Func();
 800b94e:	47b8      	blx	r7
 800b950:	e7f3      	b.n	800b93a <DFF_Init_In+0x22>
 800b952:	bf00      	nop
 800b954:	40020400 	.word	0x40020400
 800b958:	20000a4c 	.word	0x20000a4c

0800b95c <Vaccum_Push_Set>:
{
 800b95c:	b538      	push	{r3, r4, r5, lr}
	Push_Flag = pba_false;
 800b95e:	4b1b      	ldr	r3, [pc, #108]	; (800b9cc <Vaccum_Push_Set+0x70>)
	if(g_type == IN && count3 != 3)
 800b960:	4c1b      	ldr	r4, [pc, #108]	; (800b9d0 <Vaccum_Push_Set+0x74>)
	Push_Flag = pba_false;
 800b962:	2200      	movs	r2, #0
 800b964:	701a      	strb	r2, [r3, #0]
	DFF_GND_Init();
 800b966:	f002 fd2a 	bl	800e3be <DFF_GND_Init>
	if(g_type == IN && count3 != 3)
 800b96a:	6820      	ldr	r0, [r4, #0]
 800b96c:	b938      	cbnz	r0, 800b97e <Vaccum_Push_Set+0x22>
 800b96e:	4d19      	ldr	r5, [pc, #100]	; (800b9d4 <Vaccum_Push_Set+0x78>)
 800b970:	782b      	ldrb	r3, [r5, #0]
 800b972:	2b03      	cmp	r3, #3
 800b974:	d003      	beq.n	800b97e <Vaccum_Push_Set+0x22>
		Create_DFF_In(0);
 800b976:	f7ff ff7f 	bl	800b878 <Create_DFF_In>
		count3 = 3;
 800b97a:	2303      	movs	r3, #3
 800b97c:	702b      	strb	r3, [r5, #0]
	if(g_type == OUT && count3 != 3)
 800b97e:	6823      	ldr	r3, [r4, #0]
 800b980:	2b01      	cmp	r3, #1
 800b982:	d108      	bne.n	800b996 <Vaccum_Push_Set+0x3a>
 800b984:	4d13      	ldr	r5, [pc, #76]	; (800b9d4 <Vaccum_Push_Set+0x78>)
 800b986:	782b      	ldrb	r3, [r5, #0]
 800b988:	2b03      	cmp	r3, #3
 800b98a:	d004      	beq.n	800b996 <Vaccum_Push_Set+0x3a>
		Create_DFF_OUT(0);
 800b98c:	2000      	movs	r0, #0
 800b98e:	f7ff ff9b 	bl	800b8c8 <Create_DFF_OUT>
		count3 = 3;
 800b992:	2303      	movs	r3, #3
 800b994:	702b      	strb	r3, [r5, #0]
	if (g_type == ALL)
 800b996:	6823      	ldr	r3, [r4, #0]
 800b998:	2b02      	cmp	r3, #2
 800b99a:	d10a      	bne.n	800b9b2 <Vaccum_Push_Set+0x56>
		if(count1 == 0 && count3 != 3)
 800b99c:	4b0e      	ldr	r3, [pc, #56]	; (800b9d8 <Vaccum_Push_Set+0x7c>)
 800b99e:	7818      	ldrb	r0, [r3, #0]
 800b9a0:	b960      	cbnz	r0, 800b9bc <Vaccum_Push_Set+0x60>
 800b9a2:	4c0c      	ldr	r4, [pc, #48]	; (800b9d4 <Vaccum_Push_Set+0x78>)
 800b9a4:	7823      	ldrb	r3, [r4, #0]
 800b9a6:	2b03      	cmp	r3, #3
 800b9a8:	d008      	beq.n	800b9bc <Vaccum_Push_Set+0x60>
			Create_DFF_In(0);
 800b9aa:	f7ff ff65 	bl	800b878 <Create_DFF_In>
			count3 = 3;
 800b9ae:	2303      	movs	r3, #3
 800b9b0:	7023      	strb	r3, [r4, #0]
	HAL_Delay(1);
 800b9b2:	2001      	movs	r0, #1
}
 800b9b4:	e8bd 4038 	ldmia.w	sp!, {r3, r4, r5, lr}
	HAL_Delay(1);
 800b9b8:	f7fd bc7a 	b.w	80092b0 <HAL_Delay>
			Create_DFF_OUT(0);
 800b9bc:	2000      	movs	r0, #0
 800b9be:	f7ff ff83 	bl	800b8c8 <Create_DFF_OUT>
			count2 =1;
 800b9c2:	4b06      	ldr	r3, [pc, #24]	; (800b9dc <Vaccum_Push_Set+0x80>)
 800b9c4:	2201      	movs	r2, #1
 800b9c6:	701a      	strb	r2, [r3, #0]
 800b9c8:	e7f3      	b.n	800b9b2 <Vaccum_Push_Set+0x56>
 800b9ca:	bf00      	nop
 800b9cc:	200017a5 	.word	0x200017a5
 800b9d0:	200017d4 	.word	0x200017d4
 800b9d4:	200017ad 	.word	0x200017ad
 800b9d8:	200017ab 	.word	0x200017ab
 800b9dc:	200017ac 	.word	0x200017ac

0800b9e0 <Start_Task>:

#endif


void Start_Task(void)
{
 800b9e0:	e92d 4ff0 	stmdb	sp!, {r4, r5, r6, r7, r8, r9, sl, fp, lr}

			if(Start_Flag == pba_true)
 800b9e4:	4bc4      	ldr	r3, [pc, #784]	; (800bcf8 <Start_Task+0x318>)
 800b9e6:	781d      	ldrb	r5, [r3, #0]
{
 800b9e8:	ed2d 8b02 	vpush	{d8}
			if(Start_Flag == pba_true)
 800b9ec:	b2ed      	uxtb	r5, r5
 800b9ee:	2d01      	cmp	r5, #1
{
 800b9f0:	b089      	sub	sp, #36	; 0x24
			if(Start_Flag == pba_true)
 800b9f2:	f040 81cd 	bne.w	800bd90 <Start_Task+0x3b0>
				void(*Func)(void) = NULL;
				char *string = NULL;
				float resistor = 0;
				OS_Inspect *model1 = NULL, *model2 = NULL;

				gmode_count = 0;
 800b9f6:	4ac1      	ldr	r2, [pc, #772]	; (800bcfc <Start_Task+0x31c>)

				In_ostate = pba_true;
 800b9f8:	f8df a34c 	ldr.w	sl, [pc, #844]	; 800bd48 <Start_Task+0x368>
				In_sstate = pba_true;
 800b9fc:	f8df 934c 	ldr.w	r9, [pc, #844]	; 800bd4c <Start_Task+0x36c>
				Out_ostate = pba_true;
 800ba00:	f8df 834c 	ldr.w	r8, [pc, #844]	; 800bd50 <Start_Task+0x370>
				Out_sstate = pba_true;
 800ba04:	4fbe      	ldr	r7, [pc, #760]	; (800bd00 <Start_Task+0x320>)
				In_ostate = pba_true;
 800ba06:	f88a 5000 	strb.w	r5, [sl]
				gmode_count = 0;
 800ba0a:	2400      	movs	r4, #0
				In_sstate = pba_true;
 800ba0c:	f889 5000 	strb.w	r5, [r9]
				gmode_count = 0;
 800ba10:	7014      	strb	r4, [r2, #0]
				Out_ostate = pba_true;
 800ba12:	f888 5000 	strb.w	r5, [r8]
				Out_sstate = pba_true;
 800ba16:	703d      	strb	r5, [r7, #0]

				Start_Flag = pba_false;
 800ba18:	701c      	strb	r4, [r3, #0]
				short_index = 70; // short start index num

				model1 = IN_SM_S928UB;
				model2 = OUT_SM_S928UB;

				g_tick_timer1 = HAL_GetTick();
 800ba1a:	f7fd fc43 	bl	80092a4 <HAL_GetTick>
 800ba1e:	4eb9      	ldr	r6, [pc, #740]	; (800bd04 <Start_Task+0x324>)

				HAL_GPIO_WritePin(FET1_GPIO_Port, FET1_Pin, GPIO_PIN_RESET); //20 Ohm FET ON => Open inspection First
 800ba20:	4622      	mov	r2, r4
				g_tick_timer1 = HAL_GetTick();
 800ba22:	6030      	str	r0, [r6, #0]
				HAL_GPIO_WritePin(FET1_GPIO_Port, FET1_Pin, GPIO_PIN_RESET); //20 Ohm FET ON => Open inspection First
 800ba24:	2140      	movs	r1, #64	; 0x40
 800ba26:	48b8      	ldr	r0, [pc, #736]	; (800bd08 <Start_Task+0x328>)
 800ba28:	f7fe f942 	bl	8009cb0 <HAL_GPIO_WritePin>
				HAL_Delay(1);
 800ba2c:	4628      	mov	r0, r5
 800ba2e:	f7fd fc3f 	bl	80092b0 <HAL_Delay>

				if(g_type == OUT)
 800ba32:	4bb6      	ldr	r3, [pc, #728]	; (800bd0c <Start_Task+0x32c>)
 800ba34:	f8cd a008 	str.w	sl, [sp, #8]
 800ba38:	681b      	ldr	r3, [r3, #0]
 800ba3a:	f8cd 900c 	str.w	r9, [sp, #12]
 800ba3e:	2b01      	cmp	r3, #1
 800ba40:	f8cd 8010 	str.w	r8, [sp, #16]
 800ba44:	9705      	str	r7, [sp, #20]
 800ba46:	9606      	str	r6, [sp, #24]
 800ba48:	d14b      	bne.n	800bae2 <Start_Task+0x102>
 800ba4a:	4eb1      	ldr	r6, [pc, #708]	; (800bd10 <Start_Task+0x330>)
								else if(inspection_kind == SHORT)
								{
									//HAL_Delay(1);
									resistor = OS_Function(SHORT);

									if(resistor < SHORT_SPEC)
 800ba4c:	eddf 8ab1 	vldr	s17, [pc, #708]	; 800bd14 <Start_Task+0x334>
										}
										//HAL_GPIO_WritePin(FET6_GPIO_Port, FET6_Pin, GPIO_PIN_RESET); //200K On
									}
									else
									{
										sprintf((char*)g_buff, "[ Ok]:[%s]:%.0f[R] SHORT\r\n", string, resistor);
 800ba50:	f8df 9300 	ldr.w	r9, [pc, #768]	; 800bd54 <Start_Task+0x374>
 800ba54:	4db0      	ldr	r5, [pc, #704]	; (800bd18 <Start_Task+0x338>)
								string = model2[i].Group_Name; //IN
 800ba56:	6837      	ldr	r7, [r6, #0]
								inspection_num = model2[i].inspection_num; //IN
 800ba58:	f896 a004 	ldrb.w	sl, [r6, #4]
								inspection_kind = model2[i].inspection_kind; //IN
 800ba5c:	f896 8005 	ldrb.w	r8, [r6, #5]
								for(j=0; j<inspection_num; j++)
 800ba60:	f04f 0b00 	mov.w	fp, #0
 800ba64:	45da      	cmp	sl, fp
 800ba66:	f300 819e 	bgt.w	800bda6 <Start_Task+0x3c6>
								if(inspection_kind == OPEN)
 800ba6a:	f1b8 0f00 	cmp.w	r8, #0
 800ba6e:	f040 81c2 	bne.w	800bdf6 <Start_Task+0x416>
									resistor = OS_Function(OPEN);
 800ba72:	4640      	mov	r0, r8
 800ba74:	f7fe fe78 	bl	800a768 <OS_Function>
									if(resistor > OPEN_SPEC)
 800ba78:	eef3 7a04 	vmov.f32	s15, #52	; 0x41a00000  20.0
 800ba7c:	eeb4 0ae7 	vcmpe.f32	s0, s15
 800ba80:	eef1 fa10 	vmrs	APSR_nzcv, fpscr
									resistor = OS_Function(OPEN);
 800ba84:	eeb0 8a40 	vmov.f32	s16, s0
									if(resistor > OPEN_SPEC)
 800ba88:	f340 819b 	ble.w	800bdc2 <Start_Task+0x3e2>
										Out_ostate = pba_false;
 800ba8c:	9b04      	ldr	r3, [sp, #16]
 800ba8e:	f883 8000 	strb.w	r8, [r3]
										if(g_mode == 0) LCD_ErrLog("[%s]:%.0f[R] OPEN\n", string, resistor);
 800ba92:	4ba2      	ldr	r3, [pc, #648]	; (800bd1c <Start_Task+0x33c>)
 800ba94:	681b      	ldr	r3, [r3, #0]
 800ba96:	b99b      	cbnz	r3, 800bac0 <Start_Task+0xe0>
 800ba98:	f8df b294 	ldr.w	fp, [pc, #660]	; 800bd30 <Start_Task+0x350>
 800ba9c:	48a0      	ldr	r0, [pc, #640]	; (800bd20 <Start_Task+0x340>)
 800ba9e:	2301      	movs	r3, #1
 800baa0:	f8cb 3000 	str.w	r3, [fp]
 800baa4:	f003 fc40 	bl	800f328 <iprintf>
 800baa8:	ee18 0a10 	vmov	r0, s16
 800baac:	f7fc fd54 	bl	8008558 <__aeabi_f2d>
 800bab0:	4602      	mov	r2, r0
 800bab2:	460b      	mov	r3, r1
 800bab4:	489b      	ldr	r0, [pc, #620]	; (800bd24 <Start_Task+0x344>)
 800bab6:	4639      	mov	r1, r7
 800bab8:	f003 fc36 	bl	800f328 <iprintf>
 800babc:	f8cb 8000 	str.w	r8, [fp]
								for(j=0; j<inspection_num; j++)
 800bac0:	2700      	movs	r7, #0
		//							HAL_GPIO_WritePin(FET6_GPIO_Port, FET6_Pin, GPIO_PIN_RESET);
									Fet_spec(1,FET_ON);
									HAL_Delay(1);
								}

								for(j=0; j<inspection_num; j++)
 800bac2:	45ba      	cmp	sl, r7
 800bac4:	f300 81e7 	bgt.w	800be96 <Start_Task+0x4b6>
									DFF_Data(0x00);
									Func();

								}

								if(Rst_Flag == pba_true) return;
 800bac8:	4b97      	ldr	r3, [pc, #604]	; (800bd28 <Start_Task+0x348>)
 800baca:	781b      	ldrb	r3, [r3, #0]
 800bacc:	2b01      	cmp	r3, #1
 800bace:	f000 815f 	beq.w	800bd90 <Start_Task+0x3b0>
							for(i=0; i<total_num; i++)
 800bad2:	3401      	adds	r4, #1
 800bad4:	2c80      	cmp	r4, #128	; 0x80
 800bad6:	f040 8160 	bne.w	800bd9a <Start_Task+0x3ba>

		//					HAL_GPIO_WritePin(FET6_GPIO_Port, FET6_Pin, GPIO_PIN_SET); //200K OFF
		//					HAL_Delay(1);
		//					HAL_GPIO_WritePin(FET1_GPIO_Port, FET1_Pin, GPIO_PIN_RESET); //20 ON
		//					HAL_Delay(1);
							Fet_spec(2,FET_OFF);
 800bada:	2100      	movs	r1, #0
 800badc:	2002      	movs	r0, #2
 800bade:	f7ff f879 	bl	800abd4 <Fet_spec>
						}

						if(g_type == IN)
 800bae2:	4b8a      	ldr	r3, [pc, #552]	; (800bd0c <Start_Task+0x32c>)
 800bae4:	681b      	ldr	r3, [r3, #0]
 800bae6:	2b00      	cmp	r3, #0
 800bae8:	d14f      	bne.n	800bb8a <Start_Task+0x1aa>
								else if(inspection_kind == SHORT)
								{
									//HAL_Delay(1);
									resistor = OS_Function(SHORT);

									if(resistor < SHORT_SPEC)
 800baea:	eddf 8a8a 	vldr	s17, [pc, #552]	; 800bd14 <Start_Task+0x334>
 800baee:	4e8f      	ldr	r6, [pc, #572]	; (800bd2c <Start_Task+0x34c>)
							for(i=0; i<total_num; i++)
 800baf0:	2700      	movs	r7, #0
								string = model1[i].Group_Name; //OUT
 800baf2:	6834      	ldr	r4, [r6, #0]
								inspection_num = model1[i].inspection_num; //OUT
 800baf4:	f896 a004 	ldrb.w	sl, [r6, #4]
								inspection_kind = model1[i].inspection_kind; //OUT
 800baf8:	7975      	ldrb	r5, [r6, #5]
								for(j=0; j<inspection_num; j++)
 800bafa:	f04f 0800 	mov.w	r8, #0
 800bafe:	45c2      	cmp	sl, r8
 800bb00:	f300 81d2 	bgt.w	800bea8 <Start_Task+0x4c8>
								if(inspection_kind == OPEN)
 800bb04:	2d00      	cmp	r5, #0
 800bb06:	f040 8219 	bne.w	800bf3c <Start_Task+0x55c>
									resistor = OS_Function(OPEN);
 800bb0a:	4628      	mov	r0, r5
 800bb0c:	f7fe fe2c 	bl	800a768 <OS_Function>
									if(resistor > OPEN_SPEC)
 800bb10:	eef3 7a04 	vmov.f32	s15, #52	; 0x41a00000  20.0
 800bb14:	eeb4 0ae7 	vcmpe.f32	s0, s15
 800bb18:	eef1 fa10 	vmrs	APSR_nzcv, fpscr
									resistor = OS_Function(OPEN);
 800bb1c:	eeb0 8a40 	vmov.f32	s16, s0
									if(resistor > OPEN_SPEC)
 800bb20:	f340 81ce 	ble.w	800bec0 <Start_Task+0x4e0>
										In_ostate = pba_false;
 800bb24:	9b02      	ldr	r3, [sp, #8]
 800bb26:	701d      	strb	r5, [r3, #0]
										if(g_mode == 0) LCD_ErrLog("[%s]:IN 3.3[V] %.0f[R] OPEN\n", string, resistor);
 800bb28:	4b7c      	ldr	r3, [pc, #496]	; (800bd1c <Start_Task+0x33c>)
 800bb2a:	681b      	ldr	r3, [r3, #0]
 800bb2c:	b983      	cbnz	r3, 800bb50 <Start_Task+0x170>
 800bb2e:	4e80      	ldr	r6, [pc, #512]	; (800bd30 <Start_Task+0x350>)
 800bb30:	487b      	ldr	r0, [pc, #492]	; (800bd20 <Start_Task+0x340>)
 800bb32:	2301      	movs	r3, #1
 800bb34:	6033      	str	r3, [r6, #0]
 800bb36:	f003 fbf7 	bl	800f328 <iprintf>
 800bb3a:	ee18 0a10 	vmov	r0, s16
 800bb3e:	f7fc fd0b 	bl	8008558 <__aeabi_f2d>
 800bb42:	4602      	mov	r2, r0
 800bb44:	460b      	mov	r3, r1
 800bb46:	487b      	ldr	r0, [pc, #492]	; (800bd34 <Start_Task+0x354>)
 800bb48:	4621      	mov	r1, r4
 800bb4a:	f003 fbed 	bl	800f328 <iprintf>
 800bb4e:	6035      	str	r5, [r6, #0]
		/*					HAL_GPIO_WritePin(FET6_GPIO_Port, FET6_Pin, GPIO_PIN_SET); //200K OFF
							HAL_Delay(1);
							HAL_GPIO_WritePin(FET1_GPIO_Port, FET1_Pin, GPIO_PIN_RESET); //20 ON
							HAL_Delay(1);*/

							Fet_spec(2,FET_OFF);
 800bb50:	2100      	movs	r1, #0
 800bb52:	2002      	movs	r0, #2
 800bb54:	f7ff f83e 	bl	800abd4 <Fet_spec>
							temp = (g_tick_timer2-g_tick_timer1)/1000;
 800bb58:	4b77      	ldr	r3, [pc, #476]	; (800bd38 <Start_Task+0x358>)


							char distime [20];

							sprintf(distime,"02%d:02%d:02%d",gio,phut,giay);*/
							sprintf((char*)g_buff, "t9.txt=\"%s\ [s]", temp);
 800bb5a:	4978      	ldr	r1, [pc, #480]	; (800bd3c <Start_Task+0x35c>)
							temp = (g_tick_timer2-g_tick_timer1)/1000;
 800bb5c:	681a      	ldr	r2, [r3, #0]
 800bb5e:	9b06      	ldr	r3, [sp, #24]
							sprintf((char*)g_buff, "t9.txt=\"%s\ [s]", temp);
 800bb60:	486d      	ldr	r0, [pc, #436]	; (800bd18 <Start_Task+0x338>)
							temp = (g_tick_timer2-g_tick_timer1)/1000;
 800bb62:	681b      	ldr	r3, [r3, #0]
 800bb64:	1ad2      	subs	r2, r2, r3
 800bb66:	f44f 737a 	mov.w	r3, #1000	; 0x3e8
 800bb6a:	fbb2 f2f3 	udiv	r2, r2, r3
 800bb6e:	4b74      	ldr	r3, [pc, #464]	; (800bd40 <Start_Task+0x360>)
 800bb70:	601a      	str	r2, [r3, #0]
							sprintf((char*)g_buff, "t9.txt=\"%s\ [s]", temp);
 800bb72:	f003 fd0b 	bl	800f58c <siprintf>
							TFT_Serial(g_buff);
 800bb76:	4868      	ldr	r0, [pc, #416]	; (800bd18 <Start_Task+0x338>)
 800bb78:	f7ff f8e0 	bl	800ad3c <TFT_Serial>

							if (In_sstate == pba_false || In_ostate == pba_false ) break;
 800bb7c:	9b03      	ldr	r3, [sp, #12]
 800bb7e:	781b      	ldrb	r3, [r3, #0]
 800bb80:	b11b      	cbz	r3, 800bb8a <Start_Task+0x1aa>
 800bb82:	9b02      	ldr	r3, [sp, #8]
 800bb84:	781b      	ldrb	r3, [r3, #0]
 800bb86:	2b00      	cmp	r3, #0
 800bb88:	d1b1      	bne.n	800baee <Start_Task+0x10e>
							}
						}



						if(g_type == ALL)
 800bb8a:	4b60      	ldr	r3, [pc, #384]	; (800bd0c <Start_Task+0x32c>)
 800bb8c:	681b      	ldr	r3, [r3, #0]
 800bb8e:	2b02      	cmp	r3, #2
 800bb90:	f040 80f1 	bne.w	800bd76 <Start_Task+0x396>
 800bb94:	2400      	movs	r4, #0
		//							HAL_GPIO_WritePin(FET6_GPIO_Port,FET6_Pin, GPIO_PIN_RESET); //200K FET ON
		//							HAL_Delay(1);
									Fet_spec(2,FET_ON);
								}

								string = model1[i].Group_Name; //IN
 800bb96:	f8df 8194 	ldr.w	r8, [pc, #404]	; 800bd2c <Start_Task+0x34c>
						if(g_type == ALL)
 800bb9a:	4625      	mov	r5, r4
								string = model1[i].Group_Name; //IN
 800bb9c:	f04f 090c 	mov.w	r9, #12
 800bba0:	fb09 f205 	mul.w	r2, r9, r5
 800bba4:	eb02 0308 	add.w	r3, r2, r8
 800bba8:	f852 6008 	ldr.w	r6, [r2, r8]
								inspection_num = model1[i].inspection_num; //IN
 800bbac:	f893 a004 	ldrb.w	sl, [r3, #4]
								inspection_kind = model1[i].inspection_kind; //IN
 800bbb0:	795f      	ldrb	r7, [r3, #5]

								for(j=0; j<inspection_num; j++)
 800bbb2:	f04f 0b00 	mov.w	fp, #0
 800bbb6:	45da      	cmp	sl, fp
 800bbb8:	f300 8228 	bgt.w	800c00c <Start_Task+0x62c>
									Func();
								}

		//						HAL_Delay(1);

								if(inspection_kind == OPEN)
 800bbbc:	2f00      	cmp	r7, #0
 800bbbe:	f040 8275 	bne.w	800c0ac <Start_Task+0x6cc>
								{
									resistor = OS_Function(OPEN);
 800bbc2:	4638      	mov	r0, r7
 800bbc4:	f7fe fdd0 	bl	800a768 <OS_Function>

									if(resistor > OPEN_SPEC)
 800bbc8:	eef3 7a04 	vmov.f32	s15, #52	; 0x41a00000  20.0
 800bbcc:	eeb4 0ae7 	vcmpe.f32	s0, s15
 800bbd0:	eef1 fa10 	vmrs	APSR_nzcv, fpscr
									resistor = OS_Function(OPEN);
 800bbd4:	eeb0 8a40 	vmov.f32	s16, s0
									if(resistor > OPEN_SPEC)
 800bbd8:	f340 8228 	ble.w	800c02c <Start_Task+0x64c>
									{
										In_ostate = pba_false;
 800bbdc:	9b02      	ldr	r3, [sp, #8]
 800bbde:	701f      	strb	r7, [r3, #0]
										if(g_mode == 0) LCD_ErrLog("[%s]:%.0f[R] OPEN\n", string, resistor);
 800bbe0:	4b4e      	ldr	r3, [pc, #312]	; (800bd1c <Start_Task+0x33c>)
 800bbe2:	681b      	ldr	r3, [r3, #0]
 800bbe4:	b99b      	cbnz	r3, 800bc0e <Start_Task+0x22e>
 800bbe6:	f8df b148 	ldr.w	fp, [pc, #328]	; 800bd30 <Start_Task+0x350>
 800bbea:	484d      	ldr	r0, [pc, #308]	; (800bd20 <Start_Task+0x340>)
 800bbec:	2301      	movs	r3, #1
 800bbee:	f8cb 3000 	str.w	r3, [fp]
 800bbf2:	f003 fb99 	bl	800f328 <iprintf>
 800bbf6:	ee18 0a10 	vmov	r0, s16
 800bbfa:	f7fc fcad 	bl	8008558 <__aeabi_f2d>
 800bbfe:	4602      	mov	r2, r0
 800bc00:	460b      	mov	r3, r1
 800bc02:	4848      	ldr	r0, [pc, #288]	; (800bd24 <Start_Task+0x344>)
 800bc04:	4631      	mov	r1, r6
 800bc06:	f003 fb8f 	bl	800f328 <iprintf>
 800bc0a:	f8cb 7000 	str.w	r7, [fp]
										k++;
 800bc0e:	3401      	adds	r4, #1
										if(k==10){LCD_ErrLog("ERROR TOO MANY OPEN\n");k=0;i = short_index - 1;}
 800bc10:	2c0a      	cmp	r4, #10
 800bc12:	d10b      	bne.n	800bc2c <Start_Task+0x24c>
 800bc14:	4d46      	ldr	r5, [pc, #280]	; (800bd30 <Start_Task+0x350>)
 800bc16:	4842      	ldr	r0, [pc, #264]	; (800bd20 <Start_Task+0x340>)
 800bc18:	2301      	movs	r3, #1
 800bc1a:	602b      	str	r3, [r5, #0]
 800bc1c:	2400      	movs	r4, #0
 800bc1e:	f003 fb83 	bl	800f328 <iprintf>
 800bc22:	4848      	ldr	r0, [pc, #288]	; (800bd44 <Start_Task+0x364>)
 800bc24:	f003 fbf4 	bl	800f410 <puts>
 800bc28:	602c      	str	r4, [r5, #0]
 800bc2a:	2545      	movs	r5, #69	; 0x45
								//sprintf((char*)g_buff, "[%s]:%.0f[OHM]\r\n", string, resistor);
								//Debug_serial((char*)g_buff);

								for(j=0; j<inspection_num; j++)
								{
									Func = model1[i].pin[j].Func;
 800bc2c:	4b3f      	ldr	r3, [pc, #252]	; (800bd2c <Start_Task+0x34c>)
								for(j=0; j<inspection_num; j++)
 800bc2e:	2600      	movs	r6, #0
									Func = model1[i].pin[j].Func;
 800bc30:	fb09 3705 	mla	r7, r9, r5, r3
								for(j=0; j<inspection_num; j++)
 800bc34:	45b2      	cmp	sl, r6
 800bc36:	f300 8288 	bgt.w	800c14a <Start_Task+0x76a>

									DFF_Data(0x00);
									Func();
								}

								if(Rst_Flag == pba_true) return;
 800bc3a:	4b3b      	ldr	r3, [pc, #236]	; (800bd28 <Start_Task+0x348>)
 800bc3c:	9306      	str	r3, [sp, #24]
 800bc3e:	781a      	ldrb	r2, [r3, #0]
 800bc40:	2a01      	cmp	r2, #1
 800bc42:	f000 80a5 	beq.w	800bd90 <Start_Task+0x3b0>
							for(i=0; i<total_num; i++)
 800bc46:	3501      	adds	r5, #1
 800bc48:	2d7f      	cmp	r5, #127	; 0x7f
 800bc4a:	f340 81d9 	ble.w	800c000 <Start_Task+0x620>

		//					HAL_GPIO_WritePin(FET6_GPIO_Port, FET6_Pin, GPIO_PIN_SET); //200K OFF
		//					HAL_Delay(1);
		//					HAL_GPIO_WritePin(FET1_GPIO_Port, FET1_Pin, GPIO_PIN_RESET); //20 ON
		//					HAL_Delay(1);
							Fet_spec(2,FET_OFF);
 800bc4e:	2100      	movs	r1, #0
 800bc50:	2002      	movs	r0, #2
 800bc52:	f7fe ffbf 	bl	800abd4 <Fet_spec>
		//							HAL_GPIO_WritePin(FET6_GPIO_Port, FET6_Pin, GPIO_PIN_RESET); //200K FET ON
		//							HAL_Delay(1);
									Fet_spec(2,FET_ON);
								}

								string = model2[i].Group_Name; //IN
 800bc56:	f8df 80b8 	ldr.w	r8, [pc, #184]	; 800bd10 <Start_Task+0x330>
							for(i=0; i<total_num; i++)
 800bc5a:	2500      	movs	r5, #0
								string = model2[i].Group_Name; //IN
 800bc5c:	f04f 090c 	mov.w	r9, #12
 800bc60:	fb09 f205 	mul.w	r2, r9, r5
 800bc64:	eb02 0308 	add.w	r3, r2, r8
 800bc68:	f852 6008 	ldr.w	r6, [r2, r8]
								inspection_num = model2[i].inspection_num; //IN
 800bc6c:	f893 a004 	ldrb.w	sl, [r3, #4]
								inspection_kind = model2[i].inspection_kind; //IN
 800bc70:	795f      	ldrb	r7, [r3, #5]

								for(j=0; j<inspection_num; j++)
 800bc72:	f04f 0b00 	mov.w	fp, #0
 800bc76:	45da      	cmp	sl, fp
 800bc78:	f300 8276 	bgt.w	800c168 <Start_Task+0x788>
									Func();
								}

								//HAL_Delay(1);

								if(inspection_kind == OPEN)
 800bc7c:	2f00      	cmp	r7, #0
 800bc7e:	f040 829d 	bne.w	800c1bc <Start_Task+0x7dc>
								{
									resistor = OS_Function(OPEN);
 800bc82:	4638      	mov	r0, r7
 800bc84:	f7fe fd70 	bl	800a768 <OS_Function>

									if(resistor > OPEN_SPEC)
 800bc88:	eef3 7a04 	vmov.f32	s15, #52	; 0x41a00000  20.0
 800bc8c:	eeb4 0ae7 	vcmpe.f32	s0, s15
 800bc90:	eef1 fa10 	vmrs	APSR_nzcv, fpscr
									resistor = OS_Function(OPEN);
 800bc94:	eeb0 8a40 	vmov.f32	s16, s0
									if(resistor > OPEN_SPEC)
 800bc98:	f340 8276 	ble.w	800c188 <Start_Task+0x7a8>
									{
										Out_ostate = pba_false;
 800bc9c:	9b04      	ldr	r3, [sp, #16]
 800bc9e:	701f      	strb	r7, [r3, #0]
										if(g_mode == 0) LCD_ErrLog("[%s]:%.0f[R] OPEN\n", string, resistor);
 800bca0:	4b1e      	ldr	r3, [pc, #120]	; (800bd1c <Start_Task+0x33c>)
 800bca2:	681b      	ldr	r3, [r3, #0]
 800bca4:	b99b      	cbnz	r3, 800bcce <Start_Task+0x2ee>
 800bca6:	f8df b088 	ldr.w	fp, [pc, #136]	; 800bd30 <Start_Task+0x350>
 800bcaa:	481d      	ldr	r0, [pc, #116]	; (800bd20 <Start_Task+0x340>)
 800bcac:	2301      	movs	r3, #1
 800bcae:	f8cb 3000 	str.w	r3, [fp]
 800bcb2:	f003 fb39 	bl	800f328 <iprintf>
 800bcb6:	ee18 0a10 	vmov	r0, s16
 800bcba:	f7fc fc4d 	bl	8008558 <__aeabi_f2d>
 800bcbe:	4602      	mov	r2, r0
 800bcc0:	460b      	mov	r3, r1
 800bcc2:	4818      	ldr	r0, [pc, #96]	; (800bd24 <Start_Task+0x344>)
 800bcc4:	4631      	mov	r1, r6
 800bcc6:	f003 fb2f 	bl	800f328 <iprintf>
 800bcca:	f8cb 7000 	str.w	r7, [fp]
										k++;
 800bcce:	3401      	adds	r4, #1
										if(k==10){LCD_ErrLog("ERROR TOO MANY OPEN\n");k=0;i = short_index - 1;}
 800bcd0:	2c0a      	cmp	r4, #10
 800bcd2:	d10b      	bne.n	800bcec <Start_Task+0x30c>
 800bcd4:	4d16      	ldr	r5, [pc, #88]	; (800bd30 <Start_Task+0x350>)
 800bcd6:	4812      	ldr	r0, [pc, #72]	; (800bd20 <Start_Task+0x340>)
 800bcd8:	2301      	movs	r3, #1
 800bcda:	602b      	str	r3, [r5, #0]
 800bcdc:	2400      	movs	r4, #0
 800bcde:	f003 fb23 	bl	800f328 <iprintf>
 800bce2:	4818      	ldr	r0, [pc, #96]	; (800bd44 <Start_Task+0x364>)
 800bce4:	f003 fb94 	bl	800f410 <puts>
 800bce8:	602c      	str	r4, [r5, #0]
 800bcea:	2545      	movs	r5, #69	; 0x45
								//sprintf((char*)g_buff, "[%s]:%.0f[OHM]\r\n", string, resistor);
								//Debug_serial((char*)g_buff);

								for(j=0; j<inspection_num; j++)
								{
									Func = model2[i].pin[j].Func;
 800bcec:	4b08      	ldr	r3, [pc, #32]	; (800bd10 <Start_Task+0x330>)
								for(j=0; j<inspection_num; j++)
 800bcee:	2600      	movs	r6, #0
									Func = model2[i].pin[j].Func;
 800bcf0:	fb09 3705 	mla	r7, r9, r5, r3
 800bcf4:	e030      	b.n	800bd58 <Start_Task+0x378>
 800bcf6:	bf00      	nop
 800bcf8:	200017a8 	.word	0x200017a8
 800bcfc:	2000193c 	.word	0x2000193c
 800bd00:	2000006b 	.word	0x2000006b
 800bd04:	200017cc 	.word	0x200017cc
 800bd08:	40020400 	.word	0x40020400
 800bd0c:	200017d4 	.word	0x200017d4
 800bd10:	20000ee8 	.word	0x20000ee8
 800bd14:	4b189680 	.word	0x4b189680
 800bd18:	200019b4 	.word	0x200019b4
 800bd1c:	200017c0 	.word	0x200017c0
 800bd20:	08011db6 	.word	0x08011db6
 800bd24:	08011dbd 	.word	0x08011dbd
 800bd28:	200017a7 	.word	0x200017a7
 800bd2c:	2000044c 	.word	0x2000044c
 800bd30:	20007018 	.word	0x20007018
 800bd34:	08011e18 	.word	0x08011e18
 800bd38:	200017d0 	.word	0x200017d0
 800bd3c:	08011e9e 	.word	0x08011e9e
 800bd40:	200017e4 	.word	0x200017e4
 800bd44:	08011ead 	.word	0x08011ead
 800bd48:	20000068 	.word	0x20000068
 800bd4c:	20000069 	.word	0x20000069
 800bd50:	2000006a 	.word	0x2000006a
 800bd54:	08011dfd 	.word	0x08011dfd
								for(j=0; j<inspection_num; j++)
 800bd58:	45b2      	cmp	sl, r6
 800bd5a:	f300 827e 	bgt.w	800c25a <Start_Task+0x87a>

									DFF_Data(0x00);
									Func();
								}

								if(Rst_Flag == pba_true) return;
 800bd5e:	9b06      	ldr	r3, [sp, #24]
 800bd60:	781b      	ldrb	r3, [r3, #0]
 800bd62:	2b01      	cmp	r3, #1
 800bd64:	d014      	beq.n	800bd90 <Start_Task+0x3b0>
							for(i=0; i<total_num; i++)
 800bd66:	3501      	adds	r5, #1
 800bd68:	2d7f      	cmp	r5, #127	; 0x7f
 800bd6a:	f340 81f7 	ble.w	800c15c <Start_Task+0x77c>

		//					HAL_GPIO_WritePin(FET6_GPIO_Port, FET6_Pin, GPIO_PIN_SET); //200K OFF
		//					HAL_Delay(1);
		//					HAL_GPIO_WritePin(FET1_GPIO_Port, FET1_Pin, GPIO_PIN_RESET); //20 ON
		//					HAL_Delay(1);
							Fet_spec(2,FET_OFF);
 800bd6e:	2100      	movs	r1, #0
 800bd70:	2002      	movs	r0, #2
 800bd72:	f7fe ff2f 	bl	800abd4 <Fet_spec>

						}
						if((g_test == DEBUG_ON) && (Debug_Flag == pba_false)) Test_Result_Flag = pba_true;	//TEST 
 800bd76:	4bba      	ldr	r3, [pc, #744]	; (800c060 <Start_Task+0x680>)
 800bd78:	681b      	ldr	r3, [r3, #0]
 800bd7a:	2201      	movs	r2, #1
 800bd7c:	2b00      	cmp	r3, #0
 800bd7e:	f040 8275 	bne.w	800c26c <Start_Task+0x88c>
 800bd82:	4bb8      	ldr	r3, [pc, #736]	; (800c064 <Start_Task+0x684>)
 800bd84:	781b      	ldrb	r3, [r3, #0]
 800bd86:	2b00      	cmp	r3, #0
 800bd88:	f040 8270 	bne.w	800c26c <Start_Task+0x88c>
 800bd8c:	4bb6      	ldr	r3, [pc, #728]	; (800c068 <Start_Task+0x688>)
						else Result_Flag = pba_true;
 800bd8e:	701a      	strb	r2, [r3, #0]
					}


	}
 800bd90:	b009      	add	sp, #36	; 0x24
 800bd92:	ecbd 8b02 	vpop	{d8}
 800bd96:	e8bd 8ff0 	ldmia.w	sp!, {r4, r5, r6, r7, r8, r9, sl, fp, pc}
								if(i == short_index)
 800bd9a:	2c46      	cmp	r4, #70	; 0x46
 800bd9c:	d101      	bne.n	800bda2 <Start_Task+0x3c2>
 800bd9e:	f7fe ff03 	bl	800aba8 <Fet_spec.part.0>
 800bda2:	360c      	adds	r6, #12
 800bda4:	e657      	b.n	800ba56 <Start_Task+0x76>
									Func = model2[i].pin[j].Func;
 800bda6:	68b3      	ldr	r3, [r6, #8]
 800bda8:	eb03 02cb 	add.w	r2, r3, fp, lsl #3
 800bdac:	f853 303b 	ldr.w	r3, [r3, fp, lsl #3]
									DFF_Data(pinmap);
 800bdb0:	7910      	ldrb	r0, [r2, #4]
									Func = model2[i].pin[j].Func;
 800bdb2:	9307      	str	r3, [sp, #28]
									DFF_Data(pinmap);
 800bdb4:	f002 f856 	bl	800de64 <DFF_Data>
									Func();
 800bdb8:	9b07      	ldr	r3, [sp, #28]
 800bdba:	4798      	blx	r3
								for(j=0; j<inspection_num; j++)
 800bdbc:	f10b 0b01 	add.w	fp, fp, #1
 800bdc0:	e650      	b.n	800ba64 <Start_Task+0x84>
										if (resistor > 10)
 800bdc2:	eef2 7a04 	vmov.f32	s15, #36	; 0x41200000  10.0
 800bdc6:	eeb4 0ae7 	vcmpe.f32	s0, s15
 800bdca:	eef1 fa10 	vmrs	APSR_nzcv, fpscr
											sprintf((char*)g_buff, "[Ok]:[%s]:%.0f[R] OPEN\r\n", string, resistor);
 800bdce:	bfca      	itet	gt
 800bdd0:	ee70 7a67 	vsubgt.f32	s15, s0, s15
											sprintf((char*)g_buff, "[Ok]:[%s]:%.0f[R] OPEN\r\n", string, resistor);
 800bdd4:	ee10 0a10 	vmovle	r0, s0
											sprintf((char*)g_buff, "[Ok]:[%s]:%.0f[R] OPEN\r\n", string, resistor);
 800bdd8:	ee17 0a90 	vmovgt	r0, s15
											sprintf((char*)g_buff, "[Ok]:[%s]:%.0f[R] OPEN\r\n", string, resistor);
 800bddc:	f7fc fbbc 	bl	8008558 <__aeabi_f2d>
 800bde0:	463a      	mov	r2, r7
 800bde2:	e9cd 0100 	strd	r0, r1, [sp]
 800bde6:	49a1      	ldr	r1, [pc, #644]	; (800c06c <Start_Task+0x68c>)
 800bde8:	4628      	mov	r0, r5
 800bdea:	f003 fbcf 	bl	800f58c <siprintf>
											Debug_serial((char*)g_buff);
 800bdee:	4628      	mov	r0, r5
 800bdf0:	f7fe ff94 	bl	800ad1c <Debug_serial>
 800bdf4:	e664      	b.n	800bac0 <Start_Task+0xe0>
								else if(inspection_kind == SHORT)
 800bdf6:	f1b8 0f02 	cmp.w	r8, #2
 800bdfa:	f47f ae61 	bne.w	800bac0 <Start_Task+0xe0>
									resistor = OS_Function(SHORT);
 800bdfe:	4640      	mov	r0, r8
 800be00:	f7fe fcb2 	bl	800a768 <OS_Function>
									if(resistor < SHORT_SPEC)
 800be04:	eeb4 0ae8 	vcmpe.f32	s0, s17
 800be08:	eef1 fa10 	vmrs	APSR_nzcv, fpscr
 800be0c:	d540      	bpl.n	800be90 <Start_Task+0x4b0>
										resistor = R_Function();
 800be0e:	f7fe fd9b 	bl	800a948 <R_Function>
										if(resistor < SHORT_SPEC)
 800be12:	eeb4 0ae8 	vcmpe.f32	s0, s17
 800be16:	eef1 fa10 	vmrs	APSR_nzcv, fpscr
										resistor = R_Function();
 800be1a:	eeb0 8a40 	vmov.f32	s16, s0
										if(resistor < SHORT_SPEC)
 800be1e:	d528      	bpl.n	800be72 <Start_Task+0x492>
											Out_sstate = pba_false;//short  
 800be20:	9a05      	ldr	r2, [sp, #20]
 800be22:	2300      	movs	r3, #0
 800be24:	7013      	strb	r3, [r2, #0]
											if(g_mode == 0) LCD_ErrLog("[%s]:%.0f[R] SHORT\n", string, resistor);
 800be26:	4b92      	ldr	r3, [pc, #584]	; (800c070 <Start_Task+0x690>)
 800be28:	f8d3 b000 	ldr.w	fp, [r3]
 800be2c:	f1bb 0f00 	cmp.w	fp, #0
 800be30:	d113      	bne.n	800be5a <Start_Task+0x47a>
 800be32:	f8df 825c 	ldr.w	r8, [pc, #604]	; 800c090 <Start_Task+0x6b0>
 800be36:	488f      	ldr	r0, [pc, #572]	; (800c074 <Start_Task+0x694>)
 800be38:	2301      	movs	r3, #1
 800be3a:	f8c8 3000 	str.w	r3, [r8]
 800be3e:	f003 fa73 	bl	800f328 <iprintf>
 800be42:	ee18 0a10 	vmov	r0, s16
 800be46:	f7fc fb87 	bl	8008558 <__aeabi_f2d>
 800be4a:	4602      	mov	r2, r0
 800be4c:	460b      	mov	r3, r1
 800be4e:	488a      	ldr	r0, [pc, #552]	; (800c078 <Start_Task+0x698>)
 800be50:	4639      	mov	r1, r7
 800be52:	f003 fa69 	bl	800f328 <iprintf>
 800be56:	f8c8 b000 	str.w	fp, [r8]
											Fet_spec(1,FET_ON);
 800be5a:	2101      	movs	r1, #1
 800be5c:	4608      	mov	r0, r1
 800be5e:	f7fe feb9 	bl	800abd4 <Fet_spec>
									Fet_spec(1,FET_ON);
 800be62:	2101      	movs	r1, #1
 800be64:	4608      	mov	r0, r1
 800be66:	f7fe feb5 	bl	800abd4 <Fet_spec>
									HAL_Delay(1);
 800be6a:	2001      	movs	r0, #1
 800be6c:	f7fd fa20 	bl	80092b0 <HAL_Delay>
 800be70:	e626      	b.n	800bac0 <Start_Task+0xe0>
											sprintf((char*)g_buff, "[ Ok]:[%s]:%.0f[R] SHORT\r\n", string, resistor);
 800be72:	ee10 0a10 	vmov	r0, s0
										sprintf((char*)g_buff, "[ Ok]:[%s]:%.0f[R] SHORT\r\n", string, resistor);
 800be76:	f7fc fb6f 	bl	8008558 <__aeabi_f2d>
 800be7a:	463a      	mov	r2, r7
 800be7c:	e9cd 0100 	strd	r0, r1, [sp]
 800be80:	4649      	mov	r1, r9
 800be82:	4628      	mov	r0, r5
 800be84:	f003 fb82 	bl	800f58c <siprintf>
										Debug_serial((char*)g_buff);
 800be88:	4628      	mov	r0, r5
 800be8a:	f7fe ff47 	bl	800ad1c <Debug_serial>
 800be8e:	e7e8      	b.n	800be62 <Start_Task+0x482>
										sprintf((char*)g_buff, "[ Ok]:[%s]:%.0f[R] SHORT\r\n", string, resistor);
 800be90:	ee10 0a10 	vmov	r0, s0
 800be94:	e7ef      	b.n	800be76 <Start_Task+0x496>
									Func = model2[i].pin[j].Func;
 800be96:	68b3      	ldr	r3, [r6, #8]
									DFF_Data(0x00);
 800be98:	2000      	movs	r0, #0
									Func = model2[i].pin[j].Func;
 800be9a:	f853 8037 	ldr.w	r8, [r3, r7, lsl #3]
									DFF_Data(0x00);
 800be9e:	f001 ffe1 	bl	800de64 <DFF_Data>
								for(j=0; j<inspection_num; j++)
 800bea2:	3701      	adds	r7, #1
									Func();
 800bea4:	47c0      	blx	r8
 800bea6:	e60c      	b.n	800bac2 <Start_Task+0xe2>
									Func = model1[i].pin[j].Func;
 800bea8:	68b3      	ldr	r3, [r6, #8]
 800beaa:	eb03 02c8 	add.w	r2, r3, r8, lsl #3
 800beae:	f853 9038 	ldr.w	r9, [r3, r8, lsl #3]
									DFF_Data(pinmap);
 800beb2:	7910      	ldrb	r0, [r2, #4]
 800beb4:	f001 ffd6 	bl	800de64 <DFF_Data>
								for(j=0; j<inspection_num; j++)
 800beb8:	f108 0801 	add.w	r8, r8, #1
									Func();
 800bebc:	47c8      	blx	r9
 800bebe:	e61e      	b.n	800bafe <Start_Task+0x11e>
										if (resistor > 10)
 800bec0:	eef2 7a04 	vmov.f32	s15, #36	; 0x41200000  10.0
 800bec4:	eeb4 0ae7 	vcmpe.f32	s0, s15
 800bec8:	eef1 fa10 	vmrs	APSR_nzcv, fpscr
 800becc:	dd33      	ble.n	800bf36 <Start_Task+0x556>
										sprintf((char*)g_buff, "[Ok]:[%s]:IN 3.3[V] %.0f[R] OPEN\r\n", string, resistor);
 800bece:	ee70 7a67 	vsub.f32	s15, s0, s15
 800bed2:	ee17 0a90 	vmov	r0, s15
 800bed6:	f7fc fb3f 	bl	8008558 <__aeabi_f2d>
 800beda:	4680      	mov	r8, r0
 800bedc:	4689      	mov	r9, r1
 800bede:	4622      	mov	r2, r4
 800bee0:	4966      	ldr	r1, [pc, #408]	; (800c07c <Start_Task+0x69c>)
										LCD_OkLog("[%s]:IN 3.3[V] %.0f[R] OPEN\r\n", string, resistor);
 800bee2:	f8df b1ac 	ldr.w	fp, [pc, #428]	; 800c090 <Start_Task+0x6b0>
										sprintf((char*)g_buff, "[Ok]:[%s]:IN 3.3[V] %.0f[R] OPEN\r\n", string, resistor);
 800bee6:	4866      	ldr	r0, [pc, #408]	; (800c080 <Start_Task+0x6a0>)
 800bee8:	e9cd 8900 	strd	r8, r9, [sp]
 800beec:	f003 fb4e 	bl	800f58c <siprintf>
										LCD_OkLog("[%s]:IN 3.3[V] %.0f[R] OPEN\r\n", string, resistor);
 800bef0:	2302      	movs	r3, #2
 800bef2:	4864      	ldr	r0, [pc, #400]	; (800c084 <Start_Task+0x6a4>)
 800bef4:	f8cb 3000 	str.w	r3, [fp]
 800bef8:	f003 fa16 	bl	800f328 <iprintf>
 800befc:	4642      	mov	r2, r8
 800befe:	464b      	mov	r3, r9
 800bf00:	4621      	mov	r1, r4
 800bf02:	4861      	ldr	r0, [pc, #388]	; (800c088 <Start_Task+0x6a8>)
 800bf04:	f003 fa10 	bl	800f328 <iprintf>
										Debug_serial((char*)g_buff);
 800bf08:	485d      	ldr	r0, [pc, #372]	; (800c080 <Start_Task+0x6a0>)
										LCD_OkLog("[%s]:IN 3.3[V] %.0f[R] OPEN\r\n", string, resistor);
 800bf0a:	f8cb 5000 	str.w	r5, [fp]
										Debug_serial((char*)g_buff);
 800bf0e:	f7fe ff05 	bl	800ad1c <Debug_serial>
								for(j=0; j<inspection_num; j++)
 800bf12:	2400      	movs	r4, #0
								for(j=0; j<inspection_num; j++)
 800bf14:	45a2      	cmp	sl, r4
 800bf16:	dc6a      	bgt.n	800bfee <Start_Task+0x60e>
								if(Rst_Flag == pba_true) return;
 800bf18:	4b5c      	ldr	r3, [pc, #368]	; (800c08c <Start_Task+0x6ac>)
 800bf1a:	781b      	ldrb	r3, [r3, #0]
 800bf1c:	2b01      	cmp	r3, #1
 800bf1e:	f43f af37 	beq.w	800bd90 <Start_Task+0x3b0>
							for(i=0; i<total_num; i++)
 800bf22:	3701      	adds	r7, #1
 800bf24:	2f80      	cmp	r7, #128	; 0x80
 800bf26:	f43f ae13 	beq.w	800bb50 <Start_Task+0x170>
								if(i == short_index)
 800bf2a:	2f46      	cmp	r7, #70	; 0x46
 800bf2c:	d101      	bne.n	800bf32 <Start_Task+0x552>
 800bf2e:	f7fe fe3b 	bl	800aba8 <Fet_spec.part.0>
 800bf32:	360c      	adds	r6, #12
 800bf34:	e5dd      	b.n	800baf2 <Start_Task+0x112>
										sprintf((char*)g_buff, "[Ok]:[%s]:IN 3.3[V] %.0f[R] OPEN\r\n", string, resistor);
 800bf36:	ee10 0a10 	vmov	r0, s0
 800bf3a:	e7cc      	b.n	800bed6 <Start_Task+0x4f6>
								else if(inspection_kind == SHORT)
 800bf3c:	2d02      	cmp	r5, #2
 800bf3e:	d1e8      	bne.n	800bf12 <Start_Task+0x532>
									resistor = OS_Function(SHORT);
 800bf40:	4628      	mov	r0, r5
 800bf42:	f7fe fc11 	bl	800a768 <OS_Function>
									if(resistor < SHORT_SPEC)
 800bf46:	eeb4 0ae8 	vcmpe.f32	s0, s17
 800bf4a:	eef1 fa10 	vmrs	APSR_nzcv, fpscr
 800bf4e:	d54b      	bpl.n	800bfe8 <Start_Task+0x608>
										resistor = R_Function();
 800bf50:	f7fe fcfa 	bl	800a948 <R_Function>
										if(resistor < SHORT_SPEC)
 800bf54:	eeb4 0ae8 	vcmpe.f32	s0, s17
 800bf58:	eef1 fa10 	vmrs	APSR_nzcv, fpscr
										resistor = R_Function();
 800bf5c:	eeb0 8a40 	vmov.f32	s16, s0
										if(resistor < SHORT_SPEC)
 800bf60:	d519      	bpl.n	800bf96 <Start_Task+0x5b6>
											In_sstate = pba_false;
 800bf62:	9a03      	ldr	r2, [sp, #12]
 800bf64:	2300      	movs	r3, #0
 800bf66:	7013      	strb	r3, [r2, #0]
											if(g_mode == 0) LCD_ErrLog("[%s]:IN 3.3[V] %.0f[R]SHORT\n", string, resistor);
 800bf68:	4b41      	ldr	r3, [pc, #260]	; (800c070 <Start_Task+0x690>)
 800bf6a:	681e      	ldr	r6, [r3, #0]
 800bf6c:	2e00      	cmp	r6, #0
 800bf6e:	f47f adef 	bne.w	800bb50 <Start_Task+0x170>
 800bf72:	4d47      	ldr	r5, [pc, #284]	; (800c090 <Start_Task+0x6b0>)
 800bf74:	483f      	ldr	r0, [pc, #252]	; (800c074 <Start_Task+0x694>)
 800bf76:	2301      	movs	r3, #1
 800bf78:	602b      	str	r3, [r5, #0]
 800bf7a:	f003 f9d5 	bl	800f328 <iprintf>
 800bf7e:	ee18 0a10 	vmov	r0, s16
 800bf82:	f7fc fae9 	bl	8008558 <__aeabi_f2d>
 800bf86:	4602      	mov	r2, r0
 800bf88:	460b      	mov	r3, r1
 800bf8a:	4842      	ldr	r0, [pc, #264]	; (800c094 <Start_Task+0x6b4>)
 800bf8c:	4621      	mov	r1, r4
 800bf8e:	f003 f9cb 	bl	800f328 <iprintf>
 800bf92:	602e      	str	r6, [r5, #0]
 800bf94:	e5dc      	b.n	800bb50 <Start_Task+0x170>
											sprintf((char*)g_buff, "[Ok]:[%s]:IN 3.3[V] %.0f[R]SHORT\r\n", string, resistor);
 800bf96:	ee10 0a10 	vmov	r0, s0
										sprintf((char*)g_buff, "[Ok]:[%s]:IN 3.3[V] %.0f[R]SHORT\r\n", string, resistor);
 800bf9a:	f7fc fadd 	bl	8008558 <__aeabi_f2d>
 800bf9e:	4680      	mov	r8, r0
 800bfa0:	4689      	mov	r9, r1
 800bfa2:	4622      	mov	r2, r4
 800bfa4:	493c      	ldr	r1, [pc, #240]	; (800c098 <Start_Task+0x6b8>)
										LCD_OkLog("[%s]:IN 3.3[V] %.0f[R]SHORT\r\n", string, resistor);
 800bfa6:	f8df b0e8 	ldr.w	fp, [pc, #232]	; 800c090 <Start_Task+0x6b0>
										sprintf((char*)g_buff, "[Ok]:[%s]:IN 3.3[V] %.0f[R]SHORT\r\n", string, resistor);
 800bfaa:	4835      	ldr	r0, [pc, #212]	; (800c080 <Start_Task+0x6a0>)
 800bfac:	e9cd 8900 	strd	r8, r9, [sp]
 800bfb0:	f003 faec 	bl	800f58c <siprintf>
										LCD_OkLog("[%s]:IN 3.3[V] %.0f[R]SHORT\r\n", string, resistor);
 800bfb4:	4833      	ldr	r0, [pc, #204]	; (800c084 <Start_Task+0x6a4>)
 800bfb6:	f8cb 5000 	str.w	r5, [fp]
 800bfba:	f003 f9b5 	bl	800f328 <iprintf>
 800bfbe:	4642      	mov	r2, r8
 800bfc0:	4621      	mov	r1, r4
 800bfc2:	464b      	mov	r3, r9
 800bfc4:	4835      	ldr	r0, [pc, #212]	; (800c09c <Start_Task+0x6bc>)
 800bfc6:	f003 f9af 	bl	800f328 <iprintf>
 800bfca:	2300      	movs	r3, #0
										Debug_serial((char*)g_buff);
 800bfcc:	482c      	ldr	r0, [pc, #176]	; (800c080 <Start_Task+0x6a0>)
										LCD_OkLog("[%s]:IN 3.3[V] %.0f[R]SHORT\r\n", string, resistor);
 800bfce:	f8cb 3000 	str.w	r3, [fp]
										Debug_serial((char*)g_buff);
 800bfd2:	f7fe fea3 	bl	800ad1c <Debug_serial>
								HAL_GPIO_WritePin(FET6_GPIO_Port, FET6_Pin, GPIO_PIN_RESET);
 800bfd6:	2200      	movs	r2, #0
 800bfd8:	2120      	movs	r1, #32
 800bfda:	4831      	ldr	r0, [pc, #196]	; (800c0a0 <Start_Task+0x6c0>)
 800bfdc:	f7fd fe68 	bl	8009cb0 <HAL_GPIO_WritePin>
								HAL_Delay(1);
 800bfe0:	2001      	movs	r0, #1
 800bfe2:	f7fd f965 	bl	80092b0 <HAL_Delay>
 800bfe6:	e794      	b.n	800bf12 <Start_Task+0x532>
										sprintf((char*)g_buff, "[Ok]:[%s]:IN 3.3[V] %.0f[R]SHORT\r\n", string, resistor);
 800bfe8:	ee10 0a10 	vmov	r0, s0
 800bfec:	e7d5      	b.n	800bf9a <Start_Task+0x5ba>
									Func = model1[i].pin[j].Func;
 800bfee:	68b3      	ldr	r3, [r6, #8]
									DFF_Data(0x00);
 800bff0:	2000      	movs	r0, #0
									Func = model1[i].pin[j].Func;
 800bff2:	f853 5034 	ldr.w	r5, [r3, r4, lsl #3]
									DFF_Data(0x00);
 800bff6:	f001 ff35 	bl	800de64 <DFF_Data>
								for(j=0; j<inspection_num; j++)
 800bffa:	3401      	adds	r4, #1
									Func();
 800bffc:	47a8      	blx	r5
 800bffe:	e789      	b.n	800bf14 <Start_Task+0x534>
								if(i == short_index)
 800c000:	2d46      	cmp	r5, #70	; 0x46
 800c002:	f47f adcd 	bne.w	800bba0 <Start_Task+0x1c0>
 800c006:	f7fe fdcf 	bl	800aba8 <Fet_spec.part.0>
 800c00a:	e5c9      	b.n	800bba0 <Start_Task+0x1c0>
									Func = model1[i].pin[j].Func;
 800c00c:	689a      	ldr	r2, [r3, #8]
 800c00e:	9307      	str	r3, [sp, #28]
 800c010:	eb02 01cb 	add.w	r1, r2, fp, lsl #3
 800c014:	f852 203b 	ldr.w	r2, [r2, fp, lsl #3]
									DFF_Data(pinmap);
 800c018:	7908      	ldrb	r0, [r1, #4]
									Func = model1[i].pin[j].Func;
 800c01a:	9206      	str	r2, [sp, #24]
									DFF_Data(pinmap);
 800c01c:	f001 ff22 	bl	800de64 <DFF_Data>
									Func();
 800c020:	9a06      	ldr	r2, [sp, #24]
 800c022:	4790      	blx	r2
								for(j=0; j<inspection_num; j++)
 800c024:	f10b 0b01 	add.w	fp, fp, #1
 800c028:	9b07      	ldr	r3, [sp, #28]
 800c02a:	e5c4      	b.n	800bbb6 <Start_Task+0x1d6>
										if (resistor > 10)
 800c02c:	eef2 7a04 	vmov.f32	s15, #36	; 0x41200000  10.0
 800c030:	eeb4 0ae7 	vcmpe.f32	s0, s15
 800c034:	eef1 fa10 	vmrs	APSR_nzcv, fpscr
										sprintf((char*)g_buff, "[ Ok]:[%s]:%.0f[R] OPEN\r\n", string, resistor);
 800c038:	bfca      	itet	gt
 800c03a:	ee70 7a67 	vsubgt.f32	s15, s0, s15
										sprintf((char*)g_buff, "[ Ok]:[%s]:%.0f[R] OPEN\r\n", string, resistor);
 800c03e:	ee10 0a10 	vmovle	r0, s0
										sprintf((char*)g_buff, "[ Ok]:[%s]:%.0f[R] OPEN\r\n", string, resistor);
 800c042:	ee17 0a90 	vmovgt	r0, s15
										sprintf((char*)g_buff, "[ Ok]:[%s]:%.0f[R] OPEN\r\n", string, resistor);
 800c046:	f7fc fa87 	bl	8008558 <__aeabi_f2d>
 800c04a:	4632      	mov	r2, r6
 800c04c:	e9cd 0100 	strd	r0, r1, [sp]
 800c050:	4914      	ldr	r1, [pc, #80]	; (800c0a4 <Start_Task+0x6c4>)
 800c052:	480b      	ldr	r0, [pc, #44]	; (800c080 <Start_Task+0x6a0>)
 800c054:	f003 fa9a 	bl	800f58c <siprintf>
										Debug_serial((char*)g_buff);
 800c058:	4809      	ldr	r0, [pc, #36]	; (800c080 <Start_Task+0x6a0>)
 800c05a:	f7fe fe5f 	bl	800ad1c <Debug_serial>
 800c05e:	e5e5      	b.n	800bc2c <Start_Task+0x24c>
 800c060:	200017c8 	.word	0x200017c8
 800c064:	200017a4 	.word	0x200017a4
 800c068:	200017a9 	.word	0x200017a9
 800c06c:	08011dd0 	.word	0x08011dd0
 800c070:	200017c0 	.word	0x200017c0
 800c074:	08011db6 	.word	0x08011db6
 800c078:	08011de9 	.word	0x08011de9
 800c07c:	08011e35 	.word	0x08011e35
 800c080:	200019b4 	.word	0x200019b4
 800c084:	08011e58 	.word	0x08011e58
 800c088:	08011e3a 	.word	0x08011e3a
 800c08c:	200017a7 	.word	0x200017a7
 800c090:	20007018 	.word	0x20007018
 800c094:	08011e5e 	.word	0x08011e5e
 800c098:	08011e7b 	.word	0x08011e7b
 800c09c:	08011e80 	.word	0x08011e80
 800c0a0:	40020400 	.word	0x40020400
 800c0a4:	08011ec1 	.word	0x08011ec1
 800c0a8:	4b189680 	.word	0x4b189680
								else if(inspection_kind == SHORT)
 800c0ac:	2f02      	cmp	r7, #2
 800c0ae:	f47f adbd 	bne.w	800bc2c <Start_Task+0x24c>
									resistor = OS_Function(SHORT);
 800c0b2:	4638      	mov	r0, r7
 800c0b4:	f7fe fb58 	bl	800a768 <OS_Function>
									if(resistor < SHORT_SPEC)
 800c0b8:	ed5f 8a05 	vldr	s17, [pc, #-20]	; 800c0a8 <Start_Task+0x6c8>
 800c0bc:	eeb4 0ae8 	vcmpe.f32	s0, s17
 800c0c0:	eef1 fa10 	vmrs	APSR_nzcv, fpscr
 800c0c4:	d53e      	bpl.n	800c144 <Start_Task+0x764>
										resistor = R_Function();
 800c0c6:	f7fe fc3f 	bl	800a948 <R_Function>
										if(resistor < SHORT_SPEC)
 800c0ca:	eeb4 0ae8 	vcmpe.f32	s0, s17
 800c0ce:	eef1 fa10 	vmrs	APSR_nzcv, fpscr
										resistor = R_Function();
 800c0d2:	eeb0 8a40 	vmov.f32	s16, s0
										if(resistor < SHORT_SPEC)
 800c0d6:	d526      	bpl.n	800c126 <Start_Task+0x746>
											In_sstate = pba_false;//short  
 800c0d8:	9a03      	ldr	r2, [sp, #12]
 800c0da:	2300      	movs	r3, #0
 800c0dc:	7013      	strb	r3, [r2, #0]
											if(g_mode == 0) LCD_ErrLog("[%s]:%.0f[R] SHORT\n", string, resistor);
 800c0de:	4b64      	ldr	r3, [pc, #400]	; (800c270 <Start_Task+0x890>)
 800c0e0:	f8d3 b000 	ldr.w	fp, [r3]
 800c0e4:	f1bb 0f00 	cmp.w	fp, #0
 800c0e8:	d111      	bne.n	800c10e <Start_Task+0x72e>
 800c0ea:	4f62      	ldr	r7, [pc, #392]	; (800c274 <Start_Task+0x894>)
 800c0ec:	4862      	ldr	r0, [pc, #392]	; (800c278 <Start_Task+0x898>)
 800c0ee:	2301      	movs	r3, #1
 800c0f0:	603b      	str	r3, [r7, #0]
 800c0f2:	f003 f919 	bl	800f328 <iprintf>
 800c0f6:	ee18 0a10 	vmov	r0, s16
 800c0fa:	f7fc fa2d 	bl	8008558 <__aeabi_f2d>
 800c0fe:	4602      	mov	r2, r0
 800c100:	460b      	mov	r3, r1
 800c102:	485e      	ldr	r0, [pc, #376]	; (800c27c <Start_Task+0x89c>)
 800c104:	4631      	mov	r1, r6
 800c106:	f003 f90f 	bl	800f328 <iprintf>
 800c10a:	f8c7 b000 	str.w	fp, [r7]
											Fet_spec(1,FET_ON);
 800c10e:	2101      	movs	r1, #1
 800c110:	4608      	mov	r0, r1
 800c112:	f7fe fd5f 	bl	800abd4 <Fet_spec>
									Fet_spec(1,FET_ON);
 800c116:	2101      	movs	r1, #1
 800c118:	4608      	mov	r0, r1
 800c11a:	f7fe fd5b 	bl	800abd4 <Fet_spec>
									HAL_Delay(1);
 800c11e:	2001      	movs	r0, #1
 800c120:	f7fd f8c6 	bl	80092b0 <HAL_Delay>
 800c124:	e582      	b.n	800bc2c <Start_Task+0x24c>
											sprintf((char*)g_buff, "[ Ok]:[%s]:%.0f[R] SHORT\r\n", string, resistor);
 800c126:	ee10 0a10 	vmov	r0, s0
										sprintf((char*)g_buff, "[ Ok]:[%s]:%.0f[R] SHORT\r\n", string, resistor);
 800c12a:	f7fc fa15 	bl	8008558 <__aeabi_f2d>
 800c12e:	4632      	mov	r2, r6
 800c130:	e9cd 0100 	strd	r0, r1, [sp]
 800c134:	4952      	ldr	r1, [pc, #328]	; (800c280 <Start_Task+0x8a0>)
 800c136:	4853      	ldr	r0, [pc, #332]	; (800c284 <Start_Task+0x8a4>)
 800c138:	f003 fa28 	bl	800f58c <siprintf>
										Debug_serial((char*)g_buff);
 800c13c:	4851      	ldr	r0, [pc, #324]	; (800c284 <Start_Task+0x8a4>)
 800c13e:	f7fe fded 	bl	800ad1c <Debug_serial>
 800c142:	e7e8      	b.n	800c116 <Start_Task+0x736>
										sprintf((char*)g_buff, "[ Ok]:[%s]:%.0f[R] SHORT\r\n", string, resistor);
 800c144:	ee10 0a10 	vmov	r0, s0
 800c148:	e7ef      	b.n	800c12a <Start_Task+0x74a>
									Func = model1[i].pin[j].Func;
 800c14a:	68bb      	ldr	r3, [r7, #8]
									DFF_Data(0x00);
 800c14c:	2000      	movs	r0, #0
									Func = model1[i].pin[j].Func;
 800c14e:	f853 b036 	ldr.w	fp, [r3, r6, lsl #3]
									DFF_Data(0x00);
 800c152:	f001 fe87 	bl	800de64 <DFF_Data>
								for(j=0; j<inspection_num; j++)
 800c156:	3601      	adds	r6, #1
									Func();
 800c158:	47d8      	blx	fp
 800c15a:	e56b      	b.n	800bc34 <Start_Task+0x254>
								if(i == short_index)
 800c15c:	2d46      	cmp	r5, #70	; 0x46
 800c15e:	f47f ad7f 	bne.w	800bc60 <Start_Task+0x280>
 800c162:	f7fe fd21 	bl	800aba8 <Fet_spec.part.0>
 800c166:	e57b      	b.n	800bc60 <Start_Task+0x280>
									Func = model2[i].pin[j].Func;
 800c168:	689a      	ldr	r2, [r3, #8]
 800c16a:	9303      	str	r3, [sp, #12]
 800c16c:	eb02 01cb 	add.w	r1, r2, fp, lsl #3
 800c170:	f852 203b 	ldr.w	r2, [r2, fp, lsl #3]
									DFF_Data(pinmap);
 800c174:	7908      	ldrb	r0, [r1, #4]
									Func = model2[i].pin[j].Func;
 800c176:	9202      	str	r2, [sp, #8]
									DFF_Data(pinmap);
 800c178:	f001 fe74 	bl	800de64 <DFF_Data>
									Func();
 800c17c:	9a02      	ldr	r2, [sp, #8]
 800c17e:	4790      	blx	r2
								for(j=0; j<inspection_num; j++)
 800c180:	f10b 0b01 	add.w	fp, fp, #1
 800c184:	9b03      	ldr	r3, [sp, #12]
 800c186:	e576      	b.n	800bc76 <Start_Task+0x296>
										if (resistor > 10)
 800c188:	eef2 7a04 	vmov.f32	s15, #36	; 0x41200000  10.0
 800c18c:	eeb4 0ae7 	vcmpe.f32	s0, s15
 800c190:	eef1 fa10 	vmrs	APSR_nzcv, fpscr
										sprintf((char*)g_buff, "[ Ok]:[%s]:%.0f[R] OPEN\r\n", string, resistor);
 800c194:	bfca      	itet	gt
 800c196:	ee70 7a67 	vsubgt.f32	s15, s0, s15
										sprintf((char*)g_buff, "[ Ok]:[%s]:%.0f[R] OPEN\r\n", string, resistor);
 800c19a:	ee10 0a10 	vmovle	r0, s0
										sprintf((char*)g_buff, "[ Ok]:[%s]:%.0f[R] OPEN\r\n", string, resistor);
 800c19e:	ee17 0a90 	vmovgt	r0, s15
										sprintf((char*)g_buff, "[ Ok]:[%s]:%.0f[R] OPEN\r\n", string, resistor);
 800c1a2:	f7fc f9d9 	bl	8008558 <__aeabi_f2d>
 800c1a6:	4632      	mov	r2, r6
 800c1a8:	e9cd 0100 	strd	r0, r1, [sp]
 800c1ac:	4936      	ldr	r1, [pc, #216]	; (800c288 <Start_Task+0x8a8>)
 800c1ae:	4835      	ldr	r0, [pc, #212]	; (800c284 <Start_Task+0x8a4>)
 800c1b0:	f003 f9ec 	bl	800f58c <siprintf>
										Debug_serial((char*)g_buff);
 800c1b4:	4833      	ldr	r0, [pc, #204]	; (800c284 <Start_Task+0x8a4>)
 800c1b6:	f7fe fdb1 	bl	800ad1c <Debug_serial>
 800c1ba:	e597      	b.n	800bcec <Start_Task+0x30c>
								else if(inspection_kind == SHORT)
 800c1bc:	2f02      	cmp	r7, #2
 800c1be:	f47f ad95 	bne.w	800bcec <Start_Task+0x30c>
									resistor = OS_Function(SHORT);
 800c1c2:	4638      	mov	r0, r7
 800c1c4:	f7fe fad0 	bl	800a768 <OS_Function>
									if(resistor < SHORT_SPEC)
 800c1c8:	eddf 8a30 	vldr	s17, [pc, #192]	; 800c28c <Start_Task+0x8ac>
 800c1cc:	eeb4 0ae8 	vcmpe.f32	s0, s17
 800c1d0:	eef1 fa10 	vmrs	APSR_nzcv, fpscr
 800c1d4:	d53e      	bpl.n	800c254 <Start_Task+0x874>
										resistor = R_Function();
 800c1d6:	f7fe fbb7 	bl	800a948 <R_Function>
										if(resistor < SHORT_SPEC)
 800c1da:	eeb4 0ae8 	vcmpe.f32	s0, s17
 800c1de:	eef1 fa10 	vmrs	APSR_nzcv, fpscr
										resistor = R_Function();
 800c1e2:	eeb0 8a40 	vmov.f32	s16, s0
										if(resistor < SHORT_SPEC)
 800c1e6:	d526      	bpl.n	800c236 <Start_Task+0x856>
											Out_sstate = pba_false;//short  
 800c1e8:	9a05      	ldr	r2, [sp, #20]
 800c1ea:	2300      	movs	r3, #0
 800c1ec:	7013      	strb	r3, [r2, #0]
											if(g_mode == 0) LCD_ErrLog("[%s]:%.0f[R] SHORT\n", string, resistor);
 800c1ee:	4b20      	ldr	r3, [pc, #128]	; (800c270 <Start_Task+0x890>)
 800c1f0:	f8d3 b000 	ldr.w	fp, [r3]
 800c1f4:	f1bb 0f00 	cmp.w	fp, #0
 800c1f8:	d111      	bne.n	800c21e <Start_Task+0x83e>
 800c1fa:	4f1e      	ldr	r7, [pc, #120]	; (800c274 <Start_Task+0x894>)
 800c1fc:	481e      	ldr	r0, [pc, #120]	; (800c278 <Start_Task+0x898>)
 800c1fe:	2301      	movs	r3, #1
 800c200:	603b      	str	r3, [r7, #0]
 800c202:	f003 f891 	bl	800f328 <iprintf>
 800c206:	ee18 0a10 	vmov	r0, s16
 800c20a:	f7fc f9a5 	bl	8008558 <__aeabi_f2d>
 800c20e:	4602      	mov	r2, r0
 800c210:	460b      	mov	r3, r1
 800c212:	481a      	ldr	r0, [pc, #104]	; (800c27c <Start_Task+0x89c>)
 800c214:	4631      	mov	r1, r6
 800c216:	f003 f887 	bl	800f328 <iprintf>
 800c21a:	f8c7 b000 	str.w	fp, [r7]
											Fet_spec(1,FET_ON);
 800c21e:	2101      	movs	r1, #1
 800c220:	4608      	mov	r0, r1
 800c222:	f7fe fcd7 	bl	800abd4 <Fet_spec>
									Fet_spec(1,FET_ON);
 800c226:	2101      	movs	r1, #1
 800c228:	4608      	mov	r0, r1
 800c22a:	f7fe fcd3 	bl	800abd4 <Fet_spec>
									HAL_Delay(1);
 800c22e:	2001      	movs	r0, #1
 800c230:	f7fd f83e 	bl	80092b0 <HAL_Delay>
 800c234:	e55a      	b.n	800bcec <Start_Task+0x30c>
											sprintf((char*)g_buff, "[ Ok]:[%s]:%.0f[R] SHORT\r\n", string, resistor);
 800c236:	ee10 0a10 	vmov	r0, s0
										sprintf((char*)g_buff, "[ Ok]:[%s]:%.0f[R] SHORT\r\n", string, resistor);
 800c23a:	f7fc f98d 	bl	8008558 <__aeabi_f2d>
 800c23e:	4632      	mov	r2, r6
 800c240:	e9cd 0100 	strd	r0, r1, [sp]
 800c244:	490e      	ldr	r1, [pc, #56]	; (800c280 <Start_Task+0x8a0>)
 800c246:	480f      	ldr	r0, [pc, #60]	; (800c284 <Start_Task+0x8a4>)
 800c248:	f003 f9a0 	bl	800f58c <siprintf>
										Debug_serial((char*)g_buff);
 800c24c:	480d      	ldr	r0, [pc, #52]	; (800c284 <Start_Task+0x8a4>)
 800c24e:	f7fe fd65 	bl	800ad1c <Debug_serial>
 800c252:	e7e8      	b.n	800c226 <Start_Task+0x846>
										sprintf((char*)g_buff, "[ Ok]:[%s]:%.0f[R] SHORT\r\n", string, resistor);
 800c254:	ee10 0a10 	vmov	r0, s0
 800c258:	e7ef      	b.n	800c23a <Start_Task+0x85a>
									Func = model2[i].pin[j].Func;
 800c25a:	68bb      	ldr	r3, [r7, #8]
									DFF_Data(0x00);
 800c25c:	2000      	movs	r0, #0
									Func = model2[i].pin[j].Func;
 800c25e:	f853 b036 	ldr.w	fp, [r3, r6, lsl #3]
									DFF_Data(0x00);
 800c262:	f001 fdff 	bl	800de64 <DFF_Data>
								for(j=0; j<inspection_num; j++)
 800c266:	3601      	adds	r6, #1
									Func();
 800c268:	47d8      	blx	fp
 800c26a:	e575      	b.n	800bd58 <Start_Task+0x378>
						else Result_Flag = pba_true;
 800c26c:	4b08      	ldr	r3, [pc, #32]	; (800c290 <Start_Task+0x8b0>)
 800c26e:	e58e      	b.n	800bd8e <Start_Task+0x3ae>
 800c270:	200017c0 	.word	0x200017c0
 800c274:	20007018 	.word	0x20007018
 800c278:	08011db6 	.word	0x08011db6
 800c27c:	08011de9 	.word	0x08011de9
 800c280:	08011dfd 	.word	0x08011dfd
 800c284:	200019b4 	.word	0x200019b4
 800c288:	08011ec1 	.word	0x08011ec1
 800c28c:	4b189680 	.word	0x4b189680
 800c290:	200017a6 	.word	0x200017a6

0800c294 <Rst_Task>:
	}
}

void Rst_Task(void)
{
	if(Rst_Flag == pba_true)
 800c294:	4a45      	ldr	r2, [pc, #276]	; (800c3ac <Rst_Task+0x118>)
{
 800c296:	b508      	push	{r3, lr}
	if(Rst_Flag == pba_true)
 800c298:	7813      	ldrb	r3, [r2, #0]
 800c29a:	2b01      	cmp	r3, #1
 800c29c:	f040 8084 	bne.w	800c3a8 <Rst_Task+0x114>
	{
		Rst_Flag = pba_false;
 800c2a0:	2300      	movs	r3, #0
 800c2a2:	7013      	strb	r3, [r2, #0]
		Start_Flag = pba_false;
 800c2a4:	4a42      	ldr	r2, [pc, #264]	; (800c3b0 <Rst_Task+0x11c>)
 800c2a6:	7013      	strb	r3, [r2, #0]
		Result_Flag = pba_false;
 800c2a8:	4a42      	ldr	r2, [pc, #264]	; (800c3b4 <Rst_Task+0x120>)
 800c2aa:	7013      	strb	r3, [r2, #0]
		Test_Result_Flag = pba_false;
 800c2ac:	4a42      	ldr	r2, [pc, #264]	; (800c3b8 <Rst_Task+0x124>)
 800c2ae:	7013      	strb	r3, [r2, #0]

		gkey_count = 0;
 800c2b0:	4a42      	ldr	r2, [pc, #264]	; (800c3bc <Rst_Task+0x128>)
 800c2b2:	7013      	strb	r3, [r2, #0]
		gmode_count = 0;
 800c2b4:	4a42      	ldr	r2, [pc, #264]	; (800c3c0 <Rst_Task+0x12c>)
 800c2b6:	7013      	strb	r3, [r2, #0]
		count1 = 0;
 800c2b8:	4a42      	ldr	r2, [pc, #264]	; (800c3c4 <Rst_Task+0x130>)
 800c2ba:	7013      	strb	r3, [r2, #0]
		count2 = 0;
 800c2bc:	4a42      	ldr	r2, [pc, #264]	; (800c3c8 <Rst_Task+0x134>)
 800c2be:	7013      	strb	r3, [r2, #0]
		count3 = 0;
 800c2c0:	4a42      	ldr	r2, [pc, #264]	; (800c3cc <Rst_Task+0x138>)
 800c2c2:	7013      	strb	r3, [r2, #0]
		Vaccum_Push = 0;
 800c2c4:	4a42      	ldr	r2, [pc, #264]	; (800c3d0 <Rst_Task+0x13c>)
 800c2c6:	7013      	strb	r3, [r2, #0]
		Push_Flag = pba_false;
 800c2c8:	4a42      	ldr	r2, [pc, #264]	; (800c3d4 <Rst_Task+0x140>)
 800c2ca:	7013      	strb	r3, [r2, #0]
		if(mode_state == pba_false)
 800c2cc:	4b42      	ldr	r3, [pc, #264]	; (800c3d8 <Rst_Task+0x144>)
 800c2ce:	781b      	ldrb	r3, [r3, #0]
 800c2d0:	2b00      	cmp	r3, #0
 800c2d2:	d149      	bne.n	800c368 <Rst_Task+0xd4>
		{
			while(HAL_GPIO_ReadPin(RESET_KEY_GPIO_Port, RESET_KEY_Pin) == GPIO_PIN_RESET);
 800c2d4:	f44f 5180 	mov.w	r1, #4096	; 0x1000
 800c2d8:	4840      	ldr	r0, [pc, #256]	; (800c3dc <Rst_Task+0x148>)
 800c2da:	f7fd fce3 	bl	8009ca4 <HAL_GPIO_ReadPin>
 800c2de:	2800      	cmp	r0, #0
 800c2e0:	d0f8      	beq.n	800c2d4 <Rst_Task+0x40>

			MAIN_OFF;
 800c2e2:	2200      	movs	r2, #0
 800c2e4:	2180      	movs	r1, #128	; 0x80
 800c2e6:	483d      	ldr	r0, [pc, #244]	; (800c3dc <Rst_Task+0x148>)
 800c2e8:	f7fd fce2 	bl	8009cb0 <HAL_GPIO_WritePin>
			VAC_OFF;
 800c2ec:	2200      	movs	r2, #0
 800c2ee:	f44f 6100 	mov.w	r1, #2048	; 0x800
 800c2f2:	483b      	ldr	r0, [pc, #236]	; (800c3e0 <Rst_Task+0x14c>)
 800c2f4:	f7fd fcdc 	bl	8009cb0 <HAL_GPIO_WritePin>
			VAC1_OFF;
 800c2f8:	2200      	movs	r2, #0
 800c2fa:	f44f 4100 	mov.w	r1, #32768	; 0x8000
 800c2fe:	4839      	ldr	r0, [pc, #228]	; (800c3e4 <Rst_Task+0x150>)
 800c300:	f7fd fcd6 	bl	8009cb0 <HAL_GPIO_WritePin>
			HAL_GPIO_WritePin(BUZZER_GPIO_Port, BUZZER_Pin, GPIO_PIN_RESET);
 800c304:	2200      	movs	r2, #0
 800c306:	f44f 7100 	mov.w	r1, #512	; 0x200
 800c30a:	4835      	ldr	r0, [pc, #212]	; (800c3e0 <Rst_Task+0x14c>)
 800c30c:	f7fd fcd0 	bl	8009cb0 <HAL_GPIO_WritePin>

			HAL_GPIO_WritePin(FET1_GPIO_Port, FET1_Pin, GPIO_PIN_SET);
 800c310:	2201      	movs	r2, #1
 800c312:	2140      	movs	r1, #64	; 0x40
 800c314:	4831      	ldr	r0, [pc, #196]	; (800c3dc <Rst_Task+0x148>)
 800c316:	f7fd fccb 	bl	8009cb0 <HAL_GPIO_WritePin>
			HAL_GPIO_WritePin(FET2_GPIO_Port, FET2_Pin, GPIO_PIN_SET);
 800c31a:	2201      	movs	r2, #1
 800c31c:	2180      	movs	r1, #128	; 0x80
 800c31e:	4830      	ldr	r0, [pc, #192]	; (800c3e0 <Rst_Task+0x14c>)
 800c320:	f7fd fcc6 	bl	8009cb0 <HAL_GPIO_WritePin>
			HAL_GPIO_WritePin(FET3_GPIO_Port, FET3_Pin, GPIO_PIN_SET);
 800c324:	2201      	movs	r2, #1
 800c326:	f44f 7180 	mov.w	r1, #256	; 0x100
 800c32a:	482e      	ldr	r0, [pc, #184]	; (800c3e4 <Rst_Task+0x150>)
 800c32c:	f7fd fcc0 	bl	8009cb0 <HAL_GPIO_WritePin>
			HAL_GPIO_WritePin(FET4_GPIO_Port, FET4_Pin, GPIO_PIN_SET);
 800c330:	2201      	movs	r2, #1
 800c332:	f44f 6180 	mov.w	r1, #1024	; 0x400
 800c336:	4829      	ldr	r0, [pc, #164]	; (800c3dc <Rst_Task+0x148>)
 800c338:	f7fd fcba 	bl	8009cb0 <HAL_GPIO_WritePin>
			HAL_GPIO_WritePin(FET5_GPIO_Port, FET5_Pin, GPIO_PIN_SET);
 800c33c:	2201      	movs	r2, #1
 800c33e:	2110      	movs	r1, #16
 800c340:	4826      	ldr	r0, [pc, #152]	; (800c3dc <Rst_Task+0x148>)
 800c342:	f7fd fcb5 	bl	8009cb0 <HAL_GPIO_WritePin>
			HAL_GPIO_WritePin(FET6_GPIO_Port, FET6_Pin, GPIO_PIN_SET);
 800c346:	2120      	movs	r1, #32
 800c348:	2201      	movs	r2, #1
 800c34a:	4824      	ldr	r0, [pc, #144]	; (800c3dc <Rst_Task+0x148>)
 800c34c:	f7fd fcb0 	bl	8009cb0 <HAL_GPIO_WritePin>

			//DFF_Floating_Init();

			LCD_DbgLog("User Press Reset Key...\n");
 800c350:	4b25      	ldr	r3, [pc, #148]	; (800c3e8 <Rst_Task+0x154>)
 800c352:	4826      	ldr	r0, [pc, #152]	; (800c3ec <Rst_Task+0x158>)
 800c354:	2204      	movs	r2, #4
 800c356:	601a      	str	r2, [r3, #0]
 800c358:	f003 f85a 	bl	800f410 <puts>

			Vaccum_Push_Set();
 800c35c:	f7ff fafe 	bl	800b95c <Vaccum_Push_Set>


			Beep(1,50);
 800c360:	2132      	movs	r1, #50	; 0x32
 800c362:	2001      	movs	r0, #1
 800c364:	f7fe fd14 	bl	800ad90 <Beep>
		}

		if((g_test == DEBUG_ON) && (Debug_Flag == pba_false))
 800c368:	4b21      	ldr	r3, [pc, #132]	; (800c3f0 <Rst_Task+0x15c>)
 800c36a:	681b      	ldr	r3, [r3, #0]
 800c36c:	b9e3      	cbnz	r3, 800c3a8 <Rst_Task+0x114>
 800c36e:	4b21      	ldr	r3, [pc, #132]	; (800c3f4 <Rst_Task+0x160>)
 800c370:	781b      	ldrb	r3, [r3, #0]
 800c372:	b9cb      	cbnz	r3, 800c3a8 <Rst_Task+0x114>
		{
			TFT_Serial((uint8_t*)"page 4");			//    LCD   
 800c374:	4820      	ldr	r0, [pc, #128]	; (800c3f8 <Rst_Task+0x164>)
 800c376:	f7fe fce1 	bl	800ad3c <TFT_Serial>

			if(ok_count == 1) TFT_Serial((uint8_t*)"t4.txt=\"O\""); //OK
 800c37a:	4b20      	ldr	r3, [pc, #128]	; (800c3fc <Rst_Task+0x168>)
 800c37c:	781b      	ldrb	r3, [r3, #0]
 800c37e:	2b01      	cmp	r3, #1
 800c380:	d102      	bne.n	800c388 <Rst_Task+0xf4>
 800c382:	481f      	ldr	r0, [pc, #124]	; (800c400 <Rst_Task+0x16c>)
 800c384:	f7fe fcda 	bl	800ad3c <TFT_Serial>
			if(open_count == 1) TFT_Serial((uint8_t*)"t5.txt=\"O\""); //OPEN
 800c388:	4b1e      	ldr	r3, [pc, #120]	; (800c404 <Rst_Task+0x170>)
 800c38a:	781b      	ldrb	r3, [r3, #0]
 800c38c:	2b01      	cmp	r3, #1
 800c38e:	d102      	bne.n	800c396 <Rst_Task+0x102>
 800c390:	481d      	ldr	r0, [pc, #116]	; (800c408 <Rst_Task+0x174>)
 800c392:	f7fe fcd3 	bl	800ad3c <TFT_Serial>
			if(short_count == 1) TFT_Serial((uint8_t*)"t6.txt=\"O\""); //SHORT
 800c396:	4b1d      	ldr	r3, [pc, #116]	; (800c40c <Rst_Task+0x178>)
 800c398:	781b      	ldrb	r3, [r3, #0]
 800c39a:	2b01      	cmp	r3, #1
 800c39c:	d104      	bne.n	800c3a8 <Rst_Task+0x114>
 800c39e:	481c      	ldr	r0, [pc, #112]	; (800c410 <Rst_Task+0x17c>)
		}

	}
}
 800c3a0:	e8bd 4008 	ldmia.w	sp!, {r3, lr}
			if(short_count == 1) TFT_Serial((uint8_t*)"t6.txt=\"O\""); //SHORT
 800c3a4:	f7fe bcca 	b.w	800ad3c <TFT_Serial>
 800c3a8:	bd08      	pop	{r3, pc}
 800c3aa:	bf00      	nop
 800c3ac:	200017a7 	.word	0x200017a7
 800c3b0:	200017a8 	.word	0x200017a8
 800c3b4:	200017a6 	.word	0x200017a6
 800c3b8:	200017a9 	.word	0x200017a9
 800c3bc:	20001b30 	.word	0x20001b30
 800c3c0:	2000193c 	.word	0x2000193c
 800c3c4:	200017ab 	.word	0x200017ab
 800c3c8:	200017ac 	.word	0x200017ac
 800c3cc:	200017ad 	.word	0x200017ad
 800c3d0:	200017aa 	.word	0x200017aa
 800c3d4:	200017a5 	.word	0x200017a5
 800c3d8:	200017dc 	.word	0x200017dc
 800c3dc:	40020400 	.word	0x40020400
 800c3e0:	40020800 	.word	0x40020800
 800c3e4:	40020000 	.word	0x40020000
 800c3e8:	20007018 	.word	0x20007018
 800c3ec:	08011d76 	.word	0x08011d76
 800c3f0:	200017c8 	.word	0x200017c8
 800c3f4:	200017a4 	.word	0x200017a4
 800c3f8:	08011d8e 	.word	0x08011d8e
 800c3fc:	200017dd 	.word	0x200017dd
 800c400:	08011d95 	.word	0x08011d95
 800c404:	200017de 	.word	0x200017de
 800c408:	08011da0 	.word	0x08011da0
 800c40c:	200017e1 	.word	0x200017e1
 800c410:	08011dab 	.word	0x08011dab

0800c414 <_delay_ms>:

	HAL_GPIO_WritePin(FET1_GPIO_Port, FET1_Pin, GPIO_PIN_SET);
}

void _delay_ms(uint32_t ms_delay)
{
 800c414:	b570      	push	{r4, r5, r6, lr}
 800c416:	4604      	mov	r4, r0
	uint32_t tick = HAL_GetTick();
 800c418:	f7fc ff44 	bl	80092a4 <HAL_GetTick>

	for(;;)
	{
		if(Rst_Flag == pba_true) break;
 800c41c:	4e05      	ldr	r6, [pc, #20]	; (800c434 <_delay_ms+0x20>)
	uint32_t tick = HAL_GetTick();
 800c41e:	4605      	mov	r5, r0
		if(Rst_Flag == pba_true) break;
 800c420:	7833      	ldrb	r3, [r6, #0]
 800c422:	2b01      	cmp	r3, #1
 800c424:	d004      	beq.n	800c430 <_delay_ms+0x1c>
		if(HAL_GetTick() - tick == ms_delay)
 800c426:	f7fc ff3d 	bl	80092a4 <HAL_GetTick>
 800c42a:	1b40      	subs	r0, r0, r5
 800c42c:	42a0      	cmp	r0, r4
 800c42e:	d1f7      	bne.n	800c420 <_delay_ms+0xc>
 800c430:	bd70      	pop	{r4, r5, r6, pc}
 800c432:	bf00      	nop
 800c434:	200017a7 	.word	0x200017a7

0800c438 <Auto_Clean>:
{
 800c438:	b570      	push	{r4, r5, r6, lr}
	if((HAL_GPIO_ReadPin(LEFT_KEY_GPIO_Port, LEFT_KEY_Pin) == GPIO_PIN_RESET) && (HAL_GPIO_ReadPin(RIGHT_KEY_GPIO_Port, RIGHT_KEY_Pin) == GPIO_PIN_RESET) && (Push_Flag == pba_false) && (HAL_GPIO_ReadPin(MODE_KEY_GPIO_Port, MODE_KEY_Pin ) == GPIO_PIN_RESET))
 800c43a:	2102      	movs	r1, #2
 800c43c:	485d      	ldr	r0, [pc, #372]	; (800c5b4 <Auto_Clean+0x17c>)
 800c43e:	f7fd fc31 	bl	8009ca4 <HAL_GPIO_ReadPin>
 800c442:	2800      	cmp	r0, #0
 800c444:	f040 80b5 	bne.w	800c5b2 <Auto_Clean+0x17a>
 800c448:	f100 4080 	add.w	r0, r0, #1073741824	; 0x40000000
 800c44c:	f44f 4100 	mov.w	r1, #32768	; 0x8000
 800c450:	f500 3001 	add.w	r0, r0, #132096	; 0x20400
 800c454:	f7fd fc26 	bl	8009ca4 <HAL_GPIO_ReadPin>
 800c458:	2800      	cmp	r0, #0
 800c45a:	f040 80aa 	bne.w	800c5b2 <Auto_Clean+0x17a>
 800c45e:	4b56      	ldr	r3, [pc, #344]	; (800c5b8 <Auto_Clean+0x180>)
 800c460:	781b      	ldrb	r3, [r3, #0]
 800c462:	2b00      	cmp	r3, #0
 800c464:	f040 80a5 	bne.w	800c5b2 <Auto_Clean+0x17a>
 800c468:	f100 4080 	add.w	r0, r0, #1073741824	; 0x40000000
 800c46c:	2104      	movs	r1, #4
 800c46e:	f500 3001 	add.w	r0, r0, #132096	; 0x20400
 800c472:	f7fd fc17 	bl	8009ca4 <HAL_GPIO_ReadPin>
 800c476:	2800      	cmp	r0, #0
 800c478:	f040 809b 	bne.w	800c5b2 <Auto_Clean+0x17a>
			HAL_Delay(10);
 800c47c:	200a      	movs	r0, #10
 800c47e:	f7fc ff17 	bl	80092b0 <HAL_Delay>
			while(HAL_GPIO_ReadPin(LEFT_KEY_GPIO_Port, LEFT_KEY_Pin) == GPIO_PIN_RESET || HAL_GPIO_ReadPin(RIGHT_KEY_GPIO_Port, RIGHT_KEY_Pin) == GPIO_PIN_RESET || (HAL_GPIO_ReadPin(MODE_KEY_GPIO_Port, MODE_KEY_Pin ) == GPIO_PIN_RESET));
 800c482:	4c4c      	ldr	r4, [pc, #304]	; (800c5b4 <Auto_Clean+0x17c>)
 800c484:	2102      	movs	r1, #2
 800c486:	4620      	mov	r0, r4
 800c488:	f7fd fc0c 	bl	8009ca4 <HAL_GPIO_ReadPin>
 800c48c:	2800      	cmp	r0, #0
 800c48e:	d0f9      	beq.n	800c484 <Auto_Clean+0x4c>
 800c490:	f44f 4100 	mov.w	r1, #32768	; 0x8000
 800c494:	4620      	mov	r0, r4
 800c496:	f7fd fc05 	bl	8009ca4 <HAL_GPIO_ReadPin>
 800c49a:	2800      	cmp	r0, #0
 800c49c:	d0f2      	beq.n	800c484 <Auto_Clean+0x4c>
 800c49e:	2104      	movs	r1, #4
 800c4a0:	4620      	mov	r0, r4
 800c4a2:	f7fd fbff 	bl	8009ca4 <HAL_GPIO_ReadPin>
 800c4a6:	2800      	cmp	r0, #0
 800c4a8:	d0ec      	beq.n	800c484 <Auto_Clean+0x4c>
			Beep(1,50);
 800c4aa:	2132      	movs	r1, #50	; 0x32
 800c4ac:	2001      	movs	r0, #1
 800c4ae:	f7fe fc6f 	bl	800ad90 <Beep>
			LCD_BlueLog("**********AUTO CLEAN START**********\n");
 800c4b2:	4c42      	ldr	r4, [pc, #264]	; (800c5bc <Auto_Clean+0x184>)
			HAL_GPIO_WritePin(FET1_GPIO_Port, FET1_Pin, GPIO_PIN_SET); //Vaccum state 20 Ohm FET OFF
 800c4b4:	483f      	ldr	r0, [pc, #252]	; (800c5b4 <Auto_Clean+0x17c>)
				if(HAL_GPIO_ReadPin(GPIOB, GPIO_PIN_14) == GPIO_PIN_SET) break; //Sensor ON
 800c4b6:	4d3f      	ldr	r5, [pc, #252]	; (800c5b4 <Auto_Clean+0x17c>)
 800c4b8:	4e41      	ldr	r6, [pc, #260]	; (800c5c0 <Auto_Clean+0x188>)
			HAL_GPIO_WritePin(FET1_GPIO_Port, FET1_Pin, GPIO_PIN_SET); //Vaccum state 20 Ohm FET OFF
 800c4ba:	2201      	movs	r2, #1
 800c4bc:	2140      	movs	r1, #64	; 0x40
 800c4be:	f7fd fbf7 	bl	8009cb0 <HAL_GPIO_WritePin>
			LCD_BlueLog("**********AUTO CLEAN START**********\n");
 800c4c2:	2303      	movs	r3, #3
 800c4c4:	483f      	ldr	r0, [pc, #252]	; (800c5c4 <Auto_Clean+0x18c>)
 800c4c6:	6023      	str	r3, [r4, #0]
 800c4c8:	f002 ffa2 	bl	800f410 <puts>
			MAIN_ON;
 800c4cc:	2201      	movs	r2, #1
 800c4ce:	2180      	movs	r1, #128	; 0x80
 800c4d0:	4838      	ldr	r0, [pc, #224]	; (800c5b4 <Auto_Clean+0x17c>)
 800c4d2:	f7fd fbed 	bl	8009cb0 <HAL_GPIO_WritePin>
			LCD_UsrLog("Main Cylinder ON\n");
 800c4d6:	2300      	movs	r3, #0
 800c4d8:	483b      	ldr	r0, [pc, #236]	; (800c5c8 <Auto_Clean+0x190>)
 800c4da:	6023      	str	r3, [r4, #0]
 800c4dc:	f002 ff98 	bl	800f410 <puts>
			LCD_DbgLog("Main Sensor wait...\n");
 800c4e0:	2304      	movs	r3, #4
 800c4e2:	483a      	ldr	r0, [pc, #232]	; (800c5cc <Auto_Clean+0x194>)
 800c4e4:	6023      	str	r3, [r4, #0]
 800c4e6:	f002 ff93 	bl	800f410 <puts>
		    _delay_ms(500);
 800c4ea:	f44f 70fa 	mov.w	r0, #500	; 0x1f4
 800c4ee:	f7ff ff91 	bl	800c414 <_delay_ms>
		    CLEAN_ON;
 800c4f2:	2201      	movs	r2, #1
 800c4f4:	f44f 6180 	mov.w	r1, #1024	; 0x400
 800c4f8:	4835      	ldr	r0, [pc, #212]	; (800c5d0 <Auto_Clean+0x198>)
 800c4fa:	f7fd fbd9 	bl	8009cb0 <HAL_GPIO_WritePin>
				if(HAL_GPIO_ReadPin(GPIOB, GPIO_PIN_14) == GPIO_PIN_SET) break; //Sensor ON
 800c4fe:	f44f 4180 	mov.w	r1, #16384	; 0x4000
 800c502:	4628      	mov	r0, r5
 800c504:	f7fd fbce 	bl	8009ca4 <HAL_GPIO_ReadPin>
 800c508:	2801      	cmp	r0, #1
 800c50a:	d002      	beq.n	800c512 <Auto_Clean+0xda>
				if(Rst_Flag == pba_true) break;
 800c50c:	7833      	ldrb	r3, [r6, #0]
 800c50e:	2b01      	cmp	r3, #1
 800c510:	d1f5      	bne.n	800c4fe <Auto_Clean+0xc6>
			_delay_ms(2000);
 800c512:	f44f 60fa 	mov.w	r0, #2000	; 0x7d0
 800c516:	f7ff ff7d 	bl	800c414 <_delay_ms>
			MAIN_OFF;
 800c51a:	2200      	movs	r2, #0
 800c51c:	2180      	movs	r1, #128	; 0x80
 800c51e:	4825      	ldr	r0, [pc, #148]	; (800c5b4 <Auto_Clean+0x17c>)
				if(HAL_GPIO_ReadPin(GPIOB, GPIO_PIN_14) == GPIO_PIN_RESET) break; //Sensor OFF
 800c520:	4d24      	ldr	r5, [pc, #144]	; (800c5b4 <Auto_Clean+0x17c>)
			MAIN_OFF;
 800c522:	f7fd fbc5 	bl	8009cb0 <HAL_GPIO_WritePin>
			HAL_Delay(500);
 800c526:	f44f 70fa 	mov.w	r0, #500	; 0x1f4
 800c52a:	f7fc fec1 	bl	80092b0 <HAL_Delay>
			CLEAN_OFF;
 800c52e:	2200      	movs	r2, #0
 800c530:	f44f 6180 	mov.w	r1, #1024	; 0x400
 800c534:	4826      	ldr	r0, [pc, #152]	; (800c5d0 <Auto_Clean+0x198>)
 800c536:	f7fd fbbb 	bl	8009cb0 <HAL_GPIO_WritePin>
			LCD_UsrLog("Main Cylinder OFF\n");
 800c53a:	2300      	movs	r3, #0
 800c53c:	4825      	ldr	r0, [pc, #148]	; (800c5d4 <Auto_Clean+0x19c>)
 800c53e:	6023      	str	r3, [r4, #0]
 800c540:	f002 ff66 	bl	800f410 <puts>
			LCD_DbgLog("Main Sensor wait...\n");
 800c544:	2304      	movs	r3, #4
 800c546:	4821      	ldr	r0, [pc, #132]	; (800c5cc <Auto_Clean+0x194>)
 800c548:	6023      	str	r3, [r4, #0]
 800c54a:	f002 ff61 	bl	800f410 <puts>
				if(HAL_GPIO_ReadPin(GPIOB, GPIO_PIN_14) == GPIO_PIN_RESET) break; //Sensor OFF
 800c54e:	f44f 4180 	mov.w	r1, #16384	; 0x4000
 800c552:	4628      	mov	r0, r5
 800c554:	f7fd fba6 	bl	8009ca4 <HAL_GPIO_ReadPin>
 800c558:	b110      	cbz	r0, 800c560 <Auto_Clean+0x128>
				if(Rst_Flag == pba_true) break;
 800c55a:	7833      	ldrb	r3, [r6, #0]
 800c55c:	2b01      	cmp	r3, #1
 800c55e:	d1f6      	bne.n	800c54e <Auto_Clean+0x116>
			g_clean++;
 800c560:	4d1d      	ldr	r5, [pc, #116]	; (800c5d8 <Auto_Clean+0x1a0>)
			LCD_BlueLog("********AUTO CLEAN COMPLETED********\n");
 800c562:	481e      	ldr	r0, [pc, #120]	; (800c5dc <Auto_Clean+0x1a4>)
			g_clean++;
 800c564:	682b      	ldr	r3, [r5, #0]
 800c566:	3301      	adds	r3, #1
 800c568:	602b      	str	r3, [r5, #0]
			LCD_BlueLog("********AUTO CLEAN COMPLETED********\n");
 800c56a:	2303      	movs	r3, #3
 800c56c:	6023      	str	r3, [r4, #0]
 800c56e:	f002 ff4f 	bl	800f410 <puts>
			HAL_Delay(500);
 800c572:	f44f 70fa 	mov.w	r0, #500	; 0x1f4
 800c576:	f7fc fe9b 	bl	80092b0 <HAL_Delay>
			g_rbuf[0] = (uint8_t)(g_clean & 0x000000FF);
 800c57a:	682b      	ldr	r3, [r5, #0]
 800c57c:	4918      	ldr	r1, [pc, #96]	; (800c5e0 <Auto_Clean+0x1a8>)
			g_rbuf[1] = (uint8_t)((g_clean & 0x0000FF00) >> 8);
 800c57e:	0a1a      	lsrs	r2, r3, #8
 800c580:	704a      	strb	r2, [r1, #1]
			g_rbuf[2] = (uint8_t)((g_clean & 0x00FF0000) >> 16);
 800c582:	0c1a      	lsrs	r2, r3, #16
			g_rbuf[0] = (uint8_t)(g_clean & 0x000000FF);
 800c584:	700b      	strb	r3, [r1, #0]
			g_rbuf[2] = (uint8_t)((g_clean & 0x00FF0000) >> 16);
 800c586:	708a      	strb	r2, [r1, #2]
			g_rbuf[3] = (uint8_t)((g_clean & 0xFF000000) >> 24);
 800c588:	0e1b      	lsrs	r3, r3, #24
			eep_256_burst_write(CLEAN_ADDRESS, g_rbuf, 4);
 800c58a:	2204      	movs	r2, #4
 800c58c:	2024      	movs	r0, #36	; 0x24
			g_rbuf[3] = (uint8_t)((g_clean & 0xFF000000) >> 24);
 800c58e:	70cb      	strb	r3, [r1, #3]
			eep_256_burst_write(CLEAN_ADDRESS, g_rbuf, 4);
 800c590:	f001 fbc8 	bl	800dd24 <eep_256_burst_write>
			sprintf((char*)g_buff, "t21.txt=\"%5ld\"", g_clean);
 800c594:	682a      	ldr	r2, [r5, #0]
 800c596:	4913      	ldr	r1, [pc, #76]	; (800c5e4 <Auto_Clean+0x1ac>)
 800c598:	4813      	ldr	r0, [pc, #76]	; (800c5e8 <Auto_Clean+0x1b0>)
 800c59a:	f002 fff7 	bl	800f58c <siprintf>
			TFT_Serial(g_buff);
 800c59e:	4812      	ldr	r0, [pc, #72]	; (800c5e8 <Auto_Clean+0x1b0>)
 800c5a0:	f7fe fbcc 	bl	800ad3c <TFT_Serial>
			if(Rst_Flag == pba_true) return;
 800c5a4:	7833      	ldrb	r3, [r6, #0]
 800c5a6:	2b01      	cmp	r3, #1
 800c5a8:	d003      	beq.n	800c5b2 <Auto_Clean+0x17a>
}
 800c5aa:	e8bd 4070 	ldmia.w	sp!, {r4, r5, r6, lr}
			Vaccum_Push_Set();
 800c5ae:	f7ff b9d5 	b.w	800b95c <Vaccum_Push_Set>
 800c5b2:	bd70      	pop	{r4, r5, r6, pc}
 800c5b4:	40020400 	.word	0x40020400
 800c5b8:	200017a5 	.word	0x200017a5
 800c5bc:	20007018 	.word	0x20007018
 800c5c0:	200017a7 	.word	0x200017a7
 800c5c4:	08011755 	.word	0x08011755
 800c5c8:	0801177a 	.word	0x0801177a
 800c5cc:	0801178b 	.word	0x0801178b
 800c5d0:	40020800 	.word	0x40020800
 800c5d4:	0801179f 	.word	0x0801179f
 800c5d8:	200019ac 	.word	0x200019ac
 800c5dc:	080117b1 	.word	0x080117b1
 800c5e0:	200017c4 	.word	0x200017c4
 800c5e4:	0801189c 	.word	0x0801189c
 800c5e8:	200019b4 	.word	0x200019b4

0800c5ec <Key_input>:
{
 800c5ec:	e92d 41f0 	stmdb	sp!, {r4, r5, r6, r7, r8, lr}
	if(g_key_on == KEY_ON)//insert key
 800c5f0:	4eb2      	ldr	r6, [pc, #712]	; (800c8bc <Key_input+0x2d0>)
 800c5f2:	6832      	ldr	r2, [r6, #0]
 800c5f4:	2a01      	cmp	r2, #1
 800c5f6:	f040 80ba 	bne.w	800c76e <Key_input+0x182>
	if(((HAL_GPIO_ReadPin(RIGHT_KEY_GPIO_Port, RIGHT_KEY_Pin) == GPIO_PIN_RESET)) && Push_Flag == pba_false)
 800c5fa:	f44f 4100 	mov.w	r1, #32768	; 0x8000
 800c5fe:	48b0      	ldr	r0, [pc, #704]	; (800c8c0 <Key_input+0x2d4>)
 800c600:	4cb0      	ldr	r4, [pc, #704]	; (800c8c4 <Key_input+0x2d8>)
 800c602:	f7fd fb4f 	bl	8009ca4 <HAL_GPIO_ReadPin>
 800c606:	bb58      	cbnz	r0, 800c660 <Key_input+0x74>
 800c608:	7823      	ldrb	r3, [r4, #0]
 800c60a:	bb4b      	cbnz	r3, 800c660 <Key_input+0x74>
			while(HAL_GPIO_ReadPin(RIGHT_KEY_GPIO_Port, RIGHT_KEY_Pin) == GPIO_PIN_RESET);
 800c60c:	4dac      	ldr	r5, [pc, #688]	; (800c8c0 <Key_input+0x2d4>)
 800c60e:	f44f 4100 	mov.w	r1, #32768	; 0x8000
 800c612:	4628      	mov	r0, r5
 800c614:	f7fd fb46 	bl	8009ca4 <HAL_GPIO_ReadPin>
 800c618:	2800      	cmp	r0, #0
 800c61a:	d0f8      	beq.n	800c60e <Key_input+0x22>
			Push_Flag = pba_true;
 800c61c:	2301      	movs	r3, #1
 800c61e:	7023      	strb	r3, [r4, #0]
			if((g_test == DEBUG_ON) && (Debug_Flag == pba_false))
 800c620:	4ba9      	ldr	r3, [pc, #676]	; (800c8c8 <Key_input+0x2dc>)
 800c622:	681b      	ldr	r3, [r3, #0]
 800c624:	b92b      	cbnz	r3, 800c632 <Key_input+0x46>
 800c626:	4ba9      	ldr	r3, [pc, #676]	; (800c8cc <Key_input+0x2e0>)
 800c628:	781b      	ldrb	r3, [r3, #0]
 800c62a:	b913      	cbnz	r3, 800c632 <Key_input+0x46>
				TFT_Serial((uint8_t*)"page 1");
 800c62c:	48a8      	ldr	r0, [pc, #672]	; (800c8d0 <Key_input+0x2e4>)
 800c62e:	f7fe fb85 	bl	800ad3c <TFT_Serial>
			VAC_ON;
 800c632:	2201      	movs	r2, #1
 800c634:	f44f 6100 	mov.w	r1, #2048	; 0x800
 800c638:	48a6      	ldr	r0, [pc, #664]	; (800c8d4 <Key_input+0x2e8>)
			LCD_UsrLog("VACCUM ON\n");
 800c63a:	4da7      	ldr	r5, [pc, #668]	; (800c8d8 <Key_input+0x2ec>)
			VAC_ON;
 800c63c:	f7fd fb38 	bl	8009cb0 <HAL_GPIO_WritePin>
			VAC1_ON;
 800c640:	2201      	movs	r2, #1
 800c642:	f44f 4100 	mov.w	r1, #32768	; 0x8000
 800c646:	48a5      	ldr	r0, [pc, #660]	; (800c8dc <Key_input+0x2f0>)
 800c648:	f7fd fb32 	bl	8009cb0 <HAL_GPIO_WritePin>
			LCD_UsrLog("VACCUM ON\n");
 800c64c:	2300      	movs	r3, #0
 800c64e:	48a4      	ldr	r0, [pc, #656]	; (800c8e0 <Key_input+0x2f4>)
 800c650:	602b      	str	r3, [r5, #0]
 800c652:	f002 fedd 	bl	800f410 <puts>
			LCD_DbgLog("Press START Key\n");
 800c656:	2304      	movs	r3, #4
 800c658:	48a2      	ldr	r0, [pc, #648]	; (800c8e4 <Key_input+0x2f8>)
 800c65a:	602b      	str	r3, [r5, #0]
 800c65c:	f002 fed8 	bl	800f410 <puts>
			if(((HAL_GPIO_ReadPin(RIGHT_KEY_GPIO_Port, RIGHT_KEY_Pin) == GPIO_PIN_RESET)) && Push_Flag == pba_true)
 800c660:	4d97      	ldr	r5, [pc, #604]	; (800c8c0 <Key_input+0x2d4>)
			if(Rst_Flag == pba_true)
 800c662:	4fa1      	ldr	r7, [pc, #644]	; (800c8e8 <Key_input+0x2fc>)
	while(Push_Flag == pba_true)
 800c664:	7823      	ldrb	r3, [r4, #0]
 800c666:	2b01      	cmp	r3, #1
 800c668:	f040 8081 	bne.w	800c76e <Key_input+0x182>
			if(((HAL_GPIO_ReadPin(RIGHT_KEY_GPIO_Port, RIGHT_KEY_Pin) == GPIO_PIN_RESET)) && Push_Flag == pba_true)
 800c66c:	f44f 4100 	mov.w	r1, #32768	; 0x8000
 800c670:	4628      	mov	r0, r5
 800c672:	f7fd fb17 	bl	8009ca4 <HAL_GPIO_ReadPin>
 800c676:	2800      	cmp	r0, #0
 800c678:	f040 8229 	bne.w	800cace <Key_input+0x4e2>
 800c67c:	7823      	ldrb	r3, [r4, #0]
 800c67e:	2b01      	cmp	r3, #1
 800c680:	f040 8225 	bne.w	800cace <Key_input+0x4e2>
				HAL_Delay(10);
 800c684:	200a      	movs	r0, #10
 800c686:	f7fc fe13 	bl	80092b0 <HAL_Delay>
				while(HAL_GPIO_ReadPin(RIGHT_KEY_GPIO_Port, RIGHT_KEY_Pin) == GPIO_PIN_RESET);
 800c68a:	4d8d      	ldr	r5, [pc, #564]	; (800c8c0 <Key_input+0x2d4>)
 800c68c:	f44f 4100 	mov.w	r1, #32768	; 0x8000
 800c690:	4628      	mov	r0, r5
 800c692:	f7fd fb07 	bl	8009ca4 <HAL_GPIO_ReadPin>
 800c696:	2800      	cmp	r0, #0
 800c698:	d0f8      	beq.n	800c68c <Key_input+0xa0>
				Beep(1,50);
 800c69a:	2132      	movs	r1, #50	; 0x32
 800c69c:	2001      	movs	r0, #1
				Push_Flag = pba_false;
 800c69e:	2500      	movs	r5, #0
				Beep(1,50);
 800c6a0:	f7fe fb76 	bl	800ad90 <Beep>
				Push_Flag = pba_false;
 800c6a4:	7025      	strb	r5, [r4, #0]
				DFF_GND_Init();
 800c6a6:	f001 fe8a 	bl	800e3be <DFF_GND_Init>
				LCD_BlueLog("**********INSPECTION START**********\n");
 800c6aa:	4c8b      	ldr	r4, [pc, #556]	; (800c8d8 <Key_input+0x2ec>)
				HAL_GPIO_WritePin(FET1_GPIO_Port, FET1_Pin, GPIO_PIN_SET); //Vaccum state 20 Ohm FET OFF
 800c6ac:	4884      	ldr	r0, [pc, #528]	; (800c8c0 <Key_input+0x2d4>)
 800c6ae:	2201      	movs	r2, #1
 800c6b0:	2140      	movs	r1, #64	; 0x40
 800c6b2:	f7fd fafd 	bl	8009cb0 <HAL_GPIO_WritePin>
				LCD_BlueLog("**********INSPECTION START**********\n");
 800c6b6:	2303      	movs	r3, #3
 800c6b8:	488c      	ldr	r0, [pc, #560]	; (800c8ec <Key_input+0x300>)
 800c6ba:	6023      	str	r3, [r4, #0]
 800c6bc:	f002 fea8 	bl	800f410 <puts>
				MAIN_ON;
 800c6c0:	2201      	movs	r2, #1
 800c6c2:	2180      	movs	r1, #128	; 0x80
 800c6c4:	487e      	ldr	r0, [pc, #504]	; (800c8c0 <Key_input+0x2d4>)
 800c6c6:	f7fd faf3 	bl	8009cb0 <HAL_GPIO_WritePin>
				HAL_GPIO_WritePin(NG_LED_GPIO_Port, NG_LED_Pin, GPIO_PIN_SET);
 800c6ca:	2201      	movs	r2, #1
 800c6cc:	2110      	movs	r1, #16
 800c6ce:	4881      	ldr	r0, [pc, #516]	; (800c8d4 <Key_input+0x2e8>)
 800c6d0:	f7fd faee 	bl	8009cb0 <HAL_GPIO_WritePin>
				HAL_GPIO_WritePin(OK_LED_GPIO_Port, OK_LED_Pin, GPIO_PIN_SET);
 800c6d4:	2201      	movs	r2, #1
 800c6d6:	f44f 5100 	mov.w	r1, #8192	; 0x2000
 800c6da:	4879      	ldr	r0, [pc, #484]	; (800c8c0 <Key_input+0x2d4>)
 800c6dc:	f7fd fae8 	bl	8009cb0 <HAL_GPIO_WritePin>
				HAL_GPIO_WritePin(LLED_NG_GPIO_Port, LLED_NG_Pin, GPIO_PIN_SET);
 800c6e0:	2201      	movs	r2, #1
 800c6e2:	f44f 7100 	mov.w	r1, #512	; 0x200
 800c6e6:	4876      	ldr	r0, [pc, #472]	; (800c8c0 <Key_input+0x2d4>)
 800c6e8:	f7fd fae2 	bl	8009cb0 <HAL_GPIO_WritePin>
				HAL_GPIO_WritePin(LLED_OK_GPIO_Port, LLED_OK_Pin, GPIO_PIN_SET);
 800c6ec:	2201      	movs	r2, #1
 800c6ee:	f44f 7180 	mov.w	r1, #256	; 0x100
 800c6f2:	4873      	ldr	r0, [pc, #460]	; (800c8c0 <Key_input+0x2d4>)
 800c6f4:	f7fd fadc 	bl	8009cb0 <HAL_GPIO_WritePin>
				HAL_GPIO_WritePin(RLED_NG_GPIO_Port, RLED_NG_Pin, GPIO_PIN_SET);
 800c6f8:	2201      	movs	r2, #1
 800c6fa:	2180      	movs	r1, #128	; 0x80
 800c6fc:	4877      	ldr	r0, [pc, #476]	; (800c8dc <Key_input+0x2f0>)
 800c6fe:	f7fd fad7 	bl	8009cb0 <HAL_GPIO_WritePin>
				HAL_GPIO_WritePin(RLED_OK_GPIO_Port, RLED_OK_Pin, GPIO_PIN_SET);
 800c702:	2201      	movs	r2, #1
 800c704:	2140      	movs	r1, #64	; 0x40
 800c706:	4875      	ldr	r0, [pc, #468]	; (800c8dc <Key_input+0x2f0>)
 800c708:	f7fd fad2 	bl	8009cb0 <HAL_GPIO_WritePin>
				LCD_UsrLog("Main Cylinder ON\n");
 800c70c:	4878      	ldr	r0, [pc, #480]	; (800c8f0 <Key_input+0x304>)
 800c70e:	6025      	str	r5, [r4, #0]
 800c710:	f002 fe7e 	bl	800f410 <puts>
				LCD_DbgLog("Main Sensor wait...\n");
 800c714:	2304      	movs	r3, #4
 800c716:	4877      	ldr	r0, [pc, #476]	; (800c8f4 <Key_input+0x308>)
 800c718:	6023      	str	r3, [r4, #0]
 800c71a:	f002 fe79 	bl	800f410 <puts>
					if(HAL_GPIO_ReadPin(GPIOB, GPIO_PIN_14) == GPIO_PIN_SET) break; //Sensor ON
 800c71e:	f105 4580 	add.w	r5, r5, #1073741824	; 0x40000000
 800c722:	4c71      	ldr	r4, [pc, #452]	; (800c8e8 <Key_input+0x2fc>)
 800c724:	f505 3501 	add.w	r5, r5, #132096	; 0x20400
 800c728:	f44f 4180 	mov.w	r1, #16384	; 0x4000
 800c72c:	4628      	mov	r0, r5
 800c72e:	f7fd fab9 	bl	8009ca4 <HAL_GPIO_ReadPin>
 800c732:	2801      	cmp	r0, #1
 800c734:	d002      	beq.n	800c73c <Key_input+0x150>
					if(Rst_Flag == pba_true) break;
 800c736:	7823      	ldrb	r3, [r4, #0]
 800c738:	2b01      	cmp	r3, #1
 800c73a:	d1f5      	bne.n	800c728 <Key_input+0x13c>
				if(Rst_Flag == pba_true) return;
 800c73c:	7823      	ldrb	r3, [r4, #0]
 800c73e:	2b01      	cmp	r3, #1
 800c740:	f000 81cb 	beq.w	800cada <Key_input+0x4ee>
				DFF_GND_Init();
 800c744:	f001 fe3b 	bl	800e3be <DFF_GND_Init>
				_delay_ms(300);
 800c748:	f44f 7096 	mov.w	r0, #300	; 0x12c
 800c74c:	f7ff fe62 	bl	800c414 <_delay_ms>
				Start_Flag = pba_true;
 800c750:	4b69      	ldr	r3, [pc, #420]	; (800c8f8 <Key_input+0x30c>)
				VAC_OFF;
 800c752:	4860      	ldr	r0, [pc, #384]	; (800c8d4 <Key_input+0x2e8>)
				Start_Flag = pba_true;
 800c754:	2201      	movs	r2, #1
 800c756:	701a      	strb	r2, [r3, #0]
				VAC_OFF;
 800c758:	f44f 6100 	mov.w	r1, #2048	; 0x800
 800c75c:	2200      	movs	r2, #0
 800c75e:	f7fd faa7 	bl	8009cb0 <HAL_GPIO_WritePin>
				VAC1_OFF;
 800c762:	2200      	movs	r2, #0
 800c764:	f44f 4100 	mov.w	r1, #32768	; 0x8000
 800c768:	485c      	ldr	r0, [pc, #368]	; (800c8dc <Key_input+0x2f0>)
 800c76a:	f7fd faa1 	bl	8009cb0 <HAL_GPIO_WritePin>
	if(g_key_on == KEY_OFF) //insert manual
 800c76e:	6833      	ldr	r3, [r6, #0]
 800c770:	2b00      	cmp	r3, #0
 800c772:	f040 81b2 	bne.w	800cada <Key_input+0x4ee>
		if(g_type == IN && count1 == 0)
 800c776:	4d61      	ldr	r5, [pc, #388]	; (800c8fc <Key_input+0x310>)
 800c778:	4c52      	ldr	r4, [pc, #328]	; (800c8c4 <Key_input+0x2d8>)
 800c77a:	682b      	ldr	r3, [r5, #0]
 800c77c:	b97b      	cbnz	r3, 800c79e <Key_input+0x1b2>
 800c77e:	4e60      	ldr	r6, [pc, #384]	; (800c900 <Key_input+0x314>)
 800c780:	7830      	ldrb	r0, [r6, #0]
 800c782:	bb00      	cbnz	r0, 800c7c6 <Key_input+0x1da>
			resistor = OS_Function(OPEN);
 800c784:	f7fd fff0 	bl	800a768 <OS_Function>
				if(resistor < 200 && Push_Flag == pba_false)
 800c788:	eddf 7a5e 	vldr	s15, [pc, #376]	; 800c904 <Key_input+0x318>
 800c78c:	eeb4 0ae7 	vcmpe.f32	s0, s15
 800c790:	eef1 fa10 	vmrs	APSR_nzcv, fpscr
 800c794:	d503      	bpl.n	800c79e <Key_input+0x1b2>
 800c796:	7823      	ldrb	r3, [r4, #0]
 800c798:	b90b      	cbnz	r3, 800c79e <Key_input+0x1b2>
					count1 = 1;
 800c79a:	2301      	movs	r3, #1
 800c79c:	7033      	strb	r3, [r6, #0]
		if(g_type == OUT && count2 == 0)
 800c79e:	682f      	ldr	r7, [r5, #0]
 800c7a0:	2f01      	cmp	r7, #1
 800c7a2:	d110      	bne.n	800c7c6 <Key_input+0x1da>
 800c7a4:	4e58      	ldr	r6, [pc, #352]	; (800c908 <Key_input+0x31c>)
 800c7a6:	7830      	ldrb	r0, [r6, #0]
 800c7a8:	2800      	cmp	r0, #0
 800c7aa:	f040 8082 	bne.w	800c8b2 <Key_input+0x2c6>
				resistor = OS_Function(OPEN);
 800c7ae:	f7fd ffdb 	bl	800a768 <OS_Function>
					if(resistor < 200 && Push_Flag == pba_false)
 800c7b2:	eddf 7a54 	vldr	s15, [pc, #336]	; 800c904 <Key_input+0x318>
 800c7b6:	eeb4 0ae7 	vcmpe.f32	s0, s15
 800c7ba:	eef1 fa10 	vmrs	APSR_nzcv, fpscr
 800c7be:	d502      	bpl.n	800c7c6 <Key_input+0x1da>
 800c7c0:	7823      	ldrb	r3, [r4, #0]
 800c7c2:	b903      	cbnz	r3, 800c7c6 <Key_input+0x1da>
						count2 = 1;
 800c7c4:	7037      	strb	r7, [r6, #0]
		if(g_type == ALL)
 800c7c6:	682b      	ldr	r3, [r5, #0]
 800c7c8:	2b02      	cmp	r3, #2
 800c7ca:	d172      	bne.n	800c8b2 <Key_input+0x2c6>
			resistor = OS_Function(OPEN);
 800c7cc:	2000      	movs	r0, #0
 800c7ce:	f7fd ffcb 	bl	800a768 <OS_Function>
				if(resistor < 200 && Push_Flag == pba_false && count3 == 2)// && count2 == 0)
 800c7d2:	eddf 7a4c 	vldr	s15, [pc, #304]	; 800c904 <Key_input+0x318>
 800c7d6:	f8df 8128 	ldr.w	r8, [pc, #296]	; 800c900 <Key_input+0x314>
 800c7da:	4e4c      	ldr	r6, [pc, #304]	; (800c90c <Key_input+0x320>)
 800c7dc:	eeb4 0ae7 	vcmpe.f32	s0, s15
 800c7e0:	eef1 fa10 	vmrs	APSR_nzcv, fpscr
 800c7e4:	d51d      	bpl.n	800c822 <Key_input+0x236>
 800c7e6:	7823      	ldrb	r3, [r4, #0]
 800c7e8:	b92b      	cbnz	r3, 800c7f6 <Key_input+0x20a>
 800c7ea:	7833      	ldrb	r3, [r6, #0]
 800c7ec:	2b02      	cmp	r3, #2
 800c7ee:	d102      	bne.n	800c7f6 <Key_input+0x20a>
					count2 = 1;
 800c7f0:	4b45      	ldr	r3, [pc, #276]	; (800c908 <Key_input+0x31c>)
 800c7f2:	2201      	movs	r2, #1
 800c7f4:	701a      	strb	r2, [r3, #0]
				if(resistor < 200 && Push_Flag == pba_false && count1 == 0 && count2 == 0 && (count3 == 0 || count3 == 3))
 800c7f6:	7823      	ldrb	r3, [r4, #0]
 800c7f8:	b99b      	cbnz	r3, 800c822 <Key_input+0x236>
 800c7fa:	f898 3000 	ldrb.w	r3, [r8]
 800c7fe:	b983      	cbnz	r3, 800c822 <Key_input+0x236>
 800c800:	4b41      	ldr	r3, [pc, #260]	; (800c908 <Key_input+0x31c>)
 800c802:	781b      	ldrb	r3, [r3, #0]
 800c804:	b96b      	cbnz	r3, 800c822 <Key_input+0x236>
 800c806:	7833      	ldrb	r3, [r6, #0]
 800c808:	b10b      	cbz	r3, 800c80e <Key_input+0x222>
 800c80a:	2b03      	cmp	r3, #3
 800c80c:	d109      	bne.n	800c822 <Key_input+0x236>
					DFF_GND_Init();
 800c80e:	f001 fdd6 	bl	800e3be <DFF_GND_Init>
					DFF_Init_In(0);
 800c812:	2000      	movs	r0, #0
 800c814:	f7ff f880 	bl	800b918 <DFF_Init_In>
					count3 = 1;
 800c818:	2301      	movs	r3, #1
					HAL_Delay(10);
 800c81a:	200a      	movs	r0, #10
					count3 = 1;
 800c81c:	7033      	strb	r3, [r6, #0]
					HAL_Delay(10);
 800c81e:	f7fc fd47 	bl	80092b0 <HAL_Delay>
				if(count3 == 1)
 800c822:	7837      	ldrb	r7, [r6, #0]
 800c824:	2f01      	cmp	r7, #1
 800c826:	d106      	bne.n	800c836 <Key_input+0x24a>
					Create_DFF_OUT(0);
 800c828:	2000      	movs	r0, #0
 800c82a:	f7ff f84d 	bl	800b8c8 <Create_DFF_OUT>
					count3 = 2;
 800c82e:	2302      	movs	r3, #2
					count1 = 1;
 800c830:	f888 7000 	strb.w	r7, [r8]
					count3 = 2;
 800c834:	7033      	strb	r3, [r6, #0]
				if(count1 == 1 && count2 == 0)
 800c836:	f898 6000 	ldrb.w	r6, [r8]
 800c83a:	2e01      	cmp	r6, #1
 800c83c:	d139      	bne.n	800c8b2 <Key_input+0x2c6>
 800c83e:	4b32      	ldr	r3, [pc, #200]	; (800c908 <Key_input+0x31c>)
 800c840:	781b      	ldrb	r3, [r3, #0]
 800c842:	2b00      	cmp	r3, #0
 800c844:	d135      	bne.n	800c8b2 <Key_input+0x2c6>
					VAC_ON;
 800c846:	4632      	mov	r2, r6
 800c848:	f44f 6100 	mov.w	r1, #2048	; 0x800
 800c84c:	4821      	ldr	r0, [pc, #132]	; (800c8d4 <Key_input+0x2e8>)
 800c84e:	f7fd fa2f 	bl	8009cb0 <HAL_GPIO_WritePin>
					VAC1_ON;
 800c852:	4632      	mov	r2, r6
 800c854:	f44f 4100 	mov.w	r1, #32768	; 0x8000
 800c858:	4820      	ldr	r0, [pc, #128]	; (800c8dc <Key_input+0x2f0>)
 800c85a:	f7fd fa29 	bl	8009cb0 <HAL_GPIO_WritePin>
					sprintf((char*)g_buff,"xstr 5,65,105,90,5,GREEN,GRAY,1,1,1,\"OK\"");
 800c85e:	492c      	ldr	r1, [pc, #176]	; (800c910 <Key_input+0x324>)
 800c860:	482c      	ldr	r0, [pc, #176]	; (800c914 <Key_input+0x328>)
 800c862:	f002 fec6 	bl	800f5f2 <strcpy>
					TFT_Serial(g_buff);
 800c866:	482b      	ldr	r0, [pc, #172]	; (800c914 <Key_input+0x328>)
 800c868:	f7fe fa68 	bl	800ad3c <TFT_Serial>
					sprintf((char*)g_buff,"xstr 110,65,117,90,2,YELLOW,GRAY,1,1,1,\"IN\"");
 800c86c:	492a      	ldr	r1, [pc, #168]	; (800c918 <Key_input+0x32c>)
 800c86e:	4829      	ldr	r0, [pc, #164]	; (800c914 <Key_input+0x328>)
 800c870:	f002 febf 	bl	800f5f2 <strcpy>
					TFT_Serial(g_buff);
 800c874:	4827      	ldr	r0, [pc, #156]	; (800c914 <Key_input+0x328>)
 800c876:	f7fe fa61 	bl	800ad3c <TFT_Serial>
					sprintf((char*)g_buff,"xstr 227,65,105,90,5,GREEN,GRAY,1,1,1,\"OK\"");
 800c87a:	4928      	ldr	r1, [pc, #160]	; (800c91c <Key_input+0x330>)
 800c87c:	4825      	ldr	r0, [pc, #148]	; (800c914 <Key_input+0x328>)
 800c87e:	f002 feb8 	bl	800f5f2 <strcpy>
					TFT_Serial(g_buff);
 800c882:	4824      	ldr	r0, [pc, #144]	; (800c914 <Key_input+0x328>)
 800c884:	f7fe fa5a 	bl	800ad3c <TFT_Serial>
					sprintf((char*)g_buff,"xstr 5,170,105,90,5,RED,GRAY,1,1,1,\"NG\"");
 800c888:	4925      	ldr	r1, [pc, #148]	; (800c920 <Key_input+0x334>)
 800c88a:	4822      	ldr	r0, [pc, #136]	; (800c914 <Key_input+0x328>)
 800c88c:	f002 feb1 	bl	800f5f2 <strcpy>
					TFT_Serial(g_buff);
 800c890:	4820      	ldr	r0, [pc, #128]	; (800c914 <Key_input+0x328>)
 800c892:	f7fe fa53 	bl	800ad3c <TFT_Serial>
					sprintf((char*)g_buff,"xstr 110,170,117,90,2,YELLOW,GRAY,1,1,1,\"OUT\"");
 800c896:	4923      	ldr	r1, [pc, #140]	; (800c924 <Key_input+0x338>)
 800c898:	481e      	ldr	r0, [pc, #120]	; (800c914 <Key_input+0x328>)
 800c89a:	f002 feaa 	bl	800f5f2 <strcpy>
					TFT_Serial(g_buff);
 800c89e:	481d      	ldr	r0, [pc, #116]	; (800c914 <Key_input+0x328>)
 800c8a0:	f7fe fa4c 	bl	800ad3c <TFT_Serial>
					sprintf((char*)g_buff,"xstr 227,170,105,90,5,RED,GRAY,1,1,1,\"NG\"");
 800c8a4:	4920      	ldr	r1, [pc, #128]	; (800c928 <Key_input+0x33c>)
 800c8a6:	481b      	ldr	r0, [pc, #108]	; (800c914 <Key_input+0x328>)
 800c8a8:	f002 fea3 	bl	800f5f2 <strcpy>
					TFT_Serial(g_buff);
 800c8ac:	4819      	ldr	r0, [pc, #100]	; (800c914 <Key_input+0x328>)
 800c8ae:	f7fe fa45 	bl	800ad3c <TFT_Serial>
		if(Push_Flag == pba_false && ((count1 == 1  && g_type == IN )||(count2 == 1  && g_type == OUT ) ))
 800c8b2:	7822      	ldrb	r2, [r4, #0]
 800c8b4:	4b1d      	ldr	r3, [pc, #116]	; (800c92c <Key_input+0x340>)
 800c8b6:	2a00      	cmp	r2, #0
 800c8b8:	d14e      	bne.n	800c958 <Key_input+0x36c>
 800c8ba:	e039      	b.n	800c930 <Key_input+0x344>
 800c8bc:	200017b4 	.word	0x200017b4
 800c8c0:	40020400 	.word	0x40020400
 800c8c4:	200017a5 	.word	0x200017a5
 800c8c8:	200017c8 	.word	0x200017c8
 800c8cc:	200017a4 	.word	0x200017a4
 800c8d0:	080116e3 	.word	0x080116e3
 800c8d4:	40020800 	.word	0x40020800
 800c8d8:	20007018 	.word	0x20007018
 800c8dc:	40020000 	.word	0x40020000
 800c8e0:	080118ab 	.word	0x080118ab
 800c8e4:	080118b5 	.word	0x080118b5
 800c8e8:	200017a7 	.word	0x200017a7
 800c8ec:	080118c5 	.word	0x080118c5
 800c8f0:	0801177a 	.word	0x0801177a
 800c8f4:	0801178b 	.word	0x0801178b
 800c8f8:	200017a8 	.word	0x200017a8
 800c8fc:	200017d4 	.word	0x200017d4
 800c900:	200017ab 	.word	0x200017ab
 800c904:	43480000 	.word	0x43480000
 800c908:	200017ac 	.word	0x200017ac
 800c90c:	200017ad 	.word	0x200017ad
 800c910:	080118ea 	.word	0x080118ea
 800c914:	200019b4 	.word	0x200019b4
 800c918:	08011913 	.word	0x08011913
 800c91c:	0801193f 	.word	0x0801193f
 800c920:	0801196a 	.word	0x0801196a
 800c924:	08011992 	.word	0x08011992
 800c928:	080119c0 	.word	0x080119c0
 800c92c:	200017aa 	.word	0x200017aa
 800c930:	4a6b      	ldr	r2, [pc, #428]	; (800cae0 <Key_input+0x4f4>)
 800c932:	486c      	ldr	r0, [pc, #432]	; (800cae4 <Key_input+0x4f8>)
 800c934:	7811      	ldrb	r1, [r2, #0]
 800c936:	2901      	cmp	r1, #1
 800c938:	d101      	bne.n	800c93e <Key_input+0x352>
 800c93a:	6829      	ldr	r1, [r5, #0]
 800c93c:	b129      	cbz	r1, 800c94a <Key_input+0x35e>
 800c93e:	7801      	ldrb	r1, [r0, #0]
 800c940:	2901      	cmp	r1, #1
 800c942:	d109      	bne.n	800c958 <Key_input+0x36c>
 800c944:	6829      	ldr	r1, [r5, #0]
 800c946:	2901      	cmp	r1, #1
 800c948:	d106      	bne.n	800c958 <Key_input+0x36c>
					count1 = 0;
 800c94a:	2100      	movs	r1, #0
 800c94c:	7011      	strb	r1, [r2, #0]
					count3 = 0;
 800c94e:	4a66      	ldr	r2, [pc, #408]	; (800cae8 <Key_input+0x4fc>)
					count2 = 0;
 800c950:	7001      	strb	r1, [r0, #0]
					count3 = 0;
 800c952:	7011      	strb	r1, [r2, #0]
					Vaccum_Push = 1;
 800c954:	2201      	movs	r2, #1
 800c956:	701a      	strb	r2, [r3, #0]
		if(Push_Flag == pba_false && count1 == 1 && count2 == 1 && g_type == ALL)
 800c958:	7821      	ldrb	r1, [r4, #0]
 800c95a:	f001 02ff 	and.w	r2, r1, #255	; 0xff
 800c95e:	b979      	cbnz	r1, 800c980 <Key_input+0x394>
 800c960:	4e5f      	ldr	r6, [pc, #380]	; (800cae0 <Key_input+0x4f4>)
 800c962:	7831      	ldrb	r1, [r6, #0]
 800c964:	2901      	cmp	r1, #1
 800c966:	d10b      	bne.n	800c980 <Key_input+0x394>
 800c968:	485e      	ldr	r0, [pc, #376]	; (800cae4 <Key_input+0x4f8>)
 800c96a:	7801      	ldrb	r1, [r0, #0]
 800c96c:	2901      	cmp	r1, #1
 800c96e:	d107      	bne.n	800c980 <Key_input+0x394>
 800c970:	682d      	ldr	r5, [r5, #0]
 800c972:	2d02      	cmp	r5, #2
 800c974:	d104      	bne.n	800c980 <Key_input+0x394>
					count2 = 0;
 800c976:	7002      	strb	r2, [r0, #0]
					count3 = 0;
 800c978:	485b      	ldr	r0, [pc, #364]	; (800cae8 <Key_input+0x4fc>)
					count1 = 0;
 800c97a:	7032      	strb	r2, [r6, #0]
					count3 = 0;
 800c97c:	7002      	strb	r2, [r0, #0]
					Vaccum_Push = 1;
 800c97e:	7019      	strb	r1, [r3, #0]
		if(Vaccum_Push == 1 && Push_Flag == pba_false)
 800c980:	781a      	ldrb	r2, [r3, #0]
 800c982:	2a01      	cmp	r2, #1
 800c984:	d129      	bne.n	800c9da <Key_input+0x3ee>
 800c986:	7821      	ldrb	r1, [r4, #0]
 800c988:	f001 00ff 	and.w	r0, r1, #255	; 0xff
 800c98c:	bb29      	cbnz	r1, 800c9da <Key_input+0x3ee>
			Vaccum_Push = 0;
 800c98e:	7018      	strb	r0, [r3, #0]
			if((g_test == DEBUG_ON) && (Debug_Flag == pba_false))
 800c990:	4b56      	ldr	r3, [pc, #344]	; (800caec <Key_input+0x500>)
			Push_Flag = pba_true;
 800c992:	7022      	strb	r2, [r4, #0]
			if((g_test == DEBUG_ON) && (Debug_Flag == pba_false))
 800c994:	681b      	ldr	r3, [r3, #0]
 800c996:	b92b      	cbnz	r3, 800c9a4 <Key_input+0x3b8>
 800c998:	4b55      	ldr	r3, [pc, #340]	; (800caf0 <Key_input+0x504>)
 800c99a:	781b      	ldrb	r3, [r3, #0]
 800c99c:	b913      	cbnz	r3, 800c9a4 <Key_input+0x3b8>
				TFT_Serial((uint8_t*)"page 1");
 800c99e:	4855      	ldr	r0, [pc, #340]	; (800caf4 <Key_input+0x508>)
 800c9a0:	f7fe f9cc 	bl	800ad3c <TFT_Serial>
			VAC_ON;
 800c9a4:	2201      	movs	r2, #1
 800c9a6:	f44f 6100 	mov.w	r1, #2048	; 0x800
 800c9aa:	4853      	ldr	r0, [pc, #332]	; (800caf8 <Key_input+0x50c>)
			LCD_UsrLog("VACCUM ON\n");
 800c9ac:	4d53      	ldr	r5, [pc, #332]	; (800cafc <Key_input+0x510>)
			VAC_ON;
 800c9ae:	f7fd f97f 	bl	8009cb0 <HAL_GPIO_WritePin>
			VAC1_ON;
 800c9b2:	2201      	movs	r2, #1
 800c9b4:	f44f 4100 	mov.w	r1, #32768	; 0x8000
 800c9b8:	4851      	ldr	r0, [pc, #324]	; (800cb00 <Key_input+0x514>)
 800c9ba:	f7fd f979 	bl	8009cb0 <HAL_GPIO_WritePin>
			LCD_UsrLog("VACCUM ON\n");
 800c9be:	2300      	movs	r3, #0
 800c9c0:	4850      	ldr	r0, [pc, #320]	; (800cb04 <Key_input+0x518>)
 800c9c2:	602b      	str	r3, [r5, #0]
 800c9c4:	f002 fd24 	bl	800f410 <puts>
			Beep(1,50);
 800c9c8:	2001      	movs	r0, #1
 800c9ca:	2132      	movs	r1, #50	; 0x32
 800c9cc:	f7fe f9e0 	bl	800ad90 <Beep>
			LCD_DbgLog("Press L.START + R.START Key\n");
 800c9d0:	2304      	movs	r3, #4
 800c9d2:	484d      	ldr	r0, [pc, #308]	; (800cb08 <Key_input+0x51c>)
 800c9d4:	602b      	str	r3, [r5, #0]
 800c9d6:	f002 fd1b 	bl	800f410 <puts>
		if(((HAL_GPIO_ReadPin(RIGHT_KEY_GPIO_Port, RIGHT_KEY_Pin) == GPIO_PIN_RESET)) && Push_Flag == pba_true)
 800c9da:	f44f 4100 	mov.w	r1, #32768	; 0x8000
 800c9de:	484b      	ldr	r0, [pc, #300]	; (800cb0c <Key_input+0x520>)
 800c9e0:	f7fd f960 	bl	8009ca4 <HAL_GPIO_ReadPin>
 800c9e4:	2800      	cmp	r0, #0
 800c9e6:	d178      	bne.n	800cada <Key_input+0x4ee>
 800c9e8:	7823      	ldrb	r3, [r4, #0]
 800c9ea:	2b01      	cmp	r3, #1
 800c9ec:	d175      	bne.n	800cada <Key_input+0x4ee>
			HAL_Delay(10);
 800c9ee:	200a      	movs	r0, #10
 800c9f0:	f7fc fc5e 	bl	80092b0 <HAL_Delay>
			while(HAL_GPIO_ReadPin(RIGHT_KEY_GPIO_Port, RIGHT_KEY_Pin) == GPIO_PIN_RESET);
 800c9f4:	4c45      	ldr	r4, [pc, #276]	; (800cb0c <Key_input+0x520>)
 800c9f6:	f44f 4100 	mov.w	r1, #32768	; 0x8000
 800c9fa:	4620      	mov	r0, r4
 800c9fc:	f7fd f952 	bl	8009ca4 <HAL_GPIO_ReadPin>
 800ca00:	2800      	cmp	r0, #0
 800ca02:	d0f8      	beq.n	800c9f6 <Key_input+0x40a>
			Beep(1,50);
 800ca04:	2132      	movs	r1, #50	; 0x32
 800ca06:	2001      	movs	r0, #1
 800ca08:	f7fe f9c2 	bl	800ad90 <Beep>
			LCD_BlueLog("**********INSPECTION START**********\n");
 800ca0c:	4c3b      	ldr	r4, [pc, #236]	; (800cafc <Key_input+0x510>)
			HAL_GPIO_WritePin(FET1_GPIO_Port, FET1_Pin, GPIO_PIN_SET); //Vaccum state 20 Ohm FET OFF
 800ca0e:	483f      	ldr	r0, [pc, #252]	; (800cb0c <Key_input+0x520>)
				if(HAL_GPIO_ReadPin(GPIOB, GPIO_PIN_14) == GPIO_PIN_SET) break; //Sensor ON
 800ca10:	4d3e      	ldr	r5, [pc, #248]	; (800cb0c <Key_input+0x520>)
			HAL_GPIO_WritePin(FET1_GPIO_Port, FET1_Pin, GPIO_PIN_SET); //Vaccum state 20 Ohm FET OFF
 800ca12:	2201      	movs	r2, #1
 800ca14:	2140      	movs	r1, #64	; 0x40
 800ca16:	f7fd f94b 	bl	8009cb0 <HAL_GPIO_WritePin>
			LCD_BlueLog("**********INSPECTION START**********\n");
 800ca1a:	2303      	movs	r3, #3
 800ca1c:	483c      	ldr	r0, [pc, #240]	; (800cb10 <Key_input+0x524>)
 800ca1e:	6023      	str	r3, [r4, #0]
 800ca20:	f002 fcf6 	bl	800f410 <puts>
			MAIN_ON;
 800ca24:	2201      	movs	r2, #1
 800ca26:	2180      	movs	r1, #128	; 0x80
 800ca28:	4838      	ldr	r0, [pc, #224]	; (800cb0c <Key_input+0x520>)
 800ca2a:	f7fd f941 	bl	8009cb0 <HAL_GPIO_WritePin>
			HAL_GPIO_WritePin(NG_LED_GPIO_Port, NG_LED_Pin, GPIO_PIN_SET);
 800ca2e:	2201      	movs	r2, #1
 800ca30:	2110      	movs	r1, #16
 800ca32:	4831      	ldr	r0, [pc, #196]	; (800caf8 <Key_input+0x50c>)
 800ca34:	f7fd f93c 	bl	8009cb0 <HAL_GPIO_WritePin>
			HAL_GPIO_WritePin(OK_LED_GPIO_Port, OK_LED_Pin, GPIO_PIN_SET);
 800ca38:	2201      	movs	r2, #1
 800ca3a:	f44f 5100 	mov.w	r1, #8192	; 0x2000
 800ca3e:	4833      	ldr	r0, [pc, #204]	; (800cb0c <Key_input+0x520>)
 800ca40:	f7fd f936 	bl	8009cb0 <HAL_GPIO_WritePin>
			HAL_GPIO_WritePin(LLED_NG_GPIO_Port, LLED_NG_Pin, GPIO_PIN_SET);
 800ca44:	2201      	movs	r2, #1
 800ca46:	f44f 7100 	mov.w	r1, #512	; 0x200
 800ca4a:	4830      	ldr	r0, [pc, #192]	; (800cb0c <Key_input+0x520>)
 800ca4c:	f7fd f930 	bl	8009cb0 <HAL_GPIO_WritePin>
			HAL_GPIO_WritePin(LLED_OK_GPIO_Port, LLED_OK_Pin, GPIO_PIN_SET);
 800ca50:	2201      	movs	r2, #1
 800ca52:	f44f 7180 	mov.w	r1, #256	; 0x100
 800ca56:	482d      	ldr	r0, [pc, #180]	; (800cb0c <Key_input+0x520>)
 800ca58:	f7fd f92a 	bl	8009cb0 <HAL_GPIO_WritePin>
			HAL_GPIO_WritePin(RLED_NG_GPIO_Port, RLED_NG_Pin, GPIO_PIN_SET);
 800ca5c:	2201      	movs	r2, #1
 800ca5e:	2180      	movs	r1, #128	; 0x80
 800ca60:	4827      	ldr	r0, [pc, #156]	; (800cb00 <Key_input+0x514>)
 800ca62:	f7fd f925 	bl	8009cb0 <HAL_GPIO_WritePin>
			HAL_GPIO_WritePin(RLED_OK_GPIO_Port, RLED_OK_Pin, GPIO_PIN_SET);
 800ca66:	2201      	movs	r2, #1
 800ca68:	2140      	movs	r1, #64	; 0x40
 800ca6a:	4825      	ldr	r0, [pc, #148]	; (800cb00 <Key_input+0x514>)
 800ca6c:	f7fd f920 	bl	8009cb0 <HAL_GPIO_WritePin>
			LCD_UsrLog("Main Cylinder ON\n");
 800ca70:	2300      	movs	r3, #0
 800ca72:	4828      	ldr	r0, [pc, #160]	; (800cb14 <Key_input+0x528>)
 800ca74:	6023      	str	r3, [r4, #0]
 800ca76:	f002 fccb 	bl	800f410 <puts>
			LCD_DbgLog("Main Sensor wait...\n");
 800ca7a:	2304      	movs	r3, #4
 800ca7c:	4826      	ldr	r0, [pc, #152]	; (800cb18 <Key_input+0x52c>)
 800ca7e:	6023      	str	r3, [r4, #0]
 800ca80:	f002 fcc6 	bl	800f410 <puts>
 800ca84:	4c25      	ldr	r4, [pc, #148]	; (800cb1c <Key_input+0x530>)
				if(HAL_GPIO_ReadPin(GPIOB, GPIO_PIN_14) == GPIO_PIN_SET) break; //Sensor ON
 800ca86:	f44f 4180 	mov.w	r1, #16384	; 0x4000
 800ca8a:	4628      	mov	r0, r5
 800ca8c:	f7fd f90a 	bl	8009ca4 <HAL_GPIO_ReadPin>
 800ca90:	2801      	cmp	r0, #1
 800ca92:	d002      	beq.n	800ca9a <Key_input+0x4ae>
				if(Rst_Flag == pba_true) break;
 800ca94:	7823      	ldrb	r3, [r4, #0]
 800ca96:	2b01      	cmp	r3, #1
 800ca98:	d1f5      	bne.n	800ca86 <Key_input+0x49a>
			if(Rst_Flag == pba_true) return;
 800ca9a:	7823      	ldrb	r3, [r4, #0]
 800ca9c:	2b01      	cmp	r3, #1
 800ca9e:	d01c      	beq.n	800cada <Key_input+0x4ee>
			DFF_GND_Init();
 800caa0:	f001 fc8d 	bl	800e3be <DFF_GND_Init>
			_delay_ms(700);
 800caa4:	f44f 702f 	mov.w	r0, #700	; 0x2bc
 800caa8:	f7ff fcb4 	bl	800c414 <_delay_ms>
			Start_Flag = pba_true;
 800caac:	4b1c      	ldr	r3, [pc, #112]	; (800cb20 <Key_input+0x534>)
			VAC_OFF;
 800caae:	4812      	ldr	r0, [pc, #72]	; (800caf8 <Key_input+0x50c>)
			Start_Flag = pba_true;
 800cab0:	2201      	movs	r2, #1
 800cab2:	701a      	strb	r2, [r3, #0]
			VAC_OFF;
 800cab4:	f44f 6100 	mov.w	r1, #2048	; 0x800
 800cab8:	2200      	movs	r2, #0
 800caba:	f7fd f8f9 	bl	8009cb0 <HAL_GPIO_WritePin>
			VAC1_OFF;
 800cabe:	2200      	movs	r2, #0
 800cac0:	f44f 4100 	mov.w	r1, #32768	; 0x8000
 800cac4:	480e      	ldr	r0, [pc, #56]	; (800cb00 <Key_input+0x514>)
}
 800cac6:	e8bd 41f0 	ldmia.w	sp!, {r4, r5, r6, r7, r8, lr}
			VAC1_OFF;
 800caca:	f7fd b8f1 	b.w	8009cb0 <HAL_GPIO_WritePin>
			if(Rst_Flag == pba_true)
 800cace:	783b      	ldrb	r3, [r7, #0]
 800cad0:	2b01      	cmp	r3, #1
				Push_Flag = pba_false;
 800cad2:	bf04      	itt	eq
 800cad4:	2300      	moveq	r3, #0
 800cad6:	7023      	strbeq	r3, [r4, #0]
 800cad8:	e5c4      	b.n	800c664 <Key_input+0x78>
 800cada:	e8bd 81f0 	ldmia.w	sp!, {r4, r5, r6, r7, r8, pc}
 800cade:	bf00      	nop
 800cae0:	200017ab 	.word	0x200017ab
 800cae4:	200017ac 	.word	0x200017ac
 800cae8:	200017ad 	.word	0x200017ad
 800caec:	200017c8 	.word	0x200017c8
 800caf0:	200017a4 	.word	0x200017a4
 800caf4:	080116e3 	.word	0x080116e3
 800caf8:	40020800 	.word	0x40020800
 800cafc:	20007018 	.word	0x20007018
 800cb00:	40020000 	.word	0x40020000
 800cb04:	080118ab 	.word	0x080118ab
 800cb08:	080119ea 	.word	0x080119ea
 800cb0c:	40020400 	.word	0x40020400
 800cb10:	080118c5 	.word	0x080118c5
 800cb14:	0801177a 	.word	0x0801177a
 800cb18:	0801178b 	.word	0x0801178b
 800cb1c:	200017a7 	.word	0x200017a7
 800cb20:	200017a8 	.word	0x200017a8

0800cb24 <Result_Task>:
	if(Result_Flag == pba_true)
 800cb24:	4b7f      	ldr	r3, [pc, #508]	; (800cd24 <Result_Task+0x200>)
{
 800cb26:	e92d 4ff7 	stmdb	sp!, {r0, r1, r2, r4, r5, r6, r7, r8, r9, sl, fp, lr}
	if(Result_Flag == pba_true)
 800cb2a:	781a      	ldrb	r2, [r3, #0]
 800cb2c:	b2d2      	uxtb	r2, r2
 800cb2e:	2a01      	cmp	r2, #1
 800cb30:	f040 8236 	bne.w	800cfa0 <Result_Task+0x47c>
		if(g_type == IN)
 800cb34:	4e7c      	ldr	r6, [pc, #496]	; (800cd28 <Result_Task+0x204>)
 800cb36:	4c7d      	ldr	r4, [pc, #500]	; (800cd2c <Result_Task+0x208>)
		Result_Flag = pba_false;
 800cb38:	2500      	movs	r5, #0
 800cb3a:	701d      	strb	r5, [r3, #0]
		if(g_type == IN)
 800cb3c:	6833      	ldr	r3, [r6, #0]
 800cb3e:	b1fb      	cbz	r3, 800cb80 <Result_Task+0x5c>
		else if(g_type == OUT)
 800cb40:	2b01      	cmp	r3, #1
 800cb42:	f040 80ae 	bne.w	800cca2 <Result_Task+0x17e>
			if(Out_ostate == pba_true) LCD_OkLog("2.OUT Open Inspection => OK[10R]\n");
 800cb46:	4a7a      	ldr	r2, [pc, #488]	; (800cd30 <Result_Task+0x20c>)
 800cb48:	7812      	ldrb	r2, [r2, #0]
 800cb4a:	2a01      	cmp	r2, #1
 800cb4c:	f040 809c 	bne.w	800cc88 <Result_Task+0x164>
 800cb50:	2302      	movs	r3, #2
 800cb52:	4878      	ldr	r0, [pc, #480]	; (800cd34 <Result_Task+0x210>)
 800cb54:	6023      	str	r3, [r4, #0]
 800cb56:	f002 fbe7 	bl	800f328 <iprintf>
 800cb5a:	4877      	ldr	r0, [pc, #476]	; (800cd38 <Result_Task+0x214>)
			else LCD_ErrLog("2.OUT Open Inspection => NG[10R]\n");
 800cb5c:	f002 fc58 	bl	800f410 <puts>
 800cb60:	6025      	str	r5, [r4, #0]
			if(Out_sstate == pba_true) LCD_OkLog("2.OUT Short Inspection => OK[10MR]\n");
 800cb62:	4b76      	ldr	r3, [pc, #472]	; (800cd3c <Result_Task+0x218>)
 800cb64:	781b      	ldrb	r3, [r3, #0]
 800cb66:	2b01      	cmp	r3, #1
 800cb68:	f040 8094 	bne.w	800cc94 <Result_Task+0x170>
 800cb6c:	2302      	movs	r3, #2
 800cb6e:	4871      	ldr	r0, [pc, #452]	; (800cd34 <Result_Task+0x210>)
 800cb70:	6023      	str	r3, [r4, #0]
 800cb72:	f002 fbd9 	bl	800f328 <iprintf>
 800cb76:	4872      	ldr	r0, [pc, #456]	; (800cd40 <Result_Task+0x21c>)
			else LCD_ErrLog("2.OUT Short Inspection => NG[10MR]\n");
 800cb78:	f002 fc4a 	bl	800f410 <puts>
 800cb7c:	2300      	movs	r3, #0
 800cb7e:	6023      	str	r3, [r4, #0]
		g_tick_timer2 = HAL_GetTick();
 800cb80:	f7fc fb90 	bl	80092a4 <HAL_GetTick>
 800cb84:	4b6f      	ldr	r3, [pc, #444]	; (800cd44 <Result_Task+0x220>)
		LCD_UsrLog("Tact time : %.2f[sec]\n", (float)(g_tick_timer2 - g_tick_timer1)/1000);
 800cb86:	ed9f 7a70 	vldr	s14, [pc, #448]	; 800cd48 <Result_Task+0x224>
		g_tick_timer2 = HAL_GetTick();
 800cb8a:	6018      	str	r0, [r3, #0]
		LCD_UsrLog("Tact time : %.2f[sec]\n", (float)(g_tick_timer2 - g_tick_timer1)/1000);
 800cb8c:	4b6f      	ldr	r3, [pc, #444]	; (800cd4c <Result_Task+0x228>)
 800cb8e:	681b      	ldr	r3, [r3, #0]
 800cb90:	1ac0      	subs	r0, r0, r3
 800cb92:	ee07 0a90 	vmov	s15, r0
 800cb96:	eef8 7a67 	vcvt.f32.u32	s15, s15
 800cb9a:	f04f 0a00 	mov.w	sl, #0
 800cb9e:	eec7 6a87 	vdiv.f32	s13, s15, s14
 800cba2:	f8c4 a000 	str.w	sl, [r4]
 800cba6:	ee16 0a90 	vmov	r0, s13
 800cbaa:	f7fb fcd5 	bl	8008558 <__aeabi_f2d>
 800cbae:	4602      	mov	r2, r0
 800cbb0:	460b      	mov	r3, r1
 800cbb2:	4867      	ldr	r0, [pc, #412]	; (800cd50 <Result_Task+0x22c>)
 800cbb4:	f002 fbb8 	bl	800f328 <iprintf>
		DFF_Floating_Init();
 800cbb8:	f001 fc59 	bl	800e46e <DFF_Floating_Init>
		LCD_BlueLog("********INSPECTION COMPLETED********\n");
 800cbbc:	2303      	movs	r3, #3
 800cbbe:	4865      	ldr	r0, [pc, #404]	; (800cd54 <Result_Task+0x230>)
 800cbc0:	6023      	str	r3, [r4, #0]
 800cbc2:	f002 fc25 	bl	800f410 <puts>
		_delay_ms(300);
 800cbc6:	f44f 7096 	mov.w	r0, #300	; 0x12c
 800cbca:	f7ff fc23 	bl	800c414 <_delay_ms>
		if(Rst_Flag == pba_true) return;
 800cbce:	4b62      	ldr	r3, [pc, #392]	; (800cd58 <Result_Task+0x234>)
 800cbd0:	9301      	str	r3, [sp, #4]
 800cbd2:	781a      	ldrb	r2, [r3, #0]
 800cbd4:	2a01      	cmp	r2, #1
 800cbd6:	f000 81e3 	beq.w	800cfa0 <Result_Task+0x47c>
		pba_bool In_state = In_ostate & In_sstate;
 800cbda:	4b60      	ldr	r3, [pc, #384]	; (800cd5c <Result_Task+0x238>)
		if(g_type == IN) //In mode
 800cbdc:	f8d6 b000 	ldr.w	fp, [r6]
		pba_bool In_state = In_ostate & In_sstate;
 800cbe0:	f893 9000 	ldrb.w	r9, [r3]
 800cbe4:	4b5e      	ldr	r3, [pc, #376]	; (800cd60 <Result_Task+0x23c>)
 800cbe6:	4f5f      	ldr	r7, [pc, #380]	; (800cd64 <Result_Task+0x240>)
 800cbe8:	781b      	ldrb	r3, [r3, #0]
 800cbea:	4e5f      	ldr	r6, [pc, #380]	; (800cd68 <Result_Task+0x244>)
 800cbec:	f8df 81b8 	ldr.w	r8, [pc, #440]	; 800cda8 <Result_Task+0x284>
 800cbf0:	ea09 0903 	and.w	r9, r9, r3
		pba_bool Out_state = Out_ostate & Out_sstate;
 800cbf4:	4b4e      	ldr	r3, [pc, #312]	; (800cd30 <Result_Task+0x20c>)
 800cbf6:	781d      	ldrb	r5, [r3, #0]
 800cbf8:	4b50      	ldr	r3, [pc, #320]	; (800cd3c <Result_Task+0x218>)
 800cbfa:	781a      	ldrb	r2, [r3, #0]
 800cbfc:	b2ed      	uxtb	r5, r5
 800cbfe:	b2d2      	uxtb	r2, r2
		if(g_type == IN) //In mode
 800cc00:	f1bb 0f00 	cmp.w	fp, #0
 800cc04:	f040 81cf 	bne.w	800cfa6 <Result_Task+0x482>
			in_sum_count = in_ok_count + in_ng_count;
 800cc08:	683a      	ldr	r2, [r7, #0]
 800cc0a:	6831      	ldr	r1, [r6, #0]
			total_sum_count = in_ok_count + in_ng_count + out_ok_count + out_ng_count;
 800cc0c:	4d57      	ldr	r5, [pc, #348]	; (800cd6c <Result_Task+0x248>)
			in_sum_count = in_ok_count + in_ng_count;
 800cc0e:	4b58      	ldr	r3, [pc, #352]	; (800cd70 <Result_Task+0x24c>)
			total_sum_count = in_ok_count + in_ng_count + out_ok_count + out_ng_count;
 800cc10:	6828      	ldr	r0, [r5, #0]
			in_sum_count = in_ok_count + in_ng_count;
 800cc12:	4411      	add	r1, r2
			total_sum_count = in_ok_count + in_ng_count + out_ok_count + out_ng_count;
 800cc14:	f8d8 2000 	ldr.w	r2, [r8]
			in_sum_count = in_ok_count + in_ng_count;
 800cc18:	6019      	str	r1, [r3, #0]
			total_sum_count = in_ok_count + in_ng_count + out_ok_count + out_ng_count;
 800cc1a:	4402      	add	r2, r0
 800cc1c:	4b55      	ldr	r3, [pc, #340]	; (800cd74 <Result_Task+0x250>)
 800cc1e:	440a      	add	r2, r1
			if(In_state == pba_true) //Left ok
 800cc20:	f1b9 0f01 	cmp.w	r9, #1
			total_sum_count = in_ok_count + in_ng_count + out_ok_count + out_ng_count;
 800cc24:	601a      	str	r2, [r3, #0]
			if(In_state == pba_true) //Left ok
 800cc26:	f040 80c1 	bne.w	800cdac <Result_Task+0x288>
				lock_count = 0;
 800cc2a:	4a53      	ldr	r2, [pc, #332]	; (800cd78 <Result_Task+0x254>)
				Beep(2,50);
 800cc2c:	2132      	movs	r1, #50	; 0x32
 800cc2e:	2002      	movs	r0, #2
				lock_count = 0;
 800cc30:	f8c2 b000 	str.w	fp, [r2]
				Beep(2,50);
 800cc34:	f7fe f8ac 	bl	800ad90 <Beep>
				HAL_GPIO_WritePin(OK_LED_GPIO_Port, OK_LED_Pin, GPIO_PIN_RESET);
 800cc38:	465a      	mov	r2, fp
 800cc3a:	f44f 5100 	mov.w	r1, #8192	; 0x2000
 800cc3e:	484f      	ldr	r0, [pc, #316]	; (800cd7c <Result_Task+0x258>)
 800cc40:	f7fd f836 	bl	8009cb0 <HAL_GPIO_WritePin>
				HAL_GPIO_WritePin(LLED_OK_GPIO_Port, LLED_OK_Pin, GPIO_PIN_RESET);
 800cc44:	465a      	mov	r2, fp
 800cc46:	f44f 7180 	mov.w	r1, #256	; 0x100
 800cc4a:	484c      	ldr	r0, [pc, #304]	; (800cd7c <Result_Task+0x258>)
 800cc4c:	f7fd f830 	bl	8009cb0 <HAL_GPIO_WritePin>
				in_ok_count++;
 800cc50:	683b      	ldr	r3, [r7, #0]
				total_ok_count = in_ok_count + out_ok_count;
 800cc52:	f8d8 2000 	ldr.w	r2, [r8]
				in_ok_count++;
 800cc56:	3301      	adds	r3, #1
 800cc58:	603b      	str	r3, [r7, #0]
				total_ok_count = in_ok_count + out_ok_count;
 800cc5a:	4413      	add	r3, r2
 800cc5c:	4a48      	ldr	r2, [pc, #288]	; (800cd80 <Result_Task+0x25c>)
 800cc5e:	6013      	str	r3, [r2, #0]
				if(g_mark == MARK_ON)
 800cc60:	4b48      	ldr	r3, [pc, #288]	; (800cd84 <Result_Task+0x260>)
 800cc62:	681b      	ldr	r3, [r3, #0]
 800cc64:	2b00      	cmp	r3, #0
 800cc66:	f040 80c2 	bne.w	800cdee <Result_Task+0x2ca>
					LMARK_ON;
 800cc6a:	2201      	movs	r2, #1
 800cc6c:	2104      	movs	r1, #4
 800cc6e:	4846      	ldr	r0, [pc, #280]	; (800cd88 <Result_Task+0x264>)
 800cc70:	f7fd f81e 	bl	8009cb0 <HAL_GPIO_WritePin>
					HAL_Delay(300);
 800cc74:	f44f 7096 	mov.w	r0, #300	; 0x12c
 800cc78:	f7fc fb1a 	bl	80092b0 <HAL_Delay>
					LMARK_OFF;
 800cc7c:	4842      	ldr	r0, [pc, #264]	; (800cd88 <Result_Task+0x264>)
 800cc7e:	2200      	movs	r2, #0
 800cc80:	2104      	movs	r1, #4
					RMARK_OFF;
 800cc82:	f7fd f815 	bl	8009cb0 <HAL_GPIO_WritePin>
 800cc86:	e0b2      	b.n	800cdee <Result_Task+0x2ca>
			else LCD_ErrLog("2.OUT Open Inspection => NG[10R]\n");
 800cc88:	4840      	ldr	r0, [pc, #256]	; (800cd8c <Result_Task+0x268>)
 800cc8a:	6023      	str	r3, [r4, #0]
 800cc8c:	f002 fb4c 	bl	800f328 <iprintf>
 800cc90:	483f      	ldr	r0, [pc, #252]	; (800cd90 <Result_Task+0x26c>)
 800cc92:	e763      	b.n	800cb5c <Result_Task+0x38>
			else LCD_ErrLog("2.OUT Short Inspection => NG[10MR]\n");
 800cc94:	2301      	movs	r3, #1
 800cc96:	483d      	ldr	r0, [pc, #244]	; (800cd8c <Result_Task+0x268>)
 800cc98:	6023      	str	r3, [r4, #0]
 800cc9a:	f002 fb45 	bl	800f328 <iprintf>
 800cc9e:	483d      	ldr	r0, [pc, #244]	; (800cd94 <Result_Task+0x270>)
 800cca0:	e76a      	b.n	800cb78 <Result_Task+0x54>
		else if(g_type == ALL)
 800cca2:	2b02      	cmp	r3, #2
 800cca4:	f47f af6c 	bne.w	800cb80 <Result_Task+0x5c>
			if(In_ostate == pba_true) LCD_OkLog("1.IN Open Inspection => OK[10R]\n");
 800cca8:	492c      	ldr	r1, [pc, #176]	; (800cd5c <Result_Task+0x238>)
 800ccaa:	7809      	ldrb	r1, [r1, #0]
 800ccac:	2901      	cmp	r1, #1
 800ccae:	d124      	bne.n	800ccfa <Result_Task+0x1d6>
 800ccb0:	4820      	ldr	r0, [pc, #128]	; (800cd34 <Result_Task+0x210>)
 800ccb2:	6023      	str	r3, [r4, #0]
 800ccb4:	f002 fb38 	bl	800f328 <iprintf>
 800ccb8:	4837      	ldr	r0, [pc, #220]	; (800cd98 <Result_Task+0x274>)
			else LCD_ErrLog("1.IN Open Inspection => NG[10R]\n");
 800ccba:	f002 fba9 	bl	800f410 <puts>
			if(In_sstate == pba_true) LCD_OkLog("1.IN Short Inspection => OK[10MR]\n");
 800ccbe:	4b28      	ldr	r3, [pc, #160]	; (800cd60 <Result_Task+0x23c>)
			else LCD_ErrLog("1.IN Open Inspection => NG[10R]\n");
 800ccc0:	6025      	str	r5, [r4, #0]
			if(In_sstate == pba_true) LCD_OkLog("1.IN Short Inspection => OK[10MR]\n");
 800ccc2:	781b      	ldrb	r3, [r3, #0]
 800ccc4:	2b01      	cmp	r3, #1
 800ccc6:	d11e      	bne.n	800cd06 <Result_Task+0x1e2>
 800ccc8:	2302      	movs	r3, #2
 800ccca:	481a      	ldr	r0, [pc, #104]	; (800cd34 <Result_Task+0x210>)
 800cccc:	6023      	str	r3, [r4, #0]
 800ccce:	f002 fb2b 	bl	800f328 <iprintf>
 800ccd2:	4832      	ldr	r0, [pc, #200]	; (800cd9c <Result_Task+0x278>)
			else LCD_ErrLog("1.IN Short Inspection => NG[10MR]\n");
 800ccd4:	f002 fb9c 	bl	800f410 <puts>
 800ccd8:	2300      	movs	r3, #0
 800ccda:	6023      	str	r3, [r4, #0]
			if(Out_ostate == pba_true) LCD_OkLog("2.OUT Open Inspection => OK[10R]\n");
 800ccdc:	4b14      	ldr	r3, [pc, #80]	; (800cd30 <Result_Task+0x20c>)
 800ccde:	781b      	ldrb	r3, [r3, #0]
 800cce0:	2b01      	cmp	r3, #1
 800cce2:	d117      	bne.n	800cd14 <Result_Task+0x1f0>
 800cce4:	2302      	movs	r3, #2
 800cce6:	4813      	ldr	r0, [pc, #76]	; (800cd34 <Result_Task+0x210>)
 800cce8:	6023      	str	r3, [r4, #0]
 800ccea:	f002 fb1d 	bl	800f328 <iprintf>
 800ccee:	4812      	ldr	r0, [pc, #72]	; (800cd38 <Result_Task+0x214>)
			else LCD_ErrLog("2.OUT Open Inspection => NG[10R]\n");
 800ccf0:	f002 fb8e 	bl	800f410 <puts>
 800ccf4:	2300      	movs	r3, #0
 800ccf6:	6023      	str	r3, [r4, #0]
 800ccf8:	e733      	b.n	800cb62 <Result_Task+0x3e>
			else LCD_ErrLog("1.IN Open Inspection => NG[10R]\n");
 800ccfa:	4824      	ldr	r0, [pc, #144]	; (800cd8c <Result_Task+0x268>)
 800ccfc:	6022      	str	r2, [r4, #0]
 800ccfe:	f002 fb13 	bl	800f328 <iprintf>
 800cd02:	4827      	ldr	r0, [pc, #156]	; (800cda0 <Result_Task+0x27c>)
 800cd04:	e7d9      	b.n	800ccba <Result_Task+0x196>
			else LCD_ErrLog("1.IN Short Inspection => NG[10MR]\n");
 800cd06:	2301      	movs	r3, #1
 800cd08:	4820      	ldr	r0, [pc, #128]	; (800cd8c <Result_Task+0x268>)
 800cd0a:	6023      	str	r3, [r4, #0]
 800cd0c:	f002 fb0c 	bl	800f328 <iprintf>
 800cd10:	4824      	ldr	r0, [pc, #144]	; (800cda4 <Result_Task+0x280>)
 800cd12:	e7df      	b.n	800ccd4 <Result_Task+0x1b0>
			else LCD_ErrLog("2.OUT Open Inspection => NG[10R]\n");
 800cd14:	2301      	movs	r3, #1
 800cd16:	481d      	ldr	r0, [pc, #116]	; (800cd8c <Result_Task+0x268>)
 800cd18:	6023      	str	r3, [r4, #0]
 800cd1a:	f002 fb05 	bl	800f328 <iprintf>
 800cd1e:	481c      	ldr	r0, [pc, #112]	; (800cd90 <Result_Task+0x26c>)
 800cd20:	e7e6      	b.n	800ccf0 <Result_Task+0x1cc>
 800cd22:	bf00      	nop
 800cd24:	200017a6 	.word	0x200017a6
 800cd28:	200017d4 	.word	0x200017d4
 800cd2c:	20007018 	.word	0x20007018
 800cd30:	2000006a 	.word	0x2000006a
 800cd34:	08011e58 	.word	0x08011e58
 800cd38:	08011c1c 	.word	0x08011c1c
 800cd3c:	2000006b 	.word	0x2000006b
 800cd40:	08011c5e 	.word	0x08011c5e
 800cd44:	200017d0 	.word	0x200017d0
 800cd48:	447a0000 	.word	0x447a0000
 800cd4c:	200017cc 	.word	0x200017cc
 800cd50:	08011d28 	.word	0x08011d28
 800cd54:	08011d3f 	.word	0x08011d3f
 800cd58:	200017a7 	.word	0x200017a7
 800cd5c:	20000068 	.word	0x20000068
 800cd60:	20000069 	.word	0x20000069
 800cd64:	20001b88 	.word	0x20001b88
 800cd68:	20001bd4 	.word	0x20001bd4
 800cd6c:	20001b2c 	.word	0x20001b2c
 800cd70:	20001be0 	.word	0x20001be0
 800cd74:	20001b78 	.word	0x20001b78
 800cd78:	200017d8 	.word	0x200017d8
 800cd7c:	40020400 	.word	0x40020400
 800cd80:	20001bdc 	.word	0x20001bdc
 800cd84:	200017bc 	.word	0x200017bc
 800cd88:	40020c00 	.word	0x40020c00
 800cd8c:	08011db6 	.word	0x08011db6
 800cd90:	08011c3d 	.word	0x08011c3d
 800cd94:	08011c81 	.word	0x08011c81
 800cd98:	08011ca4 	.word	0x08011ca4
 800cd9c:	08011ce4 	.word	0x08011ce4
 800cda0:	08011cc4 	.word	0x08011cc4
 800cda4:	08011d06 	.word	0x08011d06
 800cda8:	20001938 	.word	0x20001938
				HAL_GPIO_WritePin(BUZZER_GPIO_Port, BUZZER_Pin, GPIO_PIN_SET);
 800cdac:	2201      	movs	r2, #1
 800cdae:	f44f 7100 	mov.w	r1, #512	; 0x200
 800cdb2:	48af      	ldr	r0, [pc, #700]	; (800d070 <Result_Task+0x54c>)
 800cdb4:	f7fc ff7c 	bl	8009cb0 <HAL_GPIO_WritePin>
				HAL_GPIO_WritePin(NG_LED_GPIO_Port, NG_LED_Pin, GPIO_PIN_RESET);
 800cdb8:	465a      	mov	r2, fp
 800cdba:	2110      	movs	r1, #16
 800cdbc:	48ac      	ldr	r0, [pc, #688]	; (800d070 <Result_Task+0x54c>)
 800cdbe:	f7fc ff77 	bl	8009cb0 <HAL_GPIO_WritePin>
				HAL_GPIO_WritePin(LLED_NG_GPIO_Port, LLED_NG_Pin, GPIO_PIN_RESET);
 800cdc2:	465a      	mov	r2, fp
 800cdc4:	f44f 7100 	mov.w	r1, #512	; 0x200
 800cdc8:	48aa      	ldr	r0, [pc, #680]	; (800d074 <Result_Task+0x550>)
 800cdca:	f7fc ff71 	bl	8009cb0 <HAL_GPIO_WritePin>
				in_ng_count++;
 800cdce:	6833      	ldr	r3, [r6, #0]
				total_ng_count = in_ng_count + out_ng_count;
 800cdd0:	682a      	ldr	r2, [r5, #0]
				in_ng_count++;
 800cdd2:	3301      	adds	r3, #1
 800cdd4:	6033      	str	r3, [r6, #0]
				total_ng_count = in_ng_count + out_ng_count;
 800cdd6:	4413      	add	r3, r2
 800cdd8:	4aa7      	ldr	r2, [pc, #668]	; (800d078 <Result_Task+0x554>)
 800cdda:	6013      	str	r3, [r2, #0]
				if(g_error == DEBUG_ON) if(lock_count < 5) lock_count++;
 800cddc:	4ba7      	ldr	r3, [pc, #668]	; (800d07c <Result_Task+0x558>)
 800cdde:	681b      	ldr	r3, [r3, #0]
 800cde0:	b92b      	cbnz	r3, 800cdee <Result_Task+0x2ca>
 800cde2:	4aa7      	ldr	r2, [pc, #668]	; (800d080 <Result_Task+0x55c>)
 800cde4:	6813      	ldr	r3, [r2, #0]
 800cde6:	2b04      	cmp	r3, #4
 800cde8:	dc01      	bgt.n	800cdee <Result_Task+0x2ca>
 800cdea:	3301      	adds	r3, #1
 800cdec:	6013      	str	r3, [r2, #0]
		g_rbuf[0] = (uint8_t)(in_ok_count & 0x000000FF);
 800cdee:	683b      	ldr	r3, [r7, #0]
 800cdf0:	4da4      	ldr	r5, [pc, #656]	; (800d084 <Result_Task+0x560>)
		g_rbuf[0] = (uint8_t)(out_ng_count & 0x000000FF);
 800cdf2:	f8df 92e4 	ldr.w	r9, [pc, #740]	; 800d0d8 <Result_Task+0x5b4>
		g_rbuf[0] = (uint8_t)(in_ok_count & 0x000000FF);
 800cdf6:	702b      	strb	r3, [r5, #0]
		g_rbuf[1] = (uint8_t)((in_ok_count & 0x0000FF00) >> 8);
 800cdf8:	0a1a      	lsrs	r2, r3, #8
 800cdfa:	706a      	strb	r2, [r5, #1]
		g_rbuf[2] = (uint8_t)((in_ok_count & 0x00FF0000) >> 16);
 800cdfc:	0c1a      	lsrs	r2, r3, #16
 800cdfe:	70aa      	strb	r2, [r5, #2]
		g_rbuf[3] = (uint8_t)((in_ok_count & 0xFF000000) >> 24);
 800ce00:	0e1b      	lsrs	r3, r3, #24
		eep_256_burst_write(IN_OK_ADDRESS, g_rbuf, 4);
 800ce02:	2204      	movs	r2, #4
 800ce04:	4629      	mov	r1, r5
 800ce06:	2000      	movs	r0, #0
		g_rbuf[3] = (uint8_t)((in_ok_count & 0xFF000000) >> 24);
 800ce08:	70eb      	strb	r3, [r5, #3]
		eep_256_burst_write(IN_OK_ADDRESS, g_rbuf, 4);
 800ce0a:	f000 ff8b 	bl	800dd24 <eep_256_burst_write>
		sprintf((char*)g_buff, "t16.txt=\"%5ld\"", in_ok_count);
 800ce0e:	683a      	ldr	r2, [r7, #0]
 800ce10:	499d      	ldr	r1, [pc, #628]	; (800d088 <Result_Task+0x564>)
 800ce12:	489e      	ldr	r0, [pc, #632]	; (800d08c <Result_Task+0x568>)
 800ce14:	f002 fbba 	bl	800f58c <siprintf>
		TFT_Serial(g_buff);
 800ce18:	489c      	ldr	r0, [pc, #624]	; (800d08c <Result_Task+0x568>)
 800ce1a:	f7fd ff8f 	bl	800ad3c <TFT_Serial>
		g_rbuf[0] = (uint8_t)(in_ng_count & 0x000000FF);
 800ce1e:	6833      	ldr	r3, [r6, #0]
 800ce20:	702b      	strb	r3, [r5, #0]
		g_rbuf[1] = (uint8_t)((in_ng_count & 0x0000FF00) >> 8);
 800ce22:	0a1a      	lsrs	r2, r3, #8
 800ce24:	706a      	strb	r2, [r5, #1]
		g_rbuf[2] = (uint8_t)((in_ng_count & 0x00FF0000) >> 16);
 800ce26:	0c1a      	lsrs	r2, r3, #16
 800ce28:	70aa      	strb	r2, [r5, #2]
		g_rbuf[3] = (uint8_t)((in_ng_count & 0xFF000000) >> 24);
 800ce2a:	0e1b      	lsrs	r3, r3, #24
		eep_256_burst_write(IN_NG_ADDRESS, g_rbuf, 4);
 800ce2c:	2204      	movs	r2, #4
 800ce2e:	4629      	mov	r1, r5
 800ce30:	2028      	movs	r0, #40	; 0x28
		g_rbuf[3] = (uint8_t)((in_ng_count & 0xFF000000) >> 24);
 800ce32:	70eb      	strb	r3, [r5, #3]
		eep_256_burst_write(IN_NG_ADDRESS, g_rbuf, 4);
 800ce34:	f000 ff76 	bl	800dd24 <eep_256_burst_write>
		sprintf((char*)g_buff, "t24.txt=\"%5ld\"", in_ng_count);
 800ce38:	6832      	ldr	r2, [r6, #0]
 800ce3a:	4995      	ldr	r1, [pc, #596]	; (800d090 <Result_Task+0x56c>)
 800ce3c:	4893      	ldr	r0, [pc, #588]	; (800d08c <Result_Task+0x568>)
 800ce3e:	f002 fba5 	bl	800f58c <siprintf>
		TFT_Serial(g_buff);
 800ce42:	4892      	ldr	r0, [pc, #584]	; (800d08c <Result_Task+0x568>)
 800ce44:	f7fd ff7a 	bl	800ad3c <TFT_Serial>
		in_sum_count = in_ok_count + in_ng_count;
 800ce48:	6833      	ldr	r3, [r6, #0]
 800ce4a:	683a      	ldr	r2, [r7, #0]
		sprintf((char*)g_buff, "t20.txt=\"%5ld\"", in_sum_count);
 800ce4c:	4991      	ldr	r1, [pc, #580]	; (800d094 <Result_Task+0x570>)
 800ce4e:	488f      	ldr	r0, [pc, #572]	; (800d08c <Result_Task+0x568>)
		in_sum_count = in_ok_count + in_ng_count;
 800ce50:	441a      	add	r2, r3
 800ce52:	4b91      	ldr	r3, [pc, #580]	; (800d098 <Result_Task+0x574>)
 800ce54:	601a      	str	r2, [r3, #0]
		sprintf((char*)g_buff, "t20.txt=\"%5ld\"", in_sum_count);
 800ce56:	f002 fb99 	bl	800f58c <siprintf>
		TFT_Serial(g_buff);
 800ce5a:	488c      	ldr	r0, [pc, #560]	; (800d08c <Result_Task+0x568>)
 800ce5c:	f7fd ff6e 	bl	800ad3c <TFT_Serial>
		g_rbuf[0] = (uint8_t)(out_ok_count & 0x000000FF);
 800ce60:	f8d8 3000 	ldr.w	r3, [r8]
 800ce64:	702b      	strb	r3, [r5, #0]
		g_rbuf[1] = (uint8_t)((out_ok_count & 0x0000FF00) >> 8);
 800ce66:	0a1a      	lsrs	r2, r3, #8
 800ce68:	706a      	strb	r2, [r5, #1]
		g_rbuf[2] = (uint8_t)((out_ok_count & 0x00FF0000) >> 16);
 800ce6a:	0c1a      	lsrs	r2, r3, #16
 800ce6c:	70aa      	strb	r2, [r5, #2]
		eep_256_burst_write(OUT_OK_ADDRESS, g_rbuf, 4);
 800ce6e:	2204      	movs	r2, #4
		g_rbuf[3] = (uint8_t)((out_ok_count & 0xFF000000) >> 24);
 800ce70:	0e1b      	lsrs	r3, r3, #24
		eep_256_burst_write(OUT_OK_ADDRESS, g_rbuf, 4);
 800ce72:	4629      	mov	r1, r5
 800ce74:	4610      	mov	r0, r2
		g_rbuf[3] = (uint8_t)((out_ok_count & 0xFF000000) >> 24);
 800ce76:	70eb      	strb	r3, [r5, #3]
		eep_256_burst_write(OUT_OK_ADDRESS, g_rbuf, 4);
 800ce78:	f000 ff54 	bl	800dd24 <eep_256_burst_write>
		sprintf((char*)g_buff, "t17.txt=\"%5ld\"", out_ok_count);
 800ce7c:	f8d8 2000 	ldr.w	r2, [r8]
 800ce80:	4986      	ldr	r1, [pc, #536]	; (800d09c <Result_Task+0x578>)
 800ce82:	4882      	ldr	r0, [pc, #520]	; (800d08c <Result_Task+0x568>)
 800ce84:	f002 fb82 	bl	800f58c <siprintf>
		TFT_Serial(g_buff);
 800ce88:	4880      	ldr	r0, [pc, #512]	; (800d08c <Result_Task+0x568>)
 800ce8a:	f7fd ff57 	bl	800ad3c <TFT_Serial>
		g_rbuf[0] = (uint8_t)(out_ng_count & 0x000000FF);
 800ce8e:	f8d9 3000 	ldr.w	r3, [r9]
 800ce92:	702b      	strb	r3, [r5, #0]
		g_rbuf[1] = (uint8_t)((out_ng_count & 0x0000FF00) >> 8);
 800ce94:	0a1a      	lsrs	r2, r3, #8
 800ce96:	706a      	strb	r2, [r5, #1]
		g_rbuf[2] = (uint8_t)((out_ng_count & 0x00FF0000) >> 16);
 800ce98:	0c1a      	lsrs	r2, r3, #16
 800ce9a:	70aa      	strb	r2, [r5, #2]
		g_rbuf[3] = (uint8_t)((out_ng_count & 0xFF000000) >> 24);
 800ce9c:	0e1b      	lsrs	r3, r3, #24
		eep_256_burst_write(OUT_NG_ADDRESS, g_rbuf, 4);
 800ce9e:	2204      	movs	r2, #4
 800cea0:	4629      	mov	r1, r5
 800cea2:	202c      	movs	r0, #44	; 0x2c
		g_rbuf[3] = (uint8_t)((out_ng_count & 0xFF000000) >> 24);
 800cea4:	70eb      	strb	r3, [r5, #3]
		eep_256_burst_write(OUT_NG_ADDRESS, g_rbuf, 4);
 800cea6:	f000 ff3d 	bl	800dd24 <eep_256_burst_write>
		sprintf((char*)g_buff, "t26.txt=\"%5ld\"", out_ng_count);
 800ceaa:	f8d9 2000 	ldr.w	r2, [r9]
 800ceae:	497c      	ldr	r1, [pc, #496]	; (800d0a0 <Result_Task+0x57c>)
 800ceb0:	4876      	ldr	r0, [pc, #472]	; (800d08c <Result_Task+0x568>)
 800ceb2:	f002 fb6b 	bl	800f58c <siprintf>
		TFT_Serial(g_buff);
 800ceb6:	4875      	ldr	r0, [pc, #468]	; (800d08c <Result_Task+0x568>)
 800ceb8:	f7fd ff40 	bl	800ad3c <TFT_Serial>
		out_sum_count = out_ok_count + out_ng_count;
 800cebc:	f8d9 3000 	ldr.w	r3, [r9]
 800cec0:	f8d8 2000 	ldr.w	r2, [r8]
		sprintf((char*)g_buff, "t25.txt=\"%5ld\"", out_sum_count);
 800cec4:	4977      	ldr	r1, [pc, #476]	; (800d0a4 <Result_Task+0x580>)
 800cec6:	4871      	ldr	r0, [pc, #452]	; (800d08c <Result_Task+0x568>)
		out_sum_count = out_ok_count + out_ng_count;
 800cec8:	441a      	add	r2, r3
 800ceca:	4b77      	ldr	r3, [pc, #476]	; (800d0a8 <Result_Task+0x584>)
 800cecc:	601a      	str	r2, [r3, #0]
		sprintf((char*)g_buff, "t25.txt=\"%5ld\"", out_sum_count);
 800cece:	f002 fb5d 	bl	800f58c <siprintf>
		TFT_Serial(g_buff);
 800ced2:	486e      	ldr	r0, [pc, #440]	; (800d08c <Result_Task+0x568>)
 800ced4:	f7fd ff32 	bl	800ad3c <TFT_Serial>
		total_ok_count = in_ok_count + out_ok_count;
 800ced8:	f8d8 3000 	ldr.w	r3, [r8]
 800cedc:	683a      	ldr	r2, [r7, #0]
		sprintf((char*)g_buff, "t18.txt=\"%5ld\"", total_ok_count);
 800cede:	4973      	ldr	r1, [pc, #460]	; (800d0ac <Result_Task+0x588>)
 800cee0:	486a      	ldr	r0, [pc, #424]	; (800d08c <Result_Task+0x568>)
		total_ok_count = in_ok_count + out_ok_count;
 800cee2:	441a      	add	r2, r3
 800cee4:	4b72      	ldr	r3, [pc, #456]	; (800d0b0 <Result_Task+0x58c>)
 800cee6:	601a      	str	r2, [r3, #0]
		sprintf((char*)g_buff, "t18.txt=\"%5ld\"", total_ok_count);
 800cee8:	f002 fb50 	bl	800f58c <siprintf>
		TFT_Serial(g_buff);
 800ceec:	4867      	ldr	r0, [pc, #412]	; (800d08c <Result_Task+0x568>)
 800ceee:	f7fd ff25 	bl	800ad3c <TFT_Serial>
		total_ng_count = in_ng_count + out_ng_count;
 800cef2:	f8d9 3000 	ldr.w	r3, [r9]
 800cef6:	6832      	ldr	r2, [r6, #0]
		sprintf((char*)g_buff, "t28.txt=\"%5ld\"", total_ng_count);
 800cef8:	496e      	ldr	r1, [pc, #440]	; (800d0b4 <Result_Task+0x590>)
 800cefa:	4864      	ldr	r0, [pc, #400]	; (800d08c <Result_Task+0x568>)
		total_ng_count = in_ng_count + out_ng_count;
 800cefc:	441a      	add	r2, r3
 800cefe:	4b5e      	ldr	r3, [pc, #376]	; (800d078 <Result_Task+0x554>)
 800cf00:	601a      	str	r2, [r3, #0]
		sprintf((char*)g_buff, "t28.txt=\"%5ld\"", total_ng_count);
 800cf02:	f002 fb43 	bl	800f58c <siprintf>
		TFT_Serial(g_buff);
 800cf06:	4861      	ldr	r0, [pc, #388]	; (800d08c <Result_Task+0x568>)
 800cf08:	f7fd ff18 	bl	800ad3c <TFT_Serial>
		total_sum_count = in_ok_count + in_ng_count + out_ok_count + out_ng_count;
 800cf0c:	6833      	ldr	r3, [r6, #0]
 800cf0e:	683a      	ldr	r2, [r7, #0]
		sprintf((char*)g_buff, "t29.txt=\"%5ld\"", total_sum_count);
 800cf10:	4969      	ldr	r1, [pc, #420]	; (800d0b8 <Result_Task+0x594>)
 800cf12:	485e      	ldr	r0, [pc, #376]	; (800d08c <Result_Task+0x568>)
		total_sum_count = in_ok_count + in_ng_count + out_ok_count + out_ng_count;
 800cf14:	441a      	add	r2, r3
 800cf16:	f8d8 3000 	ldr.w	r3, [r8]
 800cf1a:	441a      	add	r2, r3
 800cf1c:	f8d9 3000 	ldr.w	r3, [r9]
 800cf20:	441a      	add	r2, r3
 800cf22:	4b66      	ldr	r3, [pc, #408]	; (800d0bc <Result_Task+0x598>)
 800cf24:	601a      	str	r2, [r3, #0]
		sprintf((char*)g_buff, "t29.txt=\"%5ld\"", total_sum_count);
 800cf26:	f002 fb31 	bl	800f58c <siprintf>
		TFT_Serial(g_buff);
 800cf2a:	4858      	ldr	r0, [pc, #352]	; (800d08c <Result_Task+0x568>)
 800cf2c:	f7fd ff06 	bl	800ad3c <TFT_Serial>
		MAIN_OFF;
 800cf30:	2200      	movs	r2, #0
 800cf32:	2180      	movs	r1, #128	; 0x80
 800cf34:	484f      	ldr	r0, [pc, #316]	; (800d074 <Result_Task+0x550>)
 800cf36:	f7fc febb 	bl	8009cb0 <HAL_GPIO_WritePin>
		LCD_UsrLog("Main Cylinder OFF\n");
 800cf3a:	2300      	movs	r3, #0
 800cf3c:	4860      	ldr	r0, [pc, #384]	; (800d0c0 <Result_Task+0x59c>)
 800cf3e:	6023      	str	r3, [r4, #0]
 800cf40:	f002 fa66 	bl	800f410 <puts>
		LCD_DbgLog("Main Sensor wait...\n");
 800cf44:	2304      	movs	r3, #4
 800cf46:	485f      	ldr	r0, [pc, #380]	; (800d0c4 <Result_Task+0x5a0>)
 800cf48:	6023      	str	r3, [r4, #0]
 800cf4a:	f002 fa61 	bl	800f410 <puts>
			if(HAL_GPIO_ReadPin(GPIOB, GPIO_PIN_14) == GPIO_PIN_RESET) break; //Sensor OFF
 800cf4e:	4c49      	ldr	r4, [pc, #292]	; (800d074 <Result_Task+0x550>)
 800cf50:	f44f 4180 	mov.w	r1, #16384	; 0x4000
 800cf54:	4620      	mov	r0, r4
 800cf56:	f7fc fea5 	bl	8009ca4 <HAL_GPIO_ReadPin>
 800cf5a:	b118      	cbz	r0, 800cf64 <Result_Task+0x440>
			if(Rst_Flag == pba_true) break;
 800cf5c:	9b01      	ldr	r3, [sp, #4]
 800cf5e:	781b      	ldrb	r3, [r3, #0]
 800cf60:	2b01      	cmp	r3, #1
 800cf62:	d1f5      	bne.n	800cf50 <Result_Task+0x42c>
		sprintf((char*)g_buff, "lock count : %d\r\n", lock_count);
 800cf64:	4e46      	ldr	r6, [pc, #280]	; (800d080 <Result_Task+0x55c>)
		Vaccum_Push_Set();
 800cf66:	f7fe fcf9 	bl	800b95c <Vaccum_Push_Set>
		sprintf((char*)g_buff, "lock count : %d\r\n", lock_count);
 800cf6a:	6832      	ldr	r2, [r6, #0]
 800cf6c:	4956      	ldr	r1, [pc, #344]	; (800d0c8 <Result_Task+0x5a4>)
 800cf6e:	4847      	ldr	r0, [pc, #284]	; (800d08c <Result_Task+0x568>)
 800cf70:	f002 fb0c 	bl	800f58c <siprintf>
		Debug_serial((char*)g_buff);
 800cf74:	4845      	ldr	r0, [pc, #276]	; (800d08c <Result_Task+0x568>)
 800cf76:	f7fd fed1 	bl	800ad1c <Debug_serial>
		if(lock_count == 5 && g_error == DEBUG_ON)
 800cf7a:	6833      	ldr	r3, [r6, #0]
 800cf7c:	2b05      	cmp	r3, #5
 800cf7e:	d10f      	bne.n	800cfa0 <Result_Task+0x47c>
 800cf80:	4b3e      	ldr	r3, [pc, #248]	; (800d07c <Result_Task+0x558>)
 800cf82:	681c      	ldr	r4, [r3, #0]
 800cf84:	b964      	cbnz	r4, 800cfa0 <Result_Task+0x47c>
			g_lock_on = LOCK_ON;
 800cf86:	4a51      	ldr	r2, [pc, #324]	; (800d0cc <Result_Task+0x5a8>)
			eep_256_burst_write(LOCK_ON_ADDRESS, g_rbuf, 4);
 800cf88:	493e      	ldr	r1, [pc, #248]	; (800d084 <Result_Task+0x560>)
			g_rbuf[1] = (uint8_t)((g_lock_on & 0x0000FF00) >> 8);
 800cf8a:	706c      	strb	r4, [r5, #1]
			g_lock_on = LOCK_ON;
 800cf8c:	2301      	movs	r3, #1
 800cf8e:	6013      	str	r3, [r2, #0]
			eep_256_burst_write(LOCK_ON_ADDRESS, g_rbuf, 4);
 800cf90:	2020      	movs	r0, #32
 800cf92:	2204      	movs	r2, #4
			g_rbuf[0] = (uint8_t)(g_lock_on & 0x000000FF);
 800cf94:	702b      	strb	r3, [r5, #0]
			g_rbuf[2] = (uint8_t)((g_lock_on & 0x00FF0000) >> 16);
 800cf96:	70ac      	strb	r4, [r5, #2]
			g_rbuf[3] = (uint8_t)((g_lock_on & 0xFF000000) >> 24);
 800cf98:	70ec      	strb	r4, [r5, #3]
			eep_256_burst_write(LOCK_ON_ADDRESS, g_rbuf, 4);
 800cf9a:	f000 fec3 	bl	800dd24 <eep_256_burst_write>
			lock_count = 0;
 800cf9e:	6034      	str	r4, [r6, #0]
}
 800cfa0:	b003      	add	sp, #12
 800cfa2:	e8bd 8ff0 	ldmia.w	sp!, {r4, r5, r6, r7, r8, r9, sl, fp, pc}
		else if(g_type == OUT) //out mode
 800cfa6:	f1bb 0f01 	cmp.w	fp, #1
		pba_bool Out_state = Out_ostate & Out_sstate;
 800cfaa:	ea05 0502 	and.w	r5, r5, r2
		else if(g_type == OUT) //out mode
 800cfae:	f040 8095 	bne.w	800d0dc <Result_Task+0x5b8>
			out_sum_count = out_ok_count + out_ng_count;
 800cfb2:	f8df 9124 	ldr.w	r9, [pc, #292]	; 800d0d8 <Result_Task+0x5b4>
 800cfb6:	f8d8 2000 	ldr.w	r2, [r8]
 800cfba:	f8d9 1000 	ldr.w	r1, [r9]
			total_sum_count = in_ok_count + in_ng_count + out_ok_count + out_ng_count;
 800cfbe:	6830      	ldr	r0, [r6, #0]
 800cfc0:	4b3e      	ldr	r3, [pc, #248]	; (800d0bc <Result_Task+0x598>)
			out_sum_count = out_ok_count + out_ng_count;
 800cfc2:	4411      	add	r1, r2
 800cfc4:	4a38      	ldr	r2, [pc, #224]	; (800d0a8 <Result_Task+0x584>)
 800cfc6:	6011      	str	r1, [r2, #0]
			total_sum_count = in_ok_count + in_ng_count + out_ok_count + out_ng_count;
 800cfc8:	683a      	ldr	r2, [r7, #0]
 800cfca:	4402      	add	r2, r0
 800cfcc:	440a      	add	r2, r1
			if(Out_state == pba_true) //Right ok
 800cfce:	2d01      	cmp	r5, #1
			total_sum_count = in_ok_count + in_ng_count + out_ok_count + out_ng_count;
 800cfd0:	601a      	str	r2, [r3, #0]
			if(Out_state == pba_true) //Right ok
 800cfd2:	d132      	bne.n	800d03a <Result_Task+0x516>
				lock_count = 0;
 800cfd4:	4b2a      	ldr	r3, [pc, #168]	; (800d080 <Result_Task+0x55c>)
				Beep(2,50);
 800cfd6:	2132      	movs	r1, #50	; 0x32
 800cfd8:	2002      	movs	r0, #2
				lock_count = 0;
 800cfda:	f8c3 a000 	str.w	sl, [r3]
				Beep(2,50);
 800cfde:	f7fd fed7 	bl	800ad90 <Beep>
				HAL_GPIO_WritePin(OK_LED_GPIO_Port, OK_LED_Pin, GPIO_PIN_RESET);
 800cfe2:	4652      	mov	r2, sl
 800cfe4:	f44f 5100 	mov.w	r1, #8192	; 0x2000
 800cfe8:	4822      	ldr	r0, [pc, #136]	; (800d074 <Result_Task+0x550>)
 800cfea:	f7fc fe61 	bl	8009cb0 <HAL_GPIO_WritePin>
				HAL_GPIO_WritePin(RLED_OK_GPIO_Port, RLED_OK_Pin, GPIO_PIN_RESET);
 800cfee:	4652      	mov	r2, sl
 800cff0:	2140      	movs	r1, #64	; 0x40
 800cff2:	4837      	ldr	r0, [pc, #220]	; (800d0d0 <Result_Task+0x5ac>)
 800cff4:	f7fc fe5c 	bl	8009cb0 <HAL_GPIO_WritePin>
				Result_Display(pba_none, pba_true);
 800cff8:	4629      	mov	r1, r5
 800cffa:	2002      	movs	r0, #2
 800cffc:	f7fd fee6 	bl	800adcc <Result_Display>
				out_ok_count++;
 800d000:	f8d8 3000 	ldr.w	r3, [r8]
				total_ok_count = in_ok_count + out_ok_count;
 800d004:	683a      	ldr	r2, [r7, #0]
				out_ok_count++;
 800d006:	3301      	adds	r3, #1
 800d008:	f8c8 3000 	str.w	r3, [r8]
				total_ok_count = in_ok_count + out_ok_count;
 800d00c:	4413      	add	r3, r2
 800d00e:	4a28      	ldr	r2, [pc, #160]	; (800d0b0 <Result_Task+0x58c>)
 800d010:	6013      	str	r3, [r2, #0]
				if(g_mark == MARK_ON)
 800d012:	4b30      	ldr	r3, [pc, #192]	; (800d0d4 <Result_Task+0x5b0>)
 800d014:	681b      	ldr	r3, [r3, #0]
 800d016:	2b00      	cmp	r3, #0
 800d018:	f47f aee9 	bne.w	800cdee <Result_Task+0x2ca>
					RMARK_ON;
 800d01c:	2201      	movs	r2, #1
 800d01e:	f44f 5180 	mov.w	r1, #4096	; 0x1000
 800d022:	4813      	ldr	r0, [pc, #76]	; (800d070 <Result_Task+0x54c>)
 800d024:	f7fc fe44 	bl	8009cb0 <HAL_GPIO_WritePin>
					HAL_Delay(300);
 800d028:	f44f 7096 	mov.w	r0, #300	; 0x12c
 800d02c:	f7fc f940 	bl	80092b0 <HAL_Delay>
					RMARK_OFF;
 800d030:	2200      	movs	r2, #0
					RMARK_OFF;
 800d032:	f44f 5180 	mov.w	r1, #4096	; 0x1000
 800d036:	480e      	ldr	r0, [pc, #56]	; (800d070 <Result_Task+0x54c>)
 800d038:	e623      	b.n	800cc82 <Result_Task+0x15e>
				HAL_GPIO_WritePin(BUZZER_GPIO_Port, BUZZER_Pin, GPIO_PIN_SET);
 800d03a:	465a      	mov	r2, fp
 800d03c:	f44f 7100 	mov.w	r1, #512	; 0x200
 800d040:	480b      	ldr	r0, [pc, #44]	; (800d070 <Result_Task+0x54c>)
 800d042:	f7fc fe35 	bl	8009cb0 <HAL_GPIO_WritePin>
				HAL_GPIO_WritePin(NG_LED_GPIO_Port, NG_LED_Pin, GPIO_PIN_RESET);
 800d046:	4652      	mov	r2, sl
 800d048:	2110      	movs	r1, #16
 800d04a:	4809      	ldr	r0, [pc, #36]	; (800d070 <Result_Task+0x54c>)
 800d04c:	f7fc fe30 	bl	8009cb0 <HAL_GPIO_WritePin>
				HAL_GPIO_WritePin(RLED_NG_GPIO_Port, RLED_NG_Pin, GPIO_PIN_RESET);
 800d050:	4652      	mov	r2, sl
 800d052:	2180      	movs	r1, #128	; 0x80
 800d054:	481e      	ldr	r0, [pc, #120]	; (800d0d0 <Result_Task+0x5ac>)
 800d056:	f7fc fe2b 	bl	8009cb0 <HAL_GPIO_WritePin>
				Result_Display(pba_none, pba_false);
 800d05a:	4651      	mov	r1, sl
 800d05c:	2002      	movs	r0, #2
 800d05e:	f7fd feb5 	bl	800adcc <Result_Display>
				out_ng_count++;
 800d062:	f8d9 3000 	ldr.w	r3, [r9]
				total_ng_count = in_ng_count + out_ng_count;
 800d066:	6832      	ldr	r2, [r6, #0]
				out_ng_count++;
 800d068:	3301      	adds	r3, #1
 800d06a:	f8c9 3000 	str.w	r3, [r9]
 800d06e:	e6b2      	b.n	800cdd6 <Result_Task+0x2b2>
 800d070:	40020800 	.word	0x40020800
 800d074:	40020400 	.word	0x40020400
 800d078:	20001bd8 	.word	0x20001bd8
 800d07c:	200017b0 	.word	0x200017b0
 800d080:	200017d8 	.word	0x200017d8
 800d084:	200017c4 	.word	0x200017c4
 800d088:	08011815 	.word	0x08011815
 800d08c:	200019b4 	.word	0x200019b4
 800d090:	08011824 	.word	0x08011824
 800d094:	08011833 	.word	0x08011833
 800d098:	20001be0 	.word	0x20001be0
 800d09c:	08011842 	.word	0x08011842
 800d0a0:	08011851 	.word	0x08011851
 800d0a4:	08011860 	.word	0x08011860
 800d0a8:	20001a7c 	.word	0x20001a7c
 800d0ac:	0801186f 	.word	0x0801186f
 800d0b0:	20001bdc 	.word	0x20001bdc
 800d0b4:	0801187e 	.word	0x0801187e
 800d0b8:	0801188d 	.word	0x0801188d
 800d0bc:	20001b78 	.word	0x20001b78
 800d0c0:	0801179f 	.word	0x0801179f
 800d0c4:	0801178b 	.word	0x0801178b
 800d0c8:	08011d64 	.word	0x08011d64
 800d0cc:	200017b8 	.word	0x200017b8
 800d0d0:	40020000 	.word	0x40020000
 800d0d4:	200017bc 	.word	0x200017bc
 800d0d8:	20001b2c 	.word	0x20001b2c
		else if(g_type == ALL) //in+out mode
 800d0dc:	f1bb 0f02 	cmp.w	fp, #2
 800d0e0:	f47f ae85 	bne.w	800cdee <Result_Task+0x2ca>
			in_sum_count = in_ok_count + in_ng_count;
 800d0e4:	6831      	ldr	r1, [r6, #0]
 800d0e6:	683a      	ldr	r2, [r7, #0]
			out_sum_count = out_ok_count + out_ng_count;
 800d0e8:	f8df a218 	ldr.w	sl, [pc, #536]	; 800d304 <Result_Task+0x7e0>
			in_sum_count = in_ok_count + in_ng_count;
 800d0ec:	4b78      	ldr	r3, [pc, #480]	; (800d2d0 <Result_Task+0x7ac>)
			out_sum_count = out_ok_count + out_ng_count;
 800d0ee:	f8da 0000 	ldr.w	r0, [sl]
			in_sum_count = in_ok_count + in_ng_count;
 800d0f2:	440a      	add	r2, r1
			out_sum_count = out_ok_count + out_ng_count;
 800d0f4:	f8d8 1000 	ldr.w	r1, [r8]
			in_sum_count = in_ok_count + in_ng_count;
 800d0f8:	601a      	str	r2, [r3, #0]
			out_sum_count = out_ok_count + out_ng_count;
 800d0fa:	4401      	add	r1, r0
			total_sum_count = in_ok_count + in_ng_count + out_ok_count + out_ng_count;
 800d0fc:	4b75      	ldr	r3, [pc, #468]	; (800d2d4 <Result_Task+0x7b0>)
			out_sum_count = out_ok_count + out_ng_count;
 800d0fe:	4876      	ldr	r0, [pc, #472]	; (800d2d8 <Result_Task+0x7b4>)
			total_sum_count = in_ok_count + in_ng_count + out_ok_count + out_ng_count;
 800d100:	440a      	add	r2, r1
			out_sum_count = out_ok_count + out_ng_count;
 800d102:	6001      	str	r1, [r0, #0]
			total_sum_count = in_ok_count + in_ng_count + out_ok_count + out_ng_count;
 800d104:	601a      	str	r2, [r3, #0]
			if(In_state == pba_false && Out_state == pba_false) //all fail
 800d106:	f1b9 0f00 	cmp.w	r9, #0
 800d10a:	d15d      	bne.n	800d1c8 <Result_Task+0x6a4>
 800d10c:	bb15      	cbnz	r5, 800d154 <Result_Task+0x630>
				HAL_GPIO_WritePin(BUZZER_GPIO_Port, BUZZER_Pin, GPIO_PIN_SET);
 800d10e:	2201      	movs	r2, #1
 800d110:	f44f 7100 	mov.w	r1, #512	; 0x200
 800d114:	4871      	ldr	r0, [pc, #452]	; (800d2dc <Result_Task+0x7b8>)
 800d116:	f7fc fdcb 	bl	8009cb0 <HAL_GPIO_WritePin>
				HAL_GPIO_WritePin(NG_LED_GPIO_Port, NG_LED_Pin, GPIO_PIN_RESET);
 800d11a:	462a      	mov	r2, r5
 800d11c:	2110      	movs	r1, #16
 800d11e:	486f      	ldr	r0, [pc, #444]	; (800d2dc <Result_Task+0x7b8>)
 800d120:	f7fc fdc6 	bl	8009cb0 <HAL_GPIO_WritePin>
				HAL_GPIO_WritePin(LLED_NG_GPIO_Port, LLED_NG_Pin, GPIO_PIN_RESET);
 800d124:	462a      	mov	r2, r5
 800d126:	f44f 7100 	mov.w	r1, #512	; 0x200
 800d12a:	486d      	ldr	r0, [pc, #436]	; (800d2e0 <Result_Task+0x7bc>)
 800d12c:	f7fc fdc0 	bl	8009cb0 <HAL_GPIO_WritePin>
				HAL_GPIO_WritePin(RLED_NG_GPIO_Port, RLED_NG_Pin, GPIO_PIN_RESET);
 800d130:	462a      	mov	r2, r5
 800d132:	2180      	movs	r1, #128	; 0x80
 800d134:	486b      	ldr	r0, [pc, #428]	; (800d2e4 <Result_Task+0x7c0>)
 800d136:	f7fc fdbb 	bl	8009cb0 <HAL_GPIO_WritePin>
				Result_Display(pba_false, pba_false);
 800d13a:	4629      	mov	r1, r5
 800d13c:	4628      	mov	r0, r5
 800d13e:	f7fd fe45 	bl	800adcc <Result_Display>
				in_ng_count++;
 800d142:	6833      	ldr	r3, [r6, #0]
				out_ng_count++;
 800d144:	f8da 2000 	ldr.w	r2, [sl]
				in_ng_count++;
 800d148:	3301      	adds	r3, #1
				out_ng_count++;
 800d14a:	3201      	adds	r2, #1
				in_ng_count++;
 800d14c:	6033      	str	r3, [r6, #0]
				out_ng_count++;
 800d14e:	f8ca 2000 	str.w	r2, [sl]
 800d152:	e640      	b.n	800cdd6 <Result_Task+0x2b2>
			else if(In_state == pba_false && Out_state == pba_true) //Right ok
 800d154:	2d01      	cmp	r5, #1
 800d156:	f47f ae4a 	bne.w	800cdee <Result_Task+0x2ca>
				HAL_GPIO_WritePin(BUZZER_GPIO_Port, BUZZER_Pin, GPIO_PIN_SET);
 800d15a:	462a      	mov	r2, r5
 800d15c:	f44f 7100 	mov.w	r1, #512	; 0x200
 800d160:	485e      	ldr	r0, [pc, #376]	; (800d2dc <Result_Task+0x7b8>)
 800d162:	f7fc fda5 	bl	8009cb0 <HAL_GPIO_WritePin>
				HAL_GPIO_WritePin(NG_LED_GPIO_Port, NG_LED_Pin, GPIO_PIN_RESET);
 800d166:	464a      	mov	r2, r9
 800d168:	2110      	movs	r1, #16
 800d16a:	485c      	ldr	r0, [pc, #368]	; (800d2dc <Result_Task+0x7b8>)
 800d16c:	f7fc fda0 	bl	8009cb0 <HAL_GPIO_WritePin>
				HAL_GPIO_WritePin(LLED_NG_GPIO_Port, LLED_NG_Pin, GPIO_PIN_RESET);
 800d170:	464a      	mov	r2, r9
 800d172:	f44f 7100 	mov.w	r1, #512	; 0x200
 800d176:	485a      	ldr	r0, [pc, #360]	; (800d2e0 <Result_Task+0x7bc>)
 800d178:	f7fc fd9a 	bl	8009cb0 <HAL_GPIO_WritePin>
				HAL_GPIO_WritePin(RLED_OK_GPIO_Port, RLED_OK_Pin, GPIO_PIN_RESET);
 800d17c:	464a      	mov	r2, r9
 800d17e:	2140      	movs	r1, #64	; 0x40
 800d180:	4858      	ldr	r0, [pc, #352]	; (800d2e4 <Result_Task+0x7c0>)
 800d182:	f7fc fd95 	bl	8009cb0 <HAL_GPIO_WritePin>
				Result_Display(pba_false, pba_true);
 800d186:	4629      	mov	r1, r5
 800d188:	4648      	mov	r0, r9
 800d18a:	f7fd fe1f 	bl	800adcc <Result_Display>
				in_ng_count++;
 800d18e:	6832      	ldr	r2, [r6, #0]
				total_ng_count = in_ng_count + out_ng_count;
 800d190:	f8da 1000 	ldr.w	r1, [sl]
				out_ok_count++;
 800d194:	f8d8 3000 	ldr.w	r3, [r8]
				in_ng_count++;
 800d198:	3201      	adds	r2, #1
 800d19a:	6032      	str	r2, [r6, #0]
				total_ng_count = in_ng_count + out_ng_count;
 800d19c:	440a      	add	r2, r1
 800d19e:	4952      	ldr	r1, [pc, #328]	; (800d2e8 <Result_Task+0x7c4>)
 800d1a0:	600a      	str	r2, [r1, #0]
				total_ok_count = in_ok_count + out_ok_count;
 800d1a2:	683a      	ldr	r2, [r7, #0]
				out_ok_count++;
 800d1a4:	3301      	adds	r3, #1
 800d1a6:	f8c8 3000 	str.w	r3, [r8]
				total_ok_count = in_ok_count + out_ok_count;
 800d1aa:	4413      	add	r3, r2
 800d1ac:	4a4f      	ldr	r2, [pc, #316]	; (800d2ec <Result_Task+0x7c8>)
 800d1ae:	6013      	str	r3, [r2, #0]
				if(g_error == DEBUG_ON) if(lock_count < 5) lock_count++;
 800d1b0:	4b4f      	ldr	r3, [pc, #316]	; (800d2f0 <Result_Task+0x7cc>)
 800d1b2:	681b      	ldr	r3, [r3, #0]
 800d1b4:	2b00      	cmp	r3, #0
 800d1b6:	f47f af2c 	bne.w	800d012 <Result_Task+0x4ee>
 800d1ba:	4a4e      	ldr	r2, [pc, #312]	; (800d2f4 <Result_Task+0x7d0>)
 800d1bc:	6813      	ldr	r3, [r2, #0]
 800d1be:	2b04      	cmp	r3, #4
 800d1c0:	f73f af27 	bgt.w	800d012 <Result_Task+0x4ee>
 800d1c4:	3301      	adds	r3, #1
 800d1c6:	e723      	b.n	800d010 <Result_Task+0x4ec>
			else if(In_state == pba_true && Out_state == pba_false) //Left ok
 800d1c8:	f1b9 0f01 	cmp.w	r9, #1
 800d1cc:	f47f ae0f 	bne.w	800cdee <Result_Task+0x2ca>
 800d1d0:	2d00      	cmp	r5, #0
 800d1d2:	d136      	bne.n	800d242 <Result_Task+0x71e>
				HAL_GPIO_WritePin(BUZZER_GPIO_Port, BUZZER_Pin, GPIO_PIN_SET);
 800d1d4:	464a      	mov	r2, r9
 800d1d6:	f44f 7100 	mov.w	r1, #512	; 0x200
 800d1da:	4840      	ldr	r0, [pc, #256]	; (800d2dc <Result_Task+0x7b8>)
 800d1dc:	f7fc fd68 	bl	8009cb0 <HAL_GPIO_WritePin>
				HAL_GPIO_WritePin(NG_LED_GPIO_Port, NG_LED_Pin, GPIO_PIN_RESET);
 800d1e0:	462a      	mov	r2, r5
 800d1e2:	2110      	movs	r1, #16
 800d1e4:	483d      	ldr	r0, [pc, #244]	; (800d2dc <Result_Task+0x7b8>)
 800d1e6:	f7fc fd63 	bl	8009cb0 <HAL_GPIO_WritePin>
				HAL_GPIO_WritePin(LLED_OK_GPIO_Port, LLED_OK_Pin, GPIO_PIN_RESET);
 800d1ea:	462a      	mov	r2, r5
 800d1ec:	f44f 7180 	mov.w	r1, #256	; 0x100
 800d1f0:	483b      	ldr	r0, [pc, #236]	; (800d2e0 <Result_Task+0x7bc>)
 800d1f2:	f7fc fd5d 	bl	8009cb0 <HAL_GPIO_WritePin>
				HAL_GPIO_WritePin(RLED_NG_GPIO_Port, RLED_NG_Pin, GPIO_PIN_RESET);
 800d1f6:	462a      	mov	r2, r5
 800d1f8:	2180      	movs	r1, #128	; 0x80
 800d1fa:	483a      	ldr	r0, [pc, #232]	; (800d2e4 <Result_Task+0x7c0>)
 800d1fc:	f7fc fd58 	bl	8009cb0 <HAL_GPIO_WritePin>
				Result_Display(pba_true, pba_false);
 800d200:	4629      	mov	r1, r5
 800d202:	4648      	mov	r0, r9
 800d204:	f7fd fde2 	bl	800adcc <Result_Display>
				in_ok_count++;
 800d208:	683a      	ldr	r2, [r7, #0]
				total_ok_count = in_ok_count + out_ok_count;
 800d20a:	f8d8 1000 	ldr.w	r1, [r8]
				out_ng_count++;
 800d20e:	f8da 3000 	ldr.w	r3, [sl]
				in_ok_count++;
 800d212:	3201      	adds	r2, #1
 800d214:	603a      	str	r2, [r7, #0]
				total_ok_count = in_ok_count + out_ok_count;
 800d216:	440a      	add	r2, r1
 800d218:	4934      	ldr	r1, [pc, #208]	; (800d2ec <Result_Task+0x7c8>)
 800d21a:	600a      	str	r2, [r1, #0]
				total_ng_count = in_ng_count + out_ng_count;
 800d21c:	6832      	ldr	r2, [r6, #0]
				out_ng_count++;
 800d21e:	3301      	adds	r3, #1
 800d220:	f8ca 3000 	str.w	r3, [sl]
				total_ng_count = in_ng_count + out_ng_count;
 800d224:	4413      	add	r3, r2
 800d226:	4a30      	ldr	r2, [pc, #192]	; (800d2e8 <Result_Task+0x7c4>)
 800d228:	6013      	str	r3, [r2, #0]
				if(g_error == DEBUG_ON) if(lock_count < 5) lock_count++;
 800d22a:	4b31      	ldr	r3, [pc, #196]	; (800d2f0 <Result_Task+0x7cc>)
 800d22c:	681b      	ldr	r3, [r3, #0]
 800d22e:	2b00      	cmp	r3, #0
 800d230:	f47f ad16 	bne.w	800cc60 <Result_Task+0x13c>
 800d234:	4a2f      	ldr	r2, [pc, #188]	; (800d2f4 <Result_Task+0x7d0>)
 800d236:	6813      	ldr	r3, [r2, #0]
 800d238:	2b04      	cmp	r3, #4
 800d23a:	f73f ad11 	bgt.w	800cc60 <Result_Task+0x13c>
 800d23e:	3301      	adds	r3, #1
 800d240:	e50d      	b.n	800cc5e <Result_Task+0x13a>
			else if(In_state == pba_true && Out_state == pba_true) //Left, Right ok
 800d242:	2d01      	cmp	r5, #1
 800d244:	f47f add3 	bne.w	800cdee <Result_Task+0x2ca>
				Beep(2,50);
 800d248:	2132      	movs	r1, #50	; 0x32
 800d24a:	4658      	mov	r0, fp
 800d24c:	f7fd fda0 	bl	800ad90 <Beep>
				if(g_error == DEBUG_ON) lock_count = 0;
 800d250:	4b27      	ldr	r3, [pc, #156]	; (800d2f0 <Result_Task+0x7cc>)
 800d252:	681b      	ldr	r3, [r3, #0]
 800d254:	b90b      	cbnz	r3, 800d25a <Result_Task+0x736>
 800d256:	4a27      	ldr	r2, [pc, #156]	; (800d2f4 <Result_Task+0x7d0>)
 800d258:	6013      	str	r3, [r2, #0]
				HAL_GPIO_WritePin(OK_LED_GPIO_Port, OK_LED_Pin, GPIO_PIN_RESET);
 800d25a:	2200      	movs	r2, #0
 800d25c:	f44f 5100 	mov.w	r1, #8192	; 0x2000
 800d260:	481f      	ldr	r0, [pc, #124]	; (800d2e0 <Result_Task+0x7bc>)
 800d262:	f7fc fd25 	bl	8009cb0 <HAL_GPIO_WritePin>
				HAL_GPIO_WritePin(LLED_OK_GPIO_Port, LLED_OK_Pin, GPIO_PIN_RESET);
 800d266:	2200      	movs	r2, #0
 800d268:	f44f 7180 	mov.w	r1, #256	; 0x100
 800d26c:	481c      	ldr	r0, [pc, #112]	; (800d2e0 <Result_Task+0x7bc>)
 800d26e:	f7fc fd1f 	bl	8009cb0 <HAL_GPIO_WritePin>
				HAL_GPIO_WritePin(RLED_OK_GPIO_Port, RLED_OK_Pin, GPIO_PIN_RESET);
 800d272:	2200      	movs	r2, #0
 800d274:	2140      	movs	r1, #64	; 0x40
 800d276:	481b      	ldr	r0, [pc, #108]	; (800d2e4 <Result_Task+0x7c0>)
 800d278:	f7fc fd1a 	bl	8009cb0 <HAL_GPIO_WritePin>
				Result_Display(pba_true, pba_true);
 800d27c:	2101      	movs	r1, #1
 800d27e:	4608      	mov	r0, r1
 800d280:	f7fd fda4 	bl	800adcc <Result_Display>
				out_ok_count++;
 800d284:	491c      	ldr	r1, [pc, #112]	; (800d2f8 <Result_Task+0x7d4>)
				in_ok_count++;
 800d286:	683b      	ldr	r3, [r7, #0]
				out_ok_count++;
 800d288:	680a      	ldr	r2, [r1, #0]
				in_ok_count++;
 800d28a:	3301      	adds	r3, #1
				out_ok_count++;
 800d28c:	3201      	adds	r2, #1
				in_ok_count++;
 800d28e:	603b      	str	r3, [r7, #0]
				out_ok_count++;
 800d290:	600a      	str	r2, [r1, #0]
				total_ok_count = in_ok_count + out_ok_count;
 800d292:	4413      	add	r3, r2
 800d294:	4a15      	ldr	r2, [pc, #84]	; (800d2ec <Result_Task+0x7c8>)
 800d296:	6013      	str	r3, [r2, #0]
				if(g_mark == MARK_ON)
 800d298:	4b18      	ldr	r3, [pc, #96]	; (800d2fc <Result_Task+0x7d8>)
 800d29a:	681d      	ldr	r5, [r3, #0]
 800d29c:	2d00      	cmp	r5, #0
 800d29e:	f47f ada6 	bne.w	800cdee <Result_Task+0x2ca>
					LMARK_ON;
 800d2a2:	2201      	movs	r2, #1
 800d2a4:	2104      	movs	r1, #4
 800d2a6:	4816      	ldr	r0, [pc, #88]	; (800d300 <Result_Task+0x7dc>)
 800d2a8:	f7fc fd02 	bl	8009cb0 <HAL_GPIO_WritePin>
					RMARK_ON;
 800d2ac:	2201      	movs	r2, #1
 800d2ae:	f44f 5180 	mov.w	r1, #4096	; 0x1000
 800d2b2:	480a      	ldr	r0, [pc, #40]	; (800d2dc <Result_Task+0x7b8>)
 800d2b4:	f7fc fcfc 	bl	8009cb0 <HAL_GPIO_WritePin>
					HAL_Delay(300);
 800d2b8:	f44f 7096 	mov.w	r0, #300	; 0x12c
 800d2bc:	f7fb fff8 	bl	80092b0 <HAL_Delay>
					LMARK_OFF;
 800d2c0:	462a      	mov	r2, r5
 800d2c2:	2104      	movs	r1, #4
 800d2c4:	480e      	ldr	r0, [pc, #56]	; (800d300 <Result_Task+0x7dc>)
 800d2c6:	f7fc fcf3 	bl	8009cb0 <HAL_GPIO_WritePin>
					RMARK_OFF;
 800d2ca:	462a      	mov	r2, r5
 800d2cc:	e6b1      	b.n	800d032 <Result_Task+0x50e>
 800d2ce:	bf00      	nop
 800d2d0:	20001be0 	.word	0x20001be0
 800d2d4:	20001b78 	.word	0x20001b78
 800d2d8:	20001a7c 	.word	0x20001a7c
 800d2dc:	40020800 	.word	0x40020800
 800d2e0:	40020400 	.word	0x40020400
 800d2e4:	40020000 	.word	0x40020000
 800d2e8:	20001bd8 	.word	0x20001bd8
 800d2ec:	20001bdc 	.word	0x20001bdc
 800d2f0:	200017b0 	.word	0x200017b0
 800d2f4:	200017d8 	.word	0x200017d8
 800d2f8:	20001938 	.word	0x20001938
 800d2fc:	200017bc 	.word	0x200017bc
 800d300:	40020c00 	.word	0x40020c00
 800d304:	20001b2c 	.word	0x20001b2c

0800d308 <main>:
{
 800d308:	b580      	push	{r7, lr}
 800d30a:	b08c      	sub	sp, #48	; 0x30
  __HAL_RCC_GPIOC_CLK_ENABLE();
 800d30c:	2400      	movs	r4, #0
 800d30e:	4db8      	ldr	r5, [pc, #736]	; (800d5f0 <main+0x2e8>)
  huart2.Instance = USART2;
 800d310:	4fb8      	ldr	r7, [pc, #736]	; (800d5f4 <main+0x2ec>)
  huart1.Instance = USART1;
 800d312:	f8df 8340 	ldr.w	r8, [pc, #832]	; 800d654 <main+0x34c>
  HAL_Init();
 800d316:	f7fb ff9f 	bl	8009258 <HAL_Init>
  SystemClock_Config();
 800d31a:	f7fd fc89 	bl	800ac30 <SystemClock_Config>
  GPIO_InitTypeDef GPIO_InitStruct = {0};
 800d31e:	2214      	movs	r2, #20
 800d320:	2100      	movs	r1, #0
 800d322:	a807      	add	r0, sp, #28
 800d324:	f001 fb8c 	bl	800ea40 <memset>
  __HAL_RCC_GPIOC_CLK_ENABLE();
 800d328:	9402      	str	r4, [sp, #8]
 800d32a:	6b2b      	ldr	r3, [r5, #48]	; 0x30
  HAL_GPIO_WritePin(GPIOC, CY9_Pin|CY10_Pin|CY8_Pin|CY7_Pin 
 800d32c:	48b2      	ldr	r0, [pc, #712]	; (800d5f8 <main+0x2f0>)
  __HAL_RCC_GPIOC_CLK_ENABLE();
 800d32e:	f043 0304 	orr.w	r3, r3, #4
 800d332:	632b      	str	r3, [r5, #48]	; 0x30
 800d334:	6b2b      	ldr	r3, [r5, #48]	; 0x30
 800d336:	f003 0304 	and.w	r3, r3, #4
 800d33a:	9302      	str	r3, [sp, #8]
 800d33c:	9b02      	ldr	r3, [sp, #8]
  __HAL_RCC_GPIOH_CLK_ENABLE();
 800d33e:	9403      	str	r4, [sp, #12]
 800d340:	6b2b      	ldr	r3, [r5, #48]	; 0x30
 800d342:	f043 0380 	orr.w	r3, r3, #128	; 0x80
 800d346:	632b      	str	r3, [r5, #48]	; 0x30
 800d348:	6b2b      	ldr	r3, [r5, #48]	; 0x30
 800d34a:	f003 0380 	and.w	r3, r3, #128	; 0x80
 800d34e:	9303      	str	r3, [sp, #12]
 800d350:	9b03      	ldr	r3, [sp, #12]
  __HAL_RCC_GPIOA_CLK_ENABLE();
 800d352:	9404      	str	r4, [sp, #16]
 800d354:	6b2b      	ldr	r3, [r5, #48]	; 0x30
 800d356:	f043 0301 	orr.w	r3, r3, #1
 800d35a:	632b      	str	r3, [r5, #48]	; 0x30
 800d35c:	6b2b      	ldr	r3, [r5, #48]	; 0x30
 800d35e:	f003 0301 	and.w	r3, r3, #1
 800d362:	9304      	str	r3, [sp, #16]
 800d364:	9b04      	ldr	r3, [sp, #16]
  __HAL_RCC_GPIOB_CLK_ENABLE();
 800d366:	9405      	str	r4, [sp, #20]
 800d368:	6b2b      	ldr	r3, [r5, #48]	; 0x30
 800d36a:	f043 0302 	orr.w	r3, r3, #2
 800d36e:	632b      	str	r3, [r5, #48]	; 0x30
 800d370:	6b2b      	ldr	r3, [r5, #48]	; 0x30
 800d372:	f003 0302 	and.w	r3, r3, #2
 800d376:	9305      	str	r3, [sp, #20]
 800d378:	9b05      	ldr	r3, [sp, #20]
  __HAL_RCC_GPIOD_CLK_ENABLE();
 800d37a:	9406      	str	r4, [sp, #24]
 800d37c:	6b2b      	ldr	r3, [r5, #48]	; 0x30
 800d37e:	f043 0308 	orr.w	r3, r3, #8
 800d382:	632b      	str	r3, [r5, #48]	; 0x30
 800d384:	6b2b      	ldr	r3, [r5, #48]	; 0x30
 800d386:	f003 0308 	and.w	r3, r3, #8
 800d38a:	9306      	str	r3, [sp, #24]
  HAL_GPIO_WritePin(GPIOC, CY9_Pin|CY10_Pin|CY8_Pin|CY7_Pin 
 800d38c:	4622      	mov	r2, r4
 800d38e:	f641 716f 	movw	r1, #8047	; 0x1f6f
  __HAL_RCC_GPIOD_CLK_ENABLE();
 800d392:	9b06      	ldr	r3, [sp, #24]
  HAL_GPIO_WritePin(GPIOC, CY9_Pin|CY10_Pin|CY8_Pin|CY7_Pin 
 800d394:	f7fc fc8c 	bl	8009cb0 <HAL_GPIO_WritePin>
  HAL_GPIO_WritePin(GPIOA, LD2_Pin|CY6_Pin, GPIO_PIN_RESET);
 800d398:	4622      	mov	r2, r4
 800d39a:	f248 0120 	movw	r1, #32800	; 0x8020
 800d39e:	4897      	ldr	r0, [pc, #604]	; (800d5fc <main+0x2f4>)
 800d3a0:	f7fc fc86 	bl	8009cb0 <HAL_GPIO_WritePin>
  HAL_GPIO_WritePin(GPIOA, RLED_OK_Pin|RLED_NG_Pin|FET3_Pin, GPIO_PIN_SET);
 800d3a4:	2201      	movs	r2, #1
 800d3a6:	f44f 71e0 	mov.w	r1, #448	; 0x1c0
 800d3aa:	4894      	ldr	r0, [pc, #592]	; (800d5fc <main+0x2f4>)
 800d3ac:	f7fc fc80 	bl	8009cb0 <HAL_GPIO_WritePin>
  HAL_GPIO_WritePin(GPIOC, NG_LED_Pin|FET2_Pin, GPIO_PIN_SET);
 800d3b0:	2201      	movs	r2, #1
 800d3b2:	2190      	movs	r1, #144	; 0x90
 800d3b4:	4890      	ldr	r0, [pc, #576]	; (800d5f8 <main+0x2f0>)
 800d3b6:	f7fc fc7b 	bl	8009cb0 <HAL_GPIO_WritePin>
  HAL_GPIO_WritePin(GPIOB, FET4_Pin|OK_LED_Pin|FET5_Pin|FET6_Pin 
 800d3ba:	2201      	movs	r2, #1
 800d3bc:	f242 7170 	movw	r1, #10096	; 0x2770
 800d3c0:	488f      	ldr	r0, [pc, #572]	; (800d600 <main+0x2f8>)
 800d3c2:	f7fc fc75 	bl	8009cb0 <HAL_GPIO_WritePin>
  HAL_GPIO_WritePin(CY1_GPIO_Port, CY1_Pin, GPIO_PIN_RESET);
 800d3c6:	4622      	mov	r2, r4
 800d3c8:	2104      	movs	r1, #4
 800d3ca:	488e      	ldr	r0, [pc, #568]	; (800d604 <main+0x2fc>)
 800d3cc:	f7fc fc70 	bl	8009cb0 <HAL_GPIO_WritePin>
  HAL_GPIO_WritePin(CY5_GPIO_Port, CY5_Pin, GPIO_PIN_RESET);
 800d3d0:	4622      	mov	r2, r4
 800d3d2:	2180      	movs	r1, #128	; 0x80
 800d3d4:	488a      	ldr	r0, [pc, #552]	; (800d600 <main+0x2f8>)
 800d3d6:	f7fc fc6b 	bl	8009cb0 <HAL_GPIO_WritePin>
  GPIO_InitStruct.Mode = GPIO_MODE_OUTPUT_PP;
 800d3da:	2601      	movs	r6, #1
  GPIO_InitStruct.Pin = CY9_Pin|CY10_Pin|CY8_Pin|CY7_Pin 
 800d3dc:	f641 73ff 	movw	r3, #8191	; 0x1fff
  HAL_GPIO_Init(GPIOC, &GPIO_InitStruct);
 800d3e0:	a907      	add	r1, sp, #28
 800d3e2:	4885      	ldr	r0, [pc, #532]	; (800d5f8 <main+0x2f0>)
  GPIO_InitStruct.Pin = CY9_Pin|CY10_Pin|CY8_Pin|CY7_Pin 
 800d3e4:	9307      	str	r3, [sp, #28]
  GPIO_InitStruct.Mode = GPIO_MODE_OUTPUT_PP;
 800d3e6:	9608      	str	r6, [sp, #32]
  GPIO_InitStruct.Pull = GPIO_NOPULL;
 800d3e8:	9409      	str	r4, [sp, #36]	; 0x24
  GPIO_InitStruct.Speed = GPIO_SPEED_FREQ_LOW;
 800d3ea:	940a      	str	r4, [sp, #40]	; 0x28
  HAL_GPIO_Init(GPIOC, &GPIO_InitStruct);
 800d3ec:	f7fc fb84 	bl	8009af8 <HAL_GPIO_Init>
  GPIO_InitStruct.Pin = LD2_Pin|RLED_OK_Pin|RLED_NG_Pin|FET3_Pin 
 800d3f0:	f248 13e0 	movw	r3, #33248	; 0x81e0
  HAL_GPIO_Init(GPIOA, &GPIO_InitStruct);
 800d3f4:	a907      	add	r1, sp, #28
 800d3f6:	4881      	ldr	r0, [pc, #516]	; (800d5fc <main+0x2f4>)
  GPIO_InitStruct.Pin = LD2_Pin|RLED_OK_Pin|RLED_NG_Pin|FET3_Pin 
 800d3f8:	9307      	str	r3, [sp, #28]
  GPIO_InitStruct.Mode = GPIO_MODE_OUTPUT_PP;
 800d3fa:	9608      	str	r6, [sp, #32]
  GPIO_InitStruct.Pull = GPIO_NOPULL;
 800d3fc:	9409      	str	r4, [sp, #36]	; 0x24
  GPIO_InitStruct.Speed = GPIO_SPEED_FREQ_LOW;
 800d3fe:	940a      	str	r4, [sp, #40]	; 0x28
  HAL_GPIO_Init(GPIOA, &GPIO_InitStruct);
 800d400:	f7fc fb7a 	bl	8009af8 <HAL_GPIO_Init>
  GPIO_InitStruct.Pin = LEFT_KEY_Pin|MODE_KEY_Pin|SKIP_KEY_Pin|RIGHT_KEY_Pin;
 800d404:	f24c 0306 	movw	r3, #49158	; 0xc006
  HAL_GPIO_Init(GPIOB, &GPIO_InitStruct);
 800d408:	a907      	add	r1, sp, #28
 800d40a:	487d      	ldr	r0, [pc, #500]	; (800d600 <main+0x2f8>)
  GPIO_InitStruct.Pin = LEFT_KEY_Pin|MODE_KEY_Pin|SKIP_KEY_Pin|RIGHT_KEY_Pin;
 800d40c:	9307      	str	r3, [sp, #28]
  GPIO_InitStruct.Mode = GPIO_MODE_INPUT;
 800d40e:	9408      	str	r4, [sp, #32]
  GPIO_InitStruct.Pull = GPIO_PULLUP;
 800d410:	9609      	str	r6, [sp, #36]	; 0x24
  HAL_GPIO_Init(GPIOB, &GPIO_InitStruct);
 800d412:	f7fc fb71 	bl	8009af8 <HAL_GPIO_Init>
  GPIO_InitStruct.Pin = FET4_Pin|OK_LED_Pin|FET5_Pin|FET6_Pin 
 800d416:	f242 73f0 	movw	r3, #10224	; 0x27f0
  HAL_GPIO_Init(GPIOB, &GPIO_InitStruct);
 800d41a:	a907      	add	r1, sp, #28
 800d41c:	4878      	ldr	r0, [pc, #480]	; (800d600 <main+0x2f8>)
  GPIO_InitStruct.Pin = FET4_Pin|OK_LED_Pin|FET5_Pin|FET6_Pin 
 800d41e:	9307      	str	r3, [sp, #28]
  GPIO_InitStruct.Mode = GPIO_MODE_OUTPUT_PP;
 800d420:	9608      	str	r6, [sp, #32]
  GPIO_InitStruct.Pull = GPIO_NOPULL;
 800d422:	9409      	str	r4, [sp, #36]	; 0x24
  GPIO_InitStruct.Speed = GPIO_SPEED_FREQ_LOW;
 800d424:	940a      	str	r4, [sp, #40]	; 0x28
  HAL_GPIO_Init(GPIOB, &GPIO_InitStruct);
 800d426:	f7fc fb67 	bl	8009af8 <HAL_GPIO_Init>
  GPIO_InitStruct.Pin = RESET_KEY_Pin;
 800d42a:	f44f 5380 	mov.w	r3, #4096	; 0x1000
 800d42e:	9307      	str	r3, [sp, #28]
  HAL_GPIO_Init(RESET_KEY_GPIO_Port, &GPIO_InitStruct);
 800d430:	a907      	add	r1, sp, #28
  GPIO_InitStruct.Mode = GPIO_MODE_IT_FALLING;
 800d432:	4b75      	ldr	r3, [pc, #468]	; (800d608 <main+0x300>)
  HAL_GPIO_Init(RESET_KEY_GPIO_Port, &GPIO_InitStruct);
 800d434:	4872      	ldr	r0, [pc, #456]	; (800d600 <main+0x2f8>)
  GPIO_InitStruct.Mode = GPIO_MODE_IT_FALLING;
 800d436:	9308      	str	r3, [sp, #32]
  GPIO_InitStruct.Pin = CY1_Pin;
 800d438:	f04f 0904 	mov.w	r9, #4
  GPIO_InitStruct.Pull = GPIO_PULLUP;
 800d43c:	9609      	str	r6, [sp, #36]	; 0x24
  HAL_GPIO_Init(RESET_KEY_GPIO_Port, &GPIO_InitStruct);
 800d43e:	f7fc fb5b 	bl	8009af8 <HAL_GPIO_Init>
  HAL_GPIO_Init(CY1_GPIO_Port, &GPIO_InitStruct);
 800d442:	a907      	add	r1, sp, #28
 800d444:	486f      	ldr	r0, [pc, #444]	; (800d604 <main+0x2fc>)
  GPIO_InitStruct.Pin = CY1_Pin;
 800d446:	f8cd 901c 	str.w	r9, [sp, #28]
  GPIO_InitStruct.Mode = GPIO_MODE_OUTPUT_PP;
 800d44a:	9608      	str	r6, [sp, #32]
  GPIO_InitStruct.Pull = GPIO_NOPULL;
 800d44c:	9409      	str	r4, [sp, #36]	; 0x24
  GPIO_InitStruct.Speed = GPIO_SPEED_FREQ_LOW;
 800d44e:	940a      	str	r4, [sp, #40]	; 0x28
  HAL_GPIO_Init(CY1_GPIO_Port, &GPIO_InitStruct);
 800d450:	f7fc fb52 	bl	8009af8 <HAL_GPIO_Init>
  HAL_NVIC_SetPriority(EXTI15_10_IRQn, 15, 0);
 800d454:	4622      	mov	r2, r4
 800d456:	210f      	movs	r1, #15
 800d458:	2028      	movs	r0, #40	; 0x28
 800d45a:	f7fc f969 	bl	8009730 <HAL_NVIC_SetPriority>
  HAL_NVIC_EnableIRQ(EXTI15_10_IRQn);
 800d45e:	2028      	movs	r0, #40	; 0x28
 800d460:	f7fc f99a 	bl	8009798 <HAL_NVIC_EnableIRQ>
  __HAL_RCC_DMA2_CLK_ENABLE();
 800d464:	9400      	str	r4, [sp, #0]
 800d466:	6b2b      	ldr	r3, [r5, #48]	; 0x30
 800d468:	f443 0380 	orr.w	r3, r3, #4194304	; 0x400000
 800d46c:	632b      	str	r3, [r5, #48]	; 0x30
 800d46e:	6b2b      	ldr	r3, [r5, #48]	; 0x30
 800d470:	f403 0380 	and.w	r3, r3, #4194304	; 0x400000
 800d474:	9300      	str	r3, [sp, #0]
 800d476:	9b00      	ldr	r3, [sp, #0]
  __HAL_RCC_DMA1_CLK_ENABLE();
 800d478:	9401      	str	r4, [sp, #4]
 800d47a:	6b2b      	ldr	r3, [r5, #48]	; 0x30
 800d47c:	f443 1300 	orr.w	r3, r3, #2097152	; 0x200000
 800d480:	632b      	str	r3, [r5, #48]	; 0x30
 800d482:	6b2b      	ldr	r3, [r5, #48]	; 0x30
 800d484:	f403 1300 	and.w	r3, r3, #2097152	; 0x200000
  HAL_NVIC_SetPriority(DMA1_Stream5_IRQn, 13, 0);
 800d488:	4622      	mov	r2, r4
 800d48a:	210d      	movs	r1, #13
  __HAL_RCC_DMA1_CLK_ENABLE();
 800d48c:	9301      	str	r3, [sp, #4]
  HAL_NVIC_SetPriority(DMA1_Stream5_IRQn, 13, 0);
 800d48e:	2010      	movs	r0, #16
  __HAL_RCC_DMA1_CLK_ENABLE();
 800d490:	9b01      	ldr	r3, [sp, #4]
  HAL_NVIC_SetPriority(DMA1_Stream5_IRQn, 13, 0);
 800d492:	f7fc f94d 	bl	8009730 <HAL_NVIC_SetPriority>
  HAL_NVIC_EnableIRQ(DMA1_Stream5_IRQn);
 800d496:	2010      	movs	r0, #16
 800d498:	f7fc f97e 	bl	8009798 <HAL_NVIC_EnableIRQ>
  HAL_NVIC_SetPriority(DMA2_Stream2_IRQn, 14, 0);
 800d49c:	4622      	mov	r2, r4
 800d49e:	210e      	movs	r1, #14
 800d4a0:	203a      	movs	r0, #58	; 0x3a
 800d4a2:	f7fc f945 	bl	8009730 <HAL_NVIC_SetPriority>
  HAL_NVIC_EnableIRQ(DMA2_Stream2_IRQn);
 800d4a6:	203a      	movs	r0, #58	; 0x3a
 800d4a8:	f7fc f976 	bl	8009798 <HAL_NVIC_EnableIRQ>
  huart2.Init.BaudRate = 115200;
 800d4ac:	4b57      	ldr	r3, [pc, #348]	; (800d60c <main+0x304>)
  huart2.Init.WordLength = UART_WORDLENGTH_8B;
 800d4ae:	60bc      	str	r4, [r7, #8]
  huart2.Init.Mode = UART_MODE_TX_RX;
 800d4b0:	250c      	movs	r5, #12
  huart2.Init.BaudRate = 115200;
 800d4b2:	f44f 3ae1 	mov.w	sl, #115200	; 0x1c200
  if (HAL_UART_Init(&huart2) != HAL_OK)
 800d4b6:	4638      	mov	r0, r7
  huart2.Init.BaudRate = 115200;
 800d4b8:	e887 0408 	stmia.w	r7, {r3, sl}
  huart2.Init.Mode = UART_MODE_TX_RX;
 800d4bc:	617d      	str	r5, [r7, #20]
  huart2.Init.StopBits = UART_STOPBITS_1;
 800d4be:	60fc      	str	r4, [r7, #12]
  huart2.Init.Parity = UART_PARITY_NONE;
 800d4c0:	613c      	str	r4, [r7, #16]
  huart2.Init.HwFlowCtl = UART_HWCONTROL_NONE;
 800d4c2:	61bc      	str	r4, [r7, #24]
  huart2.Init.OverSampling = UART_OVERSAMPLING_16;
 800d4c4:	61fc      	str	r4, [r7, #28]
  if (HAL_UART_Init(&huart2) != HAL_OK)
 800d4c6:	f7fc ffbf 	bl	800a448 <HAL_UART_Init>
  huart1.Instance = USART1;
 800d4ca:	4b51      	ldr	r3, [pc, #324]	; (800d610 <main+0x308>)
  huart1.Init.Mode = UART_MODE_TX_RX;
 800d4cc:	f8c8 5014 	str.w	r5, [r8, #20]
  if (HAL_UART_Init(&huart1) != HAL_OK)
 800d4d0:	4640      	mov	r0, r8
  huart1.Init.BaudRate = 115200;
 800d4d2:	e888 0408 	stmia.w	r8, {r3, sl}
  huart1.Init.WordLength = UART_WORDLENGTH_8B;
 800d4d6:	f8c8 4008 	str.w	r4, [r8, #8]
  huart1.Init.StopBits = UART_STOPBITS_1;
 800d4da:	f8c8 400c 	str.w	r4, [r8, #12]
  huart1.Init.Parity = UART_PARITY_NONE;
 800d4de:	f8c8 4010 	str.w	r4, [r8, #16]
  huart1.Init.HwFlowCtl = UART_HWCONTROL_NONE;
 800d4e2:	f8c8 4018 	str.w	r4, [r8, #24]
  huart1.Init.OverSampling = UART_OVERSAMPLING_16;
 800d4e6:	f8c8 401c 	str.w	r4, [r8, #28]
  if (HAL_UART_Init(&huart1) != HAL_OK)
 800d4ea:	f7fc ffad 	bl	800a448 <HAL_UART_Init>
  ADC_ChannelConfTypeDef sConfig = {0};
 800d4ee:	4621      	mov	r1, r4
 800d4f0:	2210      	movs	r2, #16
 800d4f2:	a807      	add	r0, sp, #28
 800d4f4:	f001 faa4 	bl	800ea40 <memset>
  hadc1.Instance = ADC1;
 800d4f8:	4d46      	ldr	r5, [pc, #280]	; (800d614 <main+0x30c>)
  hadc1.Init.ClockPrescaler = ADC_CLOCK_SYNC_PCLK_DIV4;
 800d4fa:	4a47      	ldr	r2, [pc, #284]	; (800d618 <main+0x310>)
  hadc1.Init.Resolution = ADC_RESOLUTION_12B;
 800d4fc:	60ac      	str	r4, [r5, #8]
  hadc1.Init.ClockPrescaler = ADC_CLOCK_SYNC_PCLK_DIV4;
 800d4fe:	f44f 3380 	mov.w	r3, #65536	; 0x10000
 800d502:	e885 000c 	stmia.w	r5, {r2, r3}
  if (HAL_ADC_Init(&hadc1) != HAL_OK)
 800d506:	4628      	mov	r0, r5
  hadc1.Init.ExternalTrigConv = ADC_SOFTWARE_START;
 800d508:	4b44      	ldr	r3, [pc, #272]	; (800d61c <main+0x314>)
 800d50a:	62ab      	str	r3, [r5, #40]	; 0x28
  hadc1.Init.ScanConvMode = ENABLE;
 800d50c:	612e      	str	r6, [r5, #16]
  hadc1.Init.ContinuousConvMode = ENABLE;
 800d50e:	762e      	strb	r6, [r5, #24]
  hadc1.Init.DiscontinuousConvMode = DISABLE;
 800d510:	f885 4020 	strb.w	r4, [r5, #32]
  hadc1.Init.ExternalTrigConvEdge = ADC_EXTERNALTRIGCONVEDGE_NONE;
 800d514:	62ec      	str	r4, [r5, #44]	; 0x2c
  hadc1.Init.DataAlign = ADC_DATAALIGN_RIGHT;
 800d516:	60ec      	str	r4, [r5, #12]
  hadc1.Init.NbrOfConversion = 1;
 800d518:	61ee      	str	r6, [r5, #28]
  hadc1.Init.DMAContinuousRequests = DISABLE;
 800d51a:	f885 4030 	strb.w	r4, [r5, #48]	; 0x30
  hadc1.Init.EOCSelection = ADC_EOC_SINGLE_CONV;
 800d51e:	616e      	str	r6, [r5, #20]
  if (HAL_ADC_Init(&hadc1) != HAL_OK)
 800d520:	f7fb feda 	bl	80092d8 <HAL_ADC_Init>
  if (HAL_ADC_ConfigChannel(&hadc1, &sConfig) != HAL_OK)
 800d524:	a907      	add	r1, sp, #28
 800d526:	4628      	mov	r0, r5
  sConfig.Channel = ADC_CHANNEL_0;
 800d528:	9407      	str	r4, [sp, #28]
  sConfig.Rank = 1;
 800d52a:	9608      	str	r6, [sp, #32]
  sConfig.SamplingTime = ADC_SAMPLETIME_3CYCLES;
 800d52c:	9409      	str	r4, [sp, #36]	; 0x24
  if (HAL_ADC_ConfigChannel(&hadc1, &sConfig) != HAL_OK)
 800d52e:	f7fc f84b 	bl	80095c8 <HAL_ADC_ConfigChannel>
  sConfig.SamplingTime = ADC_SAMPLETIME_144CYCLES;
 800d532:	2306      	movs	r3, #6
  if (HAL_ADC_ConfigChannel(&hadc1, &sConfig) != HAL_OK)
 800d534:	a907      	add	r1, sp, #28
 800d536:	4628      	mov	r0, r5
  sConfig.SamplingTime = ADC_SAMPLETIME_144CYCLES;
 800d538:	9309      	str	r3, [sp, #36]	; 0x24
  sConfig.Channel = ADC_CHANNEL_0;
 800d53a:	9407      	str	r4, [sp, #28]
  sConfig.Rank = 1;
 800d53c:	9608      	str	r6, [sp, #32]
  if (HAL_ADC_ConfigChannel(&hadc1, &sConfig) != HAL_OK)
 800d53e:	f7fc f843 	bl	80095c8 <HAL_ADC_ConfigChannel>
  HAL_UART_Receive_DMA(&huart1, gUart1_Rx_Buff, 10);
 800d542:	220a      	movs	r2, #10
 800d544:	4936      	ldr	r1, [pc, #216]	; (800d620 <main+0x318>)
	  LCD_DbgLog("LCD&Touch-screen Init OK\n");
 800d546:	4d37      	ldr	r5, [pc, #220]	; (800d624 <main+0x31c>)
  HAL_UART_Receive_DMA(&huart1, gUart1_Rx_Buff, 10);
 800d548:	4640      	mov	r0, r8
 800d54a:	f7fd f809 	bl	800a560 <HAL_UART_Receive_DMA>
  HAL_UART_Receive_DMA(&huart2, gUart2_Rx_Buff, 1);
 800d54e:	4632      	mov	r2, r6
 800d550:	4935      	ldr	r1, [pc, #212]	; (800d628 <main+0x320>)
 800d552:	4638      	mov	r0, r7
 800d554:	f7fd f804 	bl	800a560 <HAL_UART_Receive_DMA>
 setbuf(stdout, NULL);
 800d558:	4b34      	ldr	r3, [pc, #208]	; (800d62c <main+0x324>)
 800d55a:	681b      	ldr	r3, [r3, #0]
 800d55c:	4621      	mov	r1, r4
 800d55e:	6898      	ldr	r0, [r3, #8]
 800d560:	f001 ff5e 	bl	800f420 <setbuf>
  system_information(); //eep read
 800d564:	f7fd fc9a 	bl	800ae9c <system_information>
	  page4_state = pba_true;
 800d568:	4b31      	ldr	r3, [pc, #196]	; (800d630 <main+0x328>)
 800d56a:	701e      	strb	r6, [r3, #0]
	  BSP_LCD_Init();
 800d56c:	f7fb fd34 	bl	8008fd8 <BSP_LCD_Init>
	  LCD_LOG_Init();
 800d570:	f001 f860 	bl	800e634 <LCD_LOG_Init>
	  BSP_TS_Init(0,0);
 800d574:	4621      	mov	r1, r4
 800d576:	4620      	mov	r0, r4
 800d578:	f7fb fe1c 	bl	80091b4 <BSP_TS_Init>
	  LCD_DbgLog("LCD&Touch-screen Init OK\n");
 800d57c:	482d      	ldr	r0, [pc, #180]	; (800d634 <main+0x32c>)
 800d57e:	f8c5 9000 	str.w	r9, [r5]
 800d582:	f001 ff45 	bl	800f410 <puts>
	  Banner_Display();
 800d586:	f7fd fdfb 	bl	800b180 <Banner_Display>
	  Count_Display();
 800d58a:	f7fd fe2b 	bl	800b1e4 <Count_Display>
	  LCD_UsrLog("*****************************************\n");
 800d58e:	482a      	ldr	r0, [pc, #168]	; (800d638 <main+0x330>)
 800d590:	602c      	str	r4, [r5, #0]
 800d592:	f001 ff3d 	bl	800f410 <puts>
	  LCD_UsrLog("*                                       *\n");
 800d596:	4829      	ldr	r0, [pc, #164]	; (800d63c <main+0x334>)
 800d598:	602c      	str	r4, [r5, #0]
 800d59a:	f001 ff39 	bl	800f410 <puts>
	  LCD_UsrLog("*                Copyright              *\n");
 800d59e:	4828      	ldr	r0, [pc, #160]	; (800d640 <main+0x338>)
 800d5a0:	602c      	str	r4, [r5, #0]
 800d5a2:	f001 ff35 	bl	800f410 <puts>
	  LCD_UsrLog("*                                       *\n");
 800d5a6:	4825      	ldr	r0, [pc, #148]	; (800d63c <main+0x334>)
 800d5a8:	602c      	str	r4, [r5, #0]
 800d5aa:	f001 ff31 	bl	800f410 <puts>
	  LCD_UsrLog("*****************************************\n");
 800d5ae:	4822      	ldr	r0, [pc, #136]	; (800d638 <main+0x330>)
 800d5b0:	602c      	str	r4, [r5, #0]
 800d5b2:	f001 ff2d 	bl	800f410 <puts>
	  LCD_UsrLog("1. H/W Version : FPCB Cell Mainboard V2\n");
 800d5b6:	4823      	ldr	r0, [pc, #140]	; (800d644 <main+0x33c>)
 800d5b8:	602c      	str	r4, [r5, #0]
 800d5ba:	f001 ff29 	bl	800f410 <puts>
	  LCD_UsrLog("2. Boot Version : USB_Bootloader_V1\n");
 800d5be:	4822      	ldr	r0, [pc, #136]	; (800d648 <main+0x340>)
 800d5c0:	602c      	str	r4, [r5, #0]
 800d5c2:	f001 ff25 	bl	800f410 <puts>
	  LCD_UsrLog("3. S/W Released by Synopex IT Laboratory\n");
 800d5c6:	4821      	ldr	r0, [pc, #132]	; (800d64c <main+0x344>)
 800d5c8:	602c      	str	r4, [r5, #0]
 800d5ca:	f001 ff21 	bl	800f410 <puts>
	  LCD_UsrLog("=========================================\n");
 800d5ce:	4820      	ldr	r0, [pc, #128]	; (800d650 <main+0x348>)
 800d5d0:	602c      	str	r4, [r5, #0]
 800d5d2:	f001 ff1d 	bl	800f410 <puts>
	  mcp23017_init(SLAVE0);
 800d5d6:	2040      	movs	r0, #64	; 0x40
 800d5d8:	f000 fb38 	bl	800dc4c <mcp23017_init>
	  mcp23017_init(SLAVE1);
 800d5dc:	2042      	movs	r0, #66	; 0x42
 800d5de:	f000 fb35 	bl	800dc4c <mcp23017_init>
	  mcp23017_init(SLAVE2);
 800d5e2:	2044      	movs	r0, #68	; 0x44
 800d5e4:	f000 fb32 	bl	800dc4c <mcp23017_init>
	  DFF_Floating_Init();
 800d5e8:	f000 ff41 	bl	800e46e <DFF_Floating_Init>
 800d5ec:	e034      	b.n	800d658 <main+0x350>
 800d5ee:	bf00      	nop
 800d5f0:	40023800 	.word	0x40023800
 800d5f4:	20001b94 	.word	0x20001b94
 800d5f8:	40020800 	.word	0x40020800
 800d5fc:	40020000 	.word	0x40020000
 800d600:	40020400 	.word	0x40020400
 800d604:	40020c00 	.word	0x40020c00
 800d608:	10210000 	.word	0x10210000
 800d60c:	40004400 	.word	0x40004400
 800d610:	40011000 	.word	0x40011000
 800d614:	20001a84 	.word	0x20001a84
 800d618:	40012000 	.word	0x40012000
 800d61c:	0f000001 	.word	0x0f000001
 800d620:	20001b7d 	.word	0x20001b7d
 800d624:	20007018 	.word	0x20007018
 800d628:	20001b7c 	.word	0x20001b7c
 800d62c:	200015b0 	.word	0x200015b0
 800d630:	200017e0 	.word	0x200017e0
 800d634:	08011f99 	.word	0x08011f99
 800d638:	08011fb2 	.word	0x08011fb2
 800d63c:	08011fdc 	.word	0x08011fdc
 800d640:	08012006 	.word	0x08012006
 800d644:	08012030 	.word	0x08012030
 800d648:	08012058 	.word	0x08012058
 800d64c:	0801207c 	.word	0x0801207c
 800d650:	080120a5 	.word	0x080120a5
 800d654:	20001b34 	.word	0x20001b34
	  LCD_DbgLog("System Initialized OK.\n");
 800d658:	482a      	ldr	r0, [pc, #168]	; (800d704 <main+0x3fc>)
 800d65a:	f8c5 9000 	str.w	r9, [r5]
 800d65e:	f001 fed7 	bl	800f410 <puts>
	  Beep(2,50);
 800d662:	2132      	movs	r1, #50	; 0x32
 800d664:	2002      	movs	r0, #2
 800d666:	f7fd fb93 	bl	800ad90 <Beep>
  if(g_test == DEBUG_ON)
 800d66a:	4b27      	ldr	r3, [pc, #156]	; (800d708 <main+0x400>)
 800d66c:	681b      	ldr	r3, [r3, #0]
 800d66e:	2b00      	cmp	r3, #0
 800d670:	d137      	bne.n	800d6e2 <main+0x3da>
 	  TFT_Serial((uint8_t*)"page 3");
 800d672:	4826      	ldr	r0, [pc, #152]	; (800d70c <main+0x404>)
 		  if(BSP_TS_GetState(&TS) == TS_OK)
 800d674:	4d26      	ldr	r5, [pc, #152]	; (800d710 <main+0x408>)
 800d676:	4c27      	ldr	r4, [pc, #156]	; (800d714 <main+0x40c>)
 			  if(g_touch_buff[5] == 'B')
 800d678:	4e27      	ldr	r6, [pc, #156]	; (800d718 <main+0x410>)
 	  TFT_Serial((uint8_t*)"page 3");
 800d67a:	f7fd fb5f 	bl	800ad3c <TFT_Serial>
 	  sprintf((char*)g_buff, "t0.txt=\"%s\"", g_model_name);
 800d67e:	4b27      	ldr	r3, [pc, #156]	; (800d71c <main+0x414>)
 800d680:	4927      	ldr	r1, [pc, #156]	; (800d720 <main+0x418>)
 800d682:	681a      	ldr	r2, [r3, #0]
 800d684:	4827      	ldr	r0, [pc, #156]	; (800d724 <main+0x41c>)
 800d686:	f001 ff81 	bl	800f58c <siprintf>
 	  TFT_Serial(g_buff);
 800d68a:	4826      	ldr	r0, [pc, #152]	; (800d724 <main+0x41c>)
 800d68c:	f7fd fb56 	bl	800ad3c <TFT_Serial>
 	  sprintf((char*)g_buff, "t1.txt=\"%s\"", g_fw_ver);
 800d690:	4b25      	ldr	r3, [pc, #148]	; (800d728 <main+0x420>)
 800d692:	4926      	ldr	r1, [pc, #152]	; (800d72c <main+0x424>)
 800d694:	681a      	ldr	r2, [r3, #0]
 800d696:	4823      	ldr	r0, [pc, #140]	; (800d724 <main+0x41c>)
 800d698:	f001 ff78 	bl	800f58c <siprintf>
 	  TFT_Serial(g_buff);
 800d69c:	4821      	ldr	r0, [pc, #132]	; (800d724 <main+0x41c>)
 800d69e:	f7fd fb4d 	bl	800ad3c <TFT_Serial>
 		  if(BSP_TS_GetState(&TS) == TS_OK)
 800d6a2:	4628      	mov	r0, r5
 800d6a4:	f7fb fd90 	bl	80091c8 <BSP_TS_GetState>
 800d6a8:	b978      	cbnz	r0, 800d6ca <main+0x3c2>
 			  Beep(1,50);
 800d6aa:	2132      	movs	r1, #50	; 0x32
 800d6ac:	2001      	movs	r0, #1
 800d6ae:	f7fd fb6f 	bl	800ad90 <Beep>
 			  if(g_touch_buff[5] == 'B')
 800d6b2:	7973      	ldrb	r3, [r6, #5]
 			  HAL_UART_Receive_DMA(&huart1, gUart1_Rx_Buff, 9);
 800d6b4:	491e      	ldr	r1, [pc, #120]	; (800d730 <main+0x428>)
 800d6b6:	481f      	ldr	r0, [pc, #124]	; (800d734 <main+0x42c>)
 			  if(g_touch_buff[5] == 'B')
 800d6b8:	2b42      	cmp	r3, #66	; 0x42
 				  page3_state = pba_true;
 800d6ba:	bf08      	it	eq
 800d6bc:	2301      	moveq	r3, #1
 			  HAL_UART_Receive_DMA(&huart1, gUart1_Rx_Buff, 9);
 800d6be:	f04f 0209 	mov.w	r2, #9
 				  page3_state = pba_true;
 800d6c2:	bf08      	it	eq
 800d6c4:	7023      	strbeq	r3, [r4, #0]
 			  HAL_UART_Receive_DMA(&huart1, gUart1_Rx_Buff, 9);
 800d6c6:	f7fc ff4b 	bl	800a560 <HAL_UART_Receive_DMA>
 		  if(page3_state == pba_true)
 800d6ca:	7823      	ldrb	r3, [r4, #0]
 800d6cc:	2b01      	cmp	r3, #1
 800d6ce:	d1e8      	bne.n	800d6a2 <main+0x39a>
 			  TFT_Serial((uint8_t*)"page 4");
 800d6d0:	4819      	ldr	r0, [pc, #100]	; (800d738 <main+0x430>)
 800d6d2:	f7fd fb33 	bl	800ad3c <TFT_Serial>
 			  if(g_type == IN) TFT_Serial((uint8_t*)"t0.txt=\"IN SAMPLE TEST MODE\"");
 800d6d6:	4b19      	ldr	r3, [pc, #100]	; (800d73c <main+0x434>)
 800d6d8:	681b      	ldr	r3, [r3, #0]
 800d6da:	b913      	cbnz	r3, 800d6e2 <main+0x3da>
 800d6dc:	4818      	ldr	r0, [pc, #96]	; (800d740 <main+0x438>)
 800d6de:	f7fd fb2d 	bl	800ad3c <TFT_Serial>
  Vaccum_Push_Set();
 800d6e2:	f7fe f93b 	bl	800b95c <Vaccum_Push_Set>
	  Touch_Task(); //LCD Touch
 800d6e6:	f7fd fe87 	bl	800b3f8 <Touch_Task>
	  Mode_Task(); //Mode key
 800d6ea:	f7fe f81d 	bl	800b728 <Mode_Task>
	  Key_input(); //Start Key
 800d6ee:	f7fe ff7d 	bl	800c5ec <Key_input>
	  Rst_Task(); //Rst Key
 800d6f2:	f7fe fdcf 	bl	800c294 <Rst_Task>
	  Start_Task(); //Inspection routine
 800d6f6:	f7fe f973 	bl	800b9e0 <Start_Task>
	  Result_Task(); //Result & Marking
 800d6fa:	f7ff fa13 	bl	800cb24 <Result_Task>
	  Auto_Clean();
 800d6fe:	f7fe fe9b 	bl	800c438 <Auto_Clean>
 800d702:	e7f0      	b.n	800d6e6 <main+0x3de>
 800d704:	080120cf 	.word	0x080120cf
 800d708:	200017c8 	.word	0x200017c8
 800d70c:	080120e6 	.word	0x080120e6
 800d710:	20001b8c 	.word	0x20001b8c
 800d714:	200017df 	.word	0x200017df
 800d718:	200019a0 	.word	0x200019a0
 800d71c:	20000070 	.word	0x20000070
 800d720:	080120ed 	.word	0x080120ed
 800d724:	200019b4 	.word	0x200019b4
 800d728:	2000006c 	.word	0x2000006c
 800d72c:	080120f9 	.word	0x080120f9
 800d730:	20001b7d 	.word	0x20001b7d
 800d734:	20001b34 	.word	0x20001b34
 800d738:	08011d8e 	.word	0x08011d8e
 800d73c:	200017d4 	.word	0x200017d4
 800d740:	08012105 	.word	0x08012105

0800d744 <Error_Handler>:
/**
  * @brief  This function is executed in case of error occurrence.
  * @retval None
  */
void Error_Handler(void)
{
 800d744:	4770      	bx	lr
	...

0800d748 <HAL_MspInit>:
/* USER CODE END 0 */
/**
  * Initializes the Global MSP.
  */
void HAL_MspInit(void)
{
 800d748:	b082      	sub	sp, #8
  /* USER CODE BEGIN MspInit 0 */

  /* USER CODE END MspInit 0 */

  __HAL_RCC_SYSCFG_CLK_ENABLE();
 800d74a:	4b0c      	ldr	r3, [pc, #48]	; (800d77c <HAL_MspInit+0x34>)
 800d74c:	2100      	movs	r1, #0
 800d74e:	9100      	str	r1, [sp, #0]
 800d750:	6c5a      	ldr	r2, [r3, #68]	; 0x44
 800d752:	f442 4280 	orr.w	r2, r2, #16384	; 0x4000
 800d756:	645a      	str	r2, [r3, #68]	; 0x44
 800d758:	6c5a      	ldr	r2, [r3, #68]	; 0x44
 800d75a:	f402 4280 	and.w	r2, r2, #16384	; 0x4000
 800d75e:	9200      	str	r2, [sp, #0]
 800d760:	9a00      	ldr	r2, [sp, #0]
  __HAL_RCC_PWR_CLK_ENABLE();
 800d762:	9101      	str	r1, [sp, #4]
 800d764:	6c1a      	ldr	r2, [r3, #64]	; 0x40
 800d766:	f042 5280 	orr.w	r2, r2, #268435456	; 0x10000000
 800d76a:	641a      	str	r2, [r3, #64]	; 0x40
 800d76c:	6c1b      	ldr	r3, [r3, #64]	; 0x40
 800d76e:	f003 5380 	and.w	r3, r3, #268435456	; 0x10000000
 800d772:	9301      	str	r3, [sp, #4]
 800d774:	9b01      	ldr	r3, [sp, #4]
  /* System interrupt init*/

  /* USER CODE BEGIN MspInit 1 */

  /* USER CODE END MspInit 1 */
}
 800d776:	b002      	add	sp, #8
 800d778:	4770      	bx	lr
 800d77a:	bf00      	nop
 800d77c:	40023800 	.word	0x40023800

0800d780 <HAL_ADC_MspInit>:
* This function configures the hardware resources used in this example
* @param hadc: ADC handle pointer
* @retval None
*/
void HAL_ADC_MspInit(ADC_HandleTypeDef* hadc)
{
 800d780:	b510      	push	{r4, lr}
 800d782:	4604      	mov	r4, r0
 800d784:	b088      	sub	sp, #32
  GPIO_InitTypeDef GPIO_InitStruct = {0};
 800d786:	2214      	movs	r2, #20
 800d788:	2100      	movs	r1, #0
 800d78a:	a803      	add	r0, sp, #12
 800d78c:	f001 f958 	bl	800ea40 <memset>
  if(hadc->Instance==ADC1)
 800d790:	6822      	ldr	r2, [r4, #0]
 800d792:	4b12      	ldr	r3, [pc, #72]	; (800d7dc <HAL_ADC_MspInit+0x5c>)
 800d794:	429a      	cmp	r2, r3
 800d796:	d11e      	bne.n	800d7d6 <HAL_ADC_MspInit+0x56>
  {
  /* USER CODE BEGIN ADC1_MspInit 0 */

  /* USER CODE END ADC1_MspInit 0 */
    /* Peripheral clock enable */
    __HAL_RCC_ADC1_CLK_ENABLE();
 800d798:	f503 338c 	add.w	r3, r3, #71680	; 0x11800
 800d79c:	2100      	movs	r1, #0
 800d79e:	9101      	str	r1, [sp, #4]
 800d7a0:	6c5a      	ldr	r2, [r3, #68]	; 0x44
    PA0-WKUP     ------> ADC1_IN0
    */
    GPIO_InitStruct.Pin = GPIO_PIN_0;
    GPIO_InitStruct.Mode = GPIO_MODE_ANALOG;
    GPIO_InitStruct.Pull = GPIO_NOPULL;
    HAL_GPIO_Init(GPIOA, &GPIO_InitStruct);
 800d7a2:	480f      	ldr	r0, [pc, #60]	; (800d7e0 <HAL_ADC_MspInit+0x60>)
    __HAL_RCC_ADC1_CLK_ENABLE();
 800d7a4:	f442 7280 	orr.w	r2, r2, #256	; 0x100
 800d7a8:	645a      	str	r2, [r3, #68]	; 0x44
 800d7aa:	6c5a      	ldr	r2, [r3, #68]	; 0x44
 800d7ac:	f402 7280 	and.w	r2, r2, #256	; 0x100
 800d7b0:	9201      	str	r2, [sp, #4]
 800d7b2:	9a01      	ldr	r2, [sp, #4]
    __HAL_RCC_GPIOA_CLK_ENABLE();
 800d7b4:	9102      	str	r1, [sp, #8]
 800d7b6:	6b1a      	ldr	r2, [r3, #48]	; 0x30
 800d7b8:	f042 0201 	orr.w	r2, r2, #1
 800d7bc:	631a      	str	r2, [r3, #48]	; 0x30
 800d7be:	6b1b      	ldr	r3, [r3, #48]	; 0x30
 800d7c0:	f003 0301 	and.w	r3, r3, #1
 800d7c4:	9302      	str	r3, [sp, #8]
 800d7c6:	9b02      	ldr	r3, [sp, #8]
    GPIO_InitStruct.Pin = GPIO_PIN_0;
 800d7c8:	2301      	movs	r3, #1
 800d7ca:	9303      	str	r3, [sp, #12]
    HAL_GPIO_Init(GPIOA, &GPIO_InitStruct);
 800d7cc:	a903      	add	r1, sp, #12
    GPIO_InitStruct.Mode = GPIO_MODE_ANALOG;
 800d7ce:	2303      	movs	r3, #3
 800d7d0:	9304      	str	r3, [sp, #16]
    HAL_GPIO_Init(GPIOA, &GPIO_InitStruct);
 800d7d2:	f7fc f991 	bl	8009af8 <HAL_GPIO_Init>
  /* USER CODE BEGIN ADC1_MspInit 1 */

  /* USER CODE END ADC1_MspInit 1 */
  }

}
 800d7d6:	b008      	add	sp, #32
 800d7d8:	bd10      	pop	{r4, pc}
 800d7da:	bf00      	nop
 800d7dc:	40012000 	.word	0x40012000
 800d7e0:	40020000 	.word	0x40020000

0800d7e4 <HAL_UART_MspInit>:
* This function configures the hardware resources used in this example
* @param huart: UART handle pointer
* @retval None
*/
void HAL_UART_MspInit(UART_HandleTypeDef* huart)
{
 800d7e4:	b570      	push	{r4, r5, r6, lr}
  GPIO_InitTypeDef GPIO_InitStruct = {0};
 800d7e6:	2214      	movs	r2, #20
{
 800d7e8:	b08a      	sub	sp, #40	; 0x28
 800d7ea:	4606      	mov	r6, r0
  GPIO_InitTypeDef GPIO_InitStruct = {0};
 800d7ec:	2100      	movs	r1, #0
 800d7ee:	eb0d 0002 	add.w	r0, sp, r2
 800d7f2:	f001 f925 	bl	800ea40 <memset>
  if(huart->Instance==USART1)
 800d7f6:	6833      	ldr	r3, [r6, #0]
 800d7f8:	4a35      	ldr	r2, [pc, #212]	; (800d8d0 <HAL_UART_MspInit+0xec>)
 800d7fa:	4293      	cmp	r3, r2
 800d7fc:	d13e      	bne.n	800d87c <HAL_UART_MspInit+0x98>
  {
  /* USER CODE BEGIN USART1_MspInit 0 */

  /* USER CODE END USART1_MspInit 0 */
    /* Peripheral clock enable */
    __HAL_RCC_USART1_CLK_ENABLE();
 800d7fe:	4b35      	ldr	r3, [pc, #212]	; (800d8d4 <HAL_UART_MspInit+0xf0>)
    GPIO_InitStruct.Pin = GPIO_PIN_9|GPIO_PIN_10;
    GPIO_InitStruct.Mode = GPIO_MODE_AF_PP;
    GPIO_InitStruct.Pull = GPIO_PULLUP;
    GPIO_InitStruct.Speed = GPIO_SPEED_FREQ_VERY_HIGH;
    GPIO_InitStruct.Alternate = GPIO_AF7_USART1;
    HAL_GPIO_Init(GPIOA, &GPIO_InitStruct);
 800d800:	4835      	ldr	r0, [pc, #212]	; (800d8d8 <HAL_UART_MspInit+0xf4>)

    /* USART1 DMA Init */
    /* USART1_RX Init */
    hdma_usart1_rx.Instance = DMA2_Stream2;
 800d802:	4c36      	ldr	r4, [pc, #216]	; (800d8dc <HAL_UART_MspInit+0xf8>)
    __HAL_RCC_USART1_CLK_ENABLE();
 800d804:	2500      	movs	r5, #0
 800d806:	9501      	str	r5, [sp, #4]
 800d808:	6c5a      	ldr	r2, [r3, #68]	; 0x44
 800d80a:	f042 0210 	orr.w	r2, r2, #16
 800d80e:	645a      	str	r2, [r3, #68]	; 0x44
 800d810:	6c5a      	ldr	r2, [r3, #68]	; 0x44
 800d812:	f002 0210 	and.w	r2, r2, #16
 800d816:	9201      	str	r2, [sp, #4]
 800d818:	9a01      	ldr	r2, [sp, #4]
    __HAL_RCC_GPIOA_CLK_ENABLE();
 800d81a:	9502      	str	r5, [sp, #8]
 800d81c:	6b1a      	ldr	r2, [r3, #48]	; 0x30
 800d81e:	f042 0201 	orr.w	r2, r2, #1
 800d822:	631a      	str	r2, [r3, #48]	; 0x30
 800d824:	6b1b      	ldr	r3, [r3, #48]	; 0x30
 800d826:	f003 0301 	and.w	r3, r3, #1
 800d82a:	9302      	str	r3, [sp, #8]
 800d82c:	9b02      	ldr	r3, [sp, #8]
    GPIO_InitStruct.Pin = GPIO_PIN_9|GPIO_PIN_10;
 800d82e:	f44f 63c0 	mov.w	r3, #1536	; 0x600
 800d832:	9305      	str	r3, [sp, #20]
    GPIO_InitStruct.Mode = GPIO_MODE_AF_PP;
 800d834:	2302      	movs	r3, #2
 800d836:	9306      	str	r3, [sp, #24]
    GPIO_InitStruct.Pull = GPIO_PULLUP;
 800d838:	2301      	movs	r3, #1
 800d83a:	9307      	str	r3, [sp, #28]
    GPIO_InitStruct.Speed = GPIO_SPEED_FREQ_VERY_HIGH;
 800d83c:	2303      	movs	r3, #3
 800d83e:	9308      	str	r3, [sp, #32]
    HAL_GPIO_Init(GPIOA, &GPIO_InitStruct);
 800d840:	a905      	add	r1, sp, #20
    GPIO_InitStruct.Alternate = GPIO_AF7_USART1;
 800d842:	2307      	movs	r3, #7
 800d844:	9309      	str	r3, [sp, #36]	; 0x24
    HAL_GPIO_Init(GPIOA, &GPIO_InitStruct);
 800d846:	f7fc f957 	bl	8009af8 <HAL_GPIO_Init>
    hdma_usart1_rx.Instance = DMA2_Stream2;
 800d84a:	4b25      	ldr	r3, [pc, #148]	; (800d8e0 <HAL_UART_MspInit+0xfc>)
    GPIO_InitStruct.Alternate = GPIO_AF7_USART2;
    HAL_GPIO_Init(GPIOA, &GPIO_InitStruct);

    /* USART2 DMA Init */
    /* USART2_RX Init */
    hdma_usart2_rx.Instance = DMA1_Stream5;
 800d84c:	6023      	str	r3, [r4, #0]
    hdma_usart2_rx.Init.Channel = DMA_CHANNEL_4;
 800d84e:	f04f 6300 	mov.w	r3, #134217728	; 0x8000000
 800d852:	6063      	str	r3, [r4, #4]
    hdma_usart2_rx.Init.Direction = DMA_PERIPH_TO_MEMORY;
    hdma_usart2_rx.Init.PeriphInc = DMA_PINC_DISABLE;
    hdma_usart2_rx.Init.MemInc = DMA_MINC_ENABLE;
 800d854:	f44f 6380 	mov.w	r3, #1024	; 0x400
    hdma_usart2_rx.Init.Direction = DMA_PERIPH_TO_MEMORY;
 800d858:	60a5      	str	r5, [r4, #8]
    hdma_usart2_rx.Init.PeriphInc = DMA_PINC_DISABLE;
 800d85a:	60e5      	str	r5, [r4, #12]
    hdma_usart2_rx.Init.MemInc = DMA_MINC_ENABLE;
 800d85c:	6123      	str	r3, [r4, #16]
    hdma_usart2_rx.Init.PeriphDataAlignment = DMA_PDATAALIGN_BYTE;
 800d85e:	6165      	str	r5, [r4, #20]
    hdma_usart2_rx.Init.MemDataAlignment = DMA_MDATAALIGN_BYTE;
 800d860:	61a5      	str	r5, [r4, #24]
    hdma_usart2_rx.Init.Mode = DMA_NORMAL;
 800d862:	61e5      	str	r5, [r4, #28]
    hdma_usart2_rx.Init.Priority = DMA_PRIORITY_LOW;
 800d864:	6225      	str	r5, [r4, #32]
    hdma_usart2_rx.Init.FIFOMode = DMA_FIFOMODE_DISABLE;
 800d866:	6265      	str	r5, [r4, #36]	; 0x24
    if (HAL_DMA_Init(&hdma_usart2_rx) != HAL_OK)
 800d868:	4620      	mov	r0, r4
 800d86a:	f7fb ffcf 	bl	800980c <HAL_DMA_Init>
 800d86e:	b108      	cbz	r0, 800d874 <HAL_UART_MspInit+0x90>
    {
      Error_Handler();
 800d870:	f7ff ff68 	bl	800d744 <Error_Handler>
    }

    __HAL_LINKDMA(huart,hdmarx,hdma_usart2_rx);
 800d874:	6374      	str	r4, [r6, #52]	; 0x34
 800d876:	63a6      	str	r6, [r4, #56]	; 0x38
  /* USER CODE BEGIN USART2_MspInit 1 */

  /* USER CODE END USART2_MspInit 1 */
  }

}
 800d878:	b00a      	add	sp, #40	; 0x28
 800d87a:	bd70      	pop	{r4, r5, r6, pc}
  else if(huart->Instance==USART2)
 800d87c:	4a19      	ldr	r2, [pc, #100]	; (800d8e4 <HAL_UART_MspInit+0x100>)
 800d87e:	4293      	cmp	r3, r2
 800d880:	d1fa      	bne.n	800d878 <HAL_UART_MspInit+0x94>
    __HAL_RCC_USART2_CLK_ENABLE();
 800d882:	4b14      	ldr	r3, [pc, #80]	; (800d8d4 <HAL_UART_MspInit+0xf0>)
    HAL_GPIO_Init(GPIOA, &GPIO_InitStruct);
 800d884:	4814      	ldr	r0, [pc, #80]	; (800d8d8 <HAL_UART_MspInit+0xf4>)
    hdma_usart2_rx.Instance = DMA1_Stream5;
 800d886:	4c18      	ldr	r4, [pc, #96]	; (800d8e8 <HAL_UART_MspInit+0x104>)
    __HAL_RCC_USART2_CLK_ENABLE();
 800d888:	2500      	movs	r5, #0
 800d88a:	9503      	str	r5, [sp, #12]
 800d88c:	6c1a      	ldr	r2, [r3, #64]	; 0x40
 800d88e:	f442 3200 	orr.w	r2, r2, #131072	; 0x20000
 800d892:	641a      	str	r2, [r3, #64]	; 0x40
 800d894:	6c1a      	ldr	r2, [r3, #64]	; 0x40
 800d896:	f402 3200 	and.w	r2, r2, #131072	; 0x20000
 800d89a:	9203      	str	r2, [sp, #12]
 800d89c:	9a03      	ldr	r2, [sp, #12]
    __HAL_RCC_GPIOA_CLK_ENABLE();
 800d89e:	9504      	str	r5, [sp, #16]
 800d8a0:	6b1a      	ldr	r2, [r3, #48]	; 0x30
 800d8a2:	f042 0201 	orr.w	r2, r2, #1
 800d8a6:	631a      	str	r2, [r3, #48]	; 0x30
 800d8a8:	6b1b      	ldr	r3, [r3, #48]	; 0x30
 800d8aa:	f003 0301 	and.w	r3, r3, #1
 800d8ae:	9304      	str	r3, [sp, #16]
 800d8b0:	9b04      	ldr	r3, [sp, #16]
    GPIO_InitStruct.Pin = USART_TX_Pin|USART_RX_Pin;
 800d8b2:	230c      	movs	r3, #12
 800d8b4:	9305      	str	r3, [sp, #20]
    GPIO_InitStruct.Mode = GPIO_MODE_AF_PP;
 800d8b6:	2302      	movs	r3, #2
 800d8b8:	9306      	str	r3, [sp, #24]
    GPIO_InitStruct.Pull = GPIO_PULLUP;
 800d8ba:	2301      	movs	r3, #1
 800d8bc:	9307      	str	r3, [sp, #28]
    GPIO_InitStruct.Speed = GPIO_SPEED_FREQ_VERY_HIGH;
 800d8be:	2303      	movs	r3, #3
 800d8c0:	9308      	str	r3, [sp, #32]
    HAL_GPIO_Init(GPIOA, &GPIO_InitStruct);
 800d8c2:	a905      	add	r1, sp, #20
    GPIO_InitStruct.Alternate = GPIO_AF7_USART2;
 800d8c4:	2307      	movs	r3, #7
 800d8c6:	9309      	str	r3, [sp, #36]	; 0x24
    HAL_GPIO_Init(GPIOA, &GPIO_InitStruct);
 800d8c8:	f7fc f916 	bl	8009af8 <HAL_GPIO_Init>
    hdma_usart2_rx.Instance = DMA1_Stream5;
 800d8cc:	4b07      	ldr	r3, [pc, #28]	; (800d8ec <HAL_UART_MspInit+0x108>)
 800d8ce:	e7bd      	b.n	800d84c <HAL_UART_MspInit+0x68>
 800d8d0:	40011000 	.word	0x40011000
 800d8d4:	40023800 	.word	0x40023800
 800d8d8:	40020000 	.word	0x40020000
 800d8dc:	20001acc 	.word	0x20001acc
 800d8e0:	40026440 	.word	0x40026440
 800d8e4:	40004400 	.word	0x40004400
 800d8e8:	20001940 	.word	0x20001940
 800d8ec:	40026088 	.word	0x40026088

0800d8f0 <NMI_Handler>:
 800d8f0:	4770      	bx	lr

0800d8f2 <HardFault_Handler>:

/**
  * @brief This function handles Hard fault interrupt.
  */
void HardFault_Handler(void)
{
 800d8f2:	e7fe      	b.n	800d8f2 <HardFault_Handler>

0800d8f4 <MemManage_Handler>:

/**
  * @brief This function handles Memory management fault.
  */
void MemManage_Handler(void)
{
 800d8f4:	e7fe      	b.n	800d8f4 <MemManage_Handler>

0800d8f6 <BusFault_Handler>:

/**
  * @brief This function handles Pre-fetch fault, memory access fault.
  */
void BusFault_Handler(void)
{
 800d8f6:	e7fe      	b.n	800d8f6 <BusFault_Handler>

0800d8f8 <UsageFault_Handler>:

/**
  * @brief This function handles Undefined instruction or illegal state.
  */
void UsageFault_Handler(void)
{
 800d8f8:	e7fe      	b.n	800d8f8 <UsageFault_Handler>

0800d8fa <SVC_Handler>:
 800d8fa:	4770      	bx	lr

0800d8fc <DebugMon_Handler>:
 800d8fc:	4770      	bx	lr

0800d8fe <PendSV_Handler>:

/**
  * @brief This function handles Pendable request for system service.
  */
void PendSV_Handler(void)
{
 800d8fe:	4770      	bx	lr

0800d900 <SysTick_Handler>:
void SysTick_Handler(void)
{
  /* USER CODE BEGIN SysTick_IRQn 0 */

  /* USER CODE END SysTick_IRQn 0 */
  HAL_IncTick();
 800d900:	f7fb bcc4 	b.w	800928c <HAL_IncTick>

0800d904 <DMA1_Stream5_IRQHandler>:
void DMA1_Stream5_IRQHandler(void)
{
  /* USER CODE BEGIN DMA1_Stream5_IRQn 0 */

  /* USER CODE END DMA1_Stream5_IRQn 0 */
  HAL_DMA_IRQHandler(&hdma_usart2_rx);
 800d904:	4801      	ldr	r0, [pc, #4]	; (800d90c <DMA1_Stream5_IRQHandler+0x8>)
 800d906:	f7fc b83d 	b.w	8009984 <HAL_DMA_IRQHandler>
 800d90a:	bf00      	nop
 800d90c:	20001940 	.word	0x20001940

0800d910 <EXTI15_10_IRQHandler>:
void EXTI15_10_IRQHandler(void)
{
  /* USER CODE BEGIN EXTI15_10_IRQn 0 */

  /* USER CODE END EXTI15_10_IRQn 0 */
  HAL_GPIO_EXTI_IRQHandler(GPIO_PIN_12);
 800d910:	f44f 5080 	mov.w	r0, #4096	; 0x1000
 800d914:	f7fc b9d2 	b.w	8009cbc <HAL_GPIO_EXTI_IRQHandler>

0800d918 <DMA2_Stream2_IRQHandler>:
void DMA2_Stream2_IRQHandler(void)
{
  /* USER CODE BEGIN DMA2_Stream2_IRQn 0 */

  /* USER CODE END DMA2_Stream2_IRQn 0 */
  HAL_DMA_IRQHandler(&hdma_usart1_rx);
 800d918:	4801      	ldr	r0, [pc, #4]	; (800d920 <DMA2_Stream2_IRQHandler+0x8>)
 800d91a:	f7fc b833 	b.w	8009984 <HAL_DMA_IRQHandler>
 800d91e:	bf00      	nop
 800d920:	20001acc 	.word	0x20001acc

0800d924 <iic_delay_us>:

static void iic_delay_us(void)
{
	uint8_t d = 49;

	while(d--) //5-us
 800d924:	2332      	movs	r3, #50	; 0x32
 800d926:	3b01      	subs	r3, #1
 800d928:	f013 03ff 	ands.w	r3, r3, #255	; 0xff
 800d92c:	d100      	bne.n	800d930 <iic_delay_us+0xc>
	{
		asm volatile("nop");
	}
}
 800d92e:	4770      	bx	lr
		asm volatile("nop");
 800d930:	bf00      	nop
 800d932:	e7f8      	b.n	800d926 <iic_delay_us+0x2>

0800d934 <SDA_OutMode>:

void SDA_OutMode(void)
{
	GPIO_Init_value.Pin = SW_SDA_Pin;
 800d934:	4904      	ldr	r1, [pc, #16]	; (800d948 <SDA_OutMode+0x14>)
	GPIO_Init_value.Mode = GPIO_MODE_OUTPUT_OD; //OUTPUT OPEN DRAIN
	GPIO_Init_value.Speed = GPIO_SPEED_FREQ_HIGH;
    HAL_GPIO_Init(SW_SDA_GPIO_Port, &GPIO_Init_value);
 800d936:	4805      	ldr	r0, [pc, #20]	; (800d94c <SDA_OutMode+0x18>)
	GPIO_Init_value.Mode = GPIO_MODE_OUTPUT_OD; //OUTPUT OPEN DRAIN
 800d938:	2311      	movs	r3, #17
 800d93a:	2220      	movs	r2, #32
 800d93c:	e881 000c 	stmia.w	r1, {r2, r3}
	GPIO_Init_value.Speed = GPIO_SPEED_FREQ_HIGH;
 800d940:	2302      	movs	r3, #2
 800d942:	60cb      	str	r3, [r1, #12]
    HAL_GPIO_Init(SW_SDA_GPIO_Port, &GPIO_Init_value);
 800d944:	f7fc b8d8 	b.w	8009af8 <HAL_GPIO_Init>
 800d948:	20001be4 	.word	0x20001be4
 800d94c:	40020800 	.word	0x40020800

0800d950 <SCL_OutMode>:
}

void SCL_OutMode(void)
{
	GPIO_Init_value.Pin = SW_SCL_Pin;
 800d950:	4904      	ldr	r1, [pc, #16]	; (800d964 <SCL_OutMode+0x14>)
	GPIO_Init_value.Mode = GPIO_MODE_OUTPUT_OD; //OUTPUT OPEN DRAIN
	GPIO_Init_value.Speed = GPIO_SPEED_FREQ_HIGH;
    HAL_GPIO_Init(SW_SCL_GPIO_Port, &GPIO_Init_value);
 800d952:	4805      	ldr	r0, [pc, #20]	; (800d968 <SCL_OutMode+0x18>)
	GPIO_Init_value.Mode = GPIO_MODE_OUTPUT_OD; //OUTPUT OPEN DRAIN
 800d954:	2311      	movs	r3, #17
 800d956:	2240      	movs	r2, #64	; 0x40
 800d958:	e881 000c 	stmia.w	r1, {r2, r3}
	GPIO_Init_value.Speed = GPIO_SPEED_FREQ_HIGH;
 800d95c:	2302      	movs	r3, #2
 800d95e:	60cb      	str	r3, [r1, #12]
    HAL_GPIO_Init(SW_SCL_GPIO_Port, &GPIO_Init_value);
 800d960:	f7fc b8ca 	b.w	8009af8 <HAL_GPIO_Init>
 800d964:	20001be4 	.word	0x20001be4
 800d968:	40020800 	.word	0x40020800

0800d96c <SDA_InMode>:
}

void SDA_InMode(void)
{
	GPIO_Init_value.Pin = SW_SDA_Pin;
 800d96c:	4904      	ldr	r1, [pc, #16]	; (800d980 <SDA_InMode+0x14>)
	GPIO_Init_value.Mode = GPIO_MODE_INPUT;
	GPIO_Init_value.Pull = GPIO_NOPULL;
    HAL_GPIO_Init(SW_SDA_GPIO_Port, &GPIO_Init_value);
 800d96e:	4805      	ldr	r0, [pc, #20]	; (800d984 <SDA_InMode+0x18>)
	GPIO_Init_value.Pin = SW_SDA_Pin;
 800d970:	2320      	movs	r3, #32
 800d972:	600b      	str	r3, [r1, #0]
	GPIO_Init_value.Mode = GPIO_MODE_INPUT;
 800d974:	2300      	movs	r3, #0
 800d976:	604b      	str	r3, [r1, #4]
	GPIO_Init_value.Pull = GPIO_NOPULL;
 800d978:	608b      	str	r3, [r1, #8]
    HAL_GPIO_Init(SW_SDA_GPIO_Port, &GPIO_Init_value);
 800d97a:	f7fc b8bd 	b.w	8009af8 <HAL_GPIO_Init>
 800d97e:	bf00      	nop
 800d980:	20001be4 	.word	0x20001be4
 800d984:	40020800 	.word	0x40020800

0800d988 <SCL_InMode>:
}

void SCL_InMode(void)
{
	GPIO_Init_value.Pin = SW_SCL_Pin;
 800d988:	4904      	ldr	r1, [pc, #16]	; (800d99c <SCL_InMode+0x14>)
	GPIO_Init_value.Mode = GPIO_MODE_INPUT;
	GPIO_Init_value.Pull = GPIO_NOPULL;
    HAL_GPIO_Init(SW_SCL_GPIO_Port, &GPIO_Init_value);
 800d98a:	4805      	ldr	r0, [pc, #20]	; (800d9a0 <SCL_InMode+0x18>)
	GPIO_Init_value.Pin = SW_SCL_Pin;
 800d98c:	2340      	movs	r3, #64	; 0x40
 800d98e:	600b      	str	r3, [r1, #0]
	GPIO_Init_value.Mode = GPIO_MODE_INPUT;
 800d990:	2300      	movs	r3, #0
 800d992:	604b      	str	r3, [r1, #4]
	GPIO_Init_value.Pull = GPIO_NOPULL;
 800d994:	608b      	str	r3, [r1, #8]
    HAL_GPIO_Init(SW_SCL_GPIO_Port, &GPIO_Init_value);
 800d996:	f7fc b8af 	b.w	8009af8 <HAL_GPIO_Init>
 800d99a:	bf00      	nop
 800d99c:	20001be4 	.word	0x20001be4
 800d9a0:	40020800 	.word	0x40020800

0800d9a4 <GPIO_I2CStart>:
{
    return HAL_GPIO_ReadPin(SW_SDA_GPIO_Port, SW_SDA_Pin);
}

static void GPIO_I2CStart(void)
{
 800d9a4:	b508      	push	{r3, lr}
    SDA_HIGH();
 800d9a6:	f7ff ffe1 	bl	800d96c <SDA_InMode>
    SCL_HIGH();
 800d9aa:	f7ff ffed 	bl	800d988 <SCL_InMode>
    iic_delay_us();
 800d9ae:	f7ff ffb9 	bl	800d924 <iic_delay_us>

    SDA_LOW();
 800d9b2:	f7ff ffbf 	bl	800d934 <SDA_OutMode>

    iic_delay_us();
 800d9b6:	f7ff ffb5 	bl	800d924 <iic_delay_us>

    SCL_LOW();
}
 800d9ba:	e8bd 4008 	ldmia.w	sp!, {r3, lr}
    SCL_LOW();
 800d9be:	f7ff bfc7 	b.w	800d950 <SCL_OutMode>

0800d9c2 <GPIO_I2CWriteByte>:
    SCL_LOW();
    iic_delay_us();
}

static void GPIO_I2CWriteByte(uint8_t Data)
{
 800d9c2:	b538      	push	{r3, r4, r5, lr}
 800d9c4:	4605      	mov	r5, r0
    int i = 0;

    for(i=7; i>=0; i--)
 800d9c6:	2407      	movs	r4, #7
    {
        SCL_LOW();
 800d9c8:	f7ff ffc2 	bl	800d950 <SCL_OutMode>

        if(Data & (0x01<<i))
 800d9cc:	fa45 f304 	asr.w	r3, r5, r4
 800d9d0:	07db      	lsls	r3, r3, #31
 800d9d2:	d50b      	bpl.n	800d9ec <GPIO_I2CWriteByte+0x2a>
            SDA_HIGH();
 800d9d4:	f7ff ffca 	bl	800d96c <SDA_InMode>
        else
            SDA_LOW();

        iic_delay_us();
 800d9d8:	f7ff ffa4 	bl	800d924 <iic_delay_us>

        SCL_HIGH();
 800d9dc:	f7ff ffd4 	bl	800d988 <SCL_InMode>

        iic_delay_us();
 800d9e0:	f7ff ffa0 	bl	800d924 <iic_delay_us>
    for(i=7; i>=0; i--)
 800d9e4:	f114 34ff 	adds.w	r4, r4, #4294967295
 800d9e8:	d2ee      	bcs.n	800d9c8 <GPIO_I2CWriteByte+0x6>
    }
}
 800d9ea:	bd38      	pop	{r3, r4, r5, pc}
            SDA_LOW();
 800d9ec:	f7ff ffa2 	bl	800d934 <SDA_OutMode>
 800d9f0:	e7f2      	b.n	800d9d8 <GPIO_I2CWriteByte+0x16>
	...

0800d9f4 <GPIO_I2CIsAck>:
{
 800d9f4:	b510      	push	{r4, lr}
    SCL_LOW();
 800d9f6:	f7ff ffab 	bl	800d950 <SCL_OutMode>
    SDA_InMode();
 800d9fa:	f7ff ffb7 	bl	800d96c <SDA_InMode>
    iic_delay_us();
 800d9fe:	f7ff ff91 	bl	800d924 <iic_delay_us>
    SCL_HIGH();
 800da02:	f7ff ffc1 	bl	800d988 <SCL_InMode>
    iic_delay_us();
 800da06:	f7ff ff8d 	bl	800d924 <iic_delay_us>
    return HAL_GPIO_ReadPin(SW_SDA_GPIO_Port, SW_SDA_Pin);
 800da0a:	2120      	movs	r1, #32
 800da0c:	4806      	ldr	r0, [pc, #24]	; (800da28 <GPIO_I2CIsAck+0x34>)
 800da0e:	f7fc f949 	bl	8009ca4 <HAL_GPIO_ReadPin>
 800da12:	4604      	mov	r4, r0
    SCL_LOW();
 800da14:	f7ff ff9c 	bl	800d950 <SCL_OutMode>
    SDA_LOW();
 800da18:	f7ff ff8c 	bl	800d934 <SDA_OutMode>
    iic_delay_us();
 800da1c:	f7ff ff82 	bl	800d924 <iic_delay_us>
}
 800da20:	fab4 f084 	clz	r0, r4
 800da24:	0940      	lsrs	r0, r0, #5
 800da26:	bd10      	pop	{r4, pc}
 800da28:	40020800 	.word	0x40020800

0800da2c <GPIO_I2CStop>:
{
 800da2c:	b508      	push	{r3, lr}
    SDA_HIGH();
 800da2e:	f7ff ff9d 	bl	800d96c <SDA_InMode>
    iic_delay_us();
 800da32:	f7ff ff77 	bl	800d924 <iic_delay_us>
    SCL_LOW();
 800da36:	f7ff ff8b 	bl	800d950 <SCL_OutMode>
    iic_delay_us();
 800da3a:	f7ff ff73 	bl	800d924 <iic_delay_us>
    SDA_LOW();
 800da3e:	f7ff ff79 	bl	800d934 <SDA_OutMode>
    iic_delay_us();
 800da42:	f7ff ff6f 	bl	800d924 <iic_delay_us>
    SCL_HIGH();
 800da46:	f7ff ff9f 	bl	800d988 <SCL_InMode>
    iic_delay_us();
 800da4a:	f7ff ff6b 	bl	800d924 <iic_delay_us>
    SDA_HIGH();
 800da4e:	f7ff ff8d 	bl	800d96c <SDA_InMode>
}
 800da52:	e8bd 4008 	ldmia.w	sp!, {r3, lr}
    iic_delay_us();
 800da56:	f7ff bf65 	b.w	800d924 <iic_delay_us>
	...

0800da5c <mcp23017_i2c_write>:
        iic_delay_us();
    }
}

static int16_t mcp23017_i2c_write(uint8_t SLAVE_ADDR, uint16_t Addr, uint8_t pData)
{
 800da5c:	b5f8      	push	{r3, r4, r5, r6, r7, lr}
 800da5e:	4615      	mov	r5, r2
 800da60:	24c9      	movs	r4, #201	; 0xc9
		return -1;
	}

	GPIO_I2CStart();

	GPIO_I2CWriteByte(SLAVE_ADDR & 0xFE);
 800da62:	f000 07fe 	and.w	r7, r0, #254	; 0xfe
	}

	//Device address write...
	TempData = (uint8_t)(Addr & 0x00FF);

	GPIO_I2CWriteByte(TempData);
 800da66:	b2ce      	uxtb	r6, r1
 800da68:	3c01      	subs	r4, #1
 800da6a:	b2a4      	uxth	r4, r4
	if(Retry > RETRY_CNT)
 800da6c:	b944      	cbnz	r4, 800da80 <mcp23017_i2c_write+0x24>
		LCD_DbgLog("WriteRegister [Err] Write Ack fail!\n");
 800da6e:	4b13      	ldr	r3, [pc, #76]	; (800dabc <mcp23017_i2c_write+0x60>)
 800da70:	4813      	ldr	r0, [pc, #76]	; (800dac0 <mcp23017_i2c_write+0x64>)
 800da72:	2204      	movs	r2, #4
 800da74:	601a      	str	r2, [r3, #0]
 800da76:	f001 fccb 	bl	800f410 <puts>
	GPIO_I2CStop();

	return rv;

error:
	return -1;
 800da7a:	f04f 30ff 	mov.w	r0, #4294967295
}
 800da7e:	bdf8      	pop	{r3, r4, r5, r6, r7, pc}
	GPIO_I2CStart();
 800da80:	f7ff ff90 	bl	800d9a4 <GPIO_I2CStart>
	GPIO_I2CWriteByte(SLAVE_ADDR & 0xFE);
 800da84:	4638      	mov	r0, r7
 800da86:	f7ff ff9c 	bl	800d9c2 <GPIO_I2CWriteByte>
	if(GPIO_I2CIsAck() == 0)
 800da8a:	f7ff ffb3 	bl	800d9f4 <GPIO_I2CIsAck>
 800da8e:	b910      	cbnz	r0, 800da96 <mcp23017_i2c_write+0x3a>
		GPIO_I2CStop();
 800da90:	f7ff ffcc 	bl	800da2c <GPIO_I2CStop>
 800da94:	e7e8      	b.n	800da68 <mcp23017_i2c_write+0xc>
	GPIO_I2CWriteByte(TempData);
 800da96:	4630      	mov	r0, r6
 800da98:	f7ff ff93 	bl	800d9c2 <GPIO_I2CWriteByte>
	if(GPIO_I2CIsAck() == 0)
 800da9c:	f7ff ffaa 	bl	800d9f4 <GPIO_I2CIsAck>
 800daa0:	2800      	cmp	r0, #0
 800daa2:	d0f5      	beq.n	800da90 <mcp23017_i2c_write+0x34>
	GPIO_I2CWriteByte(pData);
 800daa4:	4628      	mov	r0, r5
 800daa6:	f7ff ff8c 	bl	800d9c2 <GPIO_I2CWriteByte>
	if(GPIO_I2CIsAck() == 0)
 800daaa:	f7ff ffa3 	bl	800d9f4 <GPIO_I2CIsAck>
 800daae:	2800      	cmp	r0, #0
 800dab0:	d0e3      	beq.n	800da7a <mcp23017_i2c_write+0x1e>
	GPIO_I2CStop();
 800dab2:	f7ff ffbb 	bl	800da2c <GPIO_I2CStop>
	return rv;
 800dab6:	2001      	movs	r0, #1
 800dab8:	bdf8      	pop	{r3, r4, r5, r6, r7, pc}
 800daba:	bf00      	nop
 800dabc:	20007018 	.word	0x20007018
 800dac0:	0801263d 	.word	0x0801263d

0800dac4 <GPIO_I2CReadByte>:
{
 800dac4:	b5f8      	push	{r3, r4, r5, r6, r7, lr}
    *Data = 0;
 800dac6:	2300      	movs	r3, #0
    return HAL_GPIO_ReadPin(SW_SDA_GPIO_Port, SW_SDA_Pin);
 800dac8:	4e0f      	ldr	r6, [pc, #60]	; (800db08 <GPIO_I2CReadByte+0x44>)
    *Data = 0;
 800daca:	7003      	strb	r3, [r0, #0]
{
 800dacc:	4605      	mov	r5, r0
    for(i=7; i>=0; i--)
 800dace:	2407      	movs	r4, #7
			*Data |= (0x1 << i);
 800dad0:	2701      	movs	r7, #1
        SCL_LOW();
 800dad2:	f7ff ff3d 	bl	800d950 <SCL_OutMode>
        SDA_InMode();
 800dad6:	f7ff ff49 	bl	800d96c <SDA_InMode>
        iic_delay_us();
 800dada:	f7ff ff23 	bl	800d924 <iic_delay_us>
        SCL_HIGH();
 800dade:	f7ff ff53 	bl	800d988 <SCL_InMode>
        iic_delay_us();
 800dae2:	f7ff ff1f 	bl	800d924 <iic_delay_us>
    return HAL_GPIO_ReadPin(SW_SDA_GPIO_Port, SW_SDA_Pin);
 800dae6:	2120      	movs	r1, #32
 800dae8:	4630      	mov	r0, r6
 800daea:	f7fc f8db 	bl	8009ca4 <HAL_GPIO_ReadPin>
        if(ReceivedData > 0)
 800daee:	b120      	cbz	r0, 800dafa <GPIO_I2CReadByte+0x36>
			*Data |= (0x1 << i);
 800daf0:	782a      	ldrb	r2, [r5, #0]
 800daf2:	fa07 f304 	lsl.w	r3, r7, r4
 800daf6:	4313      	orrs	r3, r2
 800daf8:	702b      	strb	r3, [r5, #0]
        iic_delay_us();
 800dafa:	f7ff ff13 	bl	800d924 <iic_delay_us>
    for(i=7; i>=0; i--)
 800dafe:	f114 34ff 	adds.w	r4, r4, #4294967295
 800db02:	d2e6      	bcs.n	800dad2 <GPIO_I2CReadByte+0xe>
}
 800db04:	bdf8      	pop	{r3, r4, r5, r6, r7, pc}
 800db06:	bf00      	nop
 800db08:	40020800 	.word	0x40020800

0800db0c <GPIO_I2COutNoAck>:
{
 800db0c:	b508      	push	{r3, lr}
    SCL_LOW();
 800db0e:	f7ff ff1f 	bl	800d950 <SCL_OutMode>
    SCL_LOW();	//dummy delay
 800db12:	f7ff ff1d 	bl	800d950 <SCL_OutMode>
    SDA_HIGH();
 800db16:	f7ff ff29 	bl	800d96c <SDA_InMode>
    iic_delay_us();
 800db1a:	f7ff ff03 	bl	800d924 <iic_delay_us>
    SCL_HIGH();
 800db1e:	f7ff ff33 	bl	800d988 <SCL_InMode>
    iic_delay_us();
 800db22:	f7ff feff 	bl	800d924 <iic_delay_us>
    SCL_LOW();
 800db26:	f7ff ff13 	bl	800d950 <SCL_OutMode>
}
 800db2a:	e8bd 4008 	ldmia.w	sp!, {r3, lr}
    iic_delay_us();
 800db2e:	f7ff bef9 	b.w	800d924 <iic_delay_us>

0800db32 <GPIO_I2COutAck>:
{
 800db32:	b508      	push	{r3, lr}
    SCL_LOW();
 800db34:	f7ff ff0c 	bl	800d950 <SCL_OutMode>
    SCL_LOW();	//Dummy delay
 800db38:	f7ff ff0a 	bl	800d950 <SCL_OutMode>
    SDA_LOW();
 800db3c:	f7ff fefa 	bl	800d934 <SDA_OutMode>
    iic_delay_us();
 800db40:	f7ff fef0 	bl	800d924 <iic_delay_us>
    SCL_HIGH();
 800db44:	f7ff ff20 	bl	800d988 <SCL_InMode>
    iic_delay_us();
 800db48:	f7ff feec 	bl	800d924 <iic_delay_us>
    SCL_LOW();
 800db4c:	f7ff ff00 	bl	800d950 <SCL_OutMode>
}
 800db50:	e8bd 4008 	ldmia.w	sp!, {r3, lr}
    iic_delay_us();
 800db54:	f7ff bee6 	b.w	800d924 <iic_delay_us>

0800db58 <mcp23017_i2c_read.constprop.1>:

static int16_t mcp23017_i2c_read(uint8_t SLAVE_ADDR, uint16_t Addr, uint8_t* pData, uint32_t Cnt)
 800db58:	e92d 41f3 	stmdb	sp!, {r0, r1, r4, r5, r6, r7, r8, lr}
 800db5c:	4605      	mov	r5, r0
 800db5e:	4617      	mov	r7, r2
 800db60:	24c9      	movs	r4, #201	; 0xc9
		return -1;
	}

	GPIO_I2CStart();

	GPIO_I2CWriteByte(SLAVE_ADDR & 0xFE);
 800db62:	f000 08fe 	and.w	r8, r0, #254	; 0xfe
		GPIO_I2CStop();
		goto RETRY;
	}

	//Device Address 8bit
	TempData8 = (uint8_t)(Addr & 0x00FF);
 800db66:	b2ce      	uxtb	r6, r1
 800db68:	3c01      	subs	r4, #1
 800db6a:	b2a4      	uxth	r4, r4
	if(Retry > RETRY_CNT)
 800db6c:	b954      	cbnz	r4, 800db84 <mcp23017_i2c_read.constprop.1+0x2c>
		LCD_DbgLog("[Err] Read Ack Fail!\n");
 800db6e:	4b1b      	ldr	r3, [pc, #108]	; (800dbdc <mcp23017_i2c_read.constprop.1+0x84>)
 800db70:	481b      	ldr	r0, [pc, #108]	; (800dbe0 <mcp23017_i2c_read.constprop.1+0x88>)
 800db72:	2204      	movs	r2, #4
 800db74:	601a      	str	r2, [r3, #0]
 800db76:	f001 fc4b 	bl	800f410 <puts>
		return -1;
 800db7a:	f04f 30ff 	mov.w	r0, #4294967295
	}

	GPIO_I2CStop();

	return rv;
}
 800db7e:	b002      	add	sp, #8
 800db80:	e8bd 81f0 	ldmia.w	sp!, {r4, r5, r6, r7, r8, pc}
	GPIO_I2CStart();
 800db84:	f7ff ff0e 	bl	800d9a4 <GPIO_I2CStart>
	GPIO_I2CWriteByte(SLAVE_ADDR & 0xFE);
 800db88:	4640      	mov	r0, r8
 800db8a:	f7ff ff1a 	bl	800d9c2 <GPIO_I2CWriteByte>
	if(GPIO_I2CIsAck() == 0)
 800db8e:	f7ff ff31 	bl	800d9f4 <GPIO_I2CIsAck>
 800db92:	b910      	cbnz	r0, 800db9a <mcp23017_i2c_read.constprop.1+0x42>
		GPIO_I2CStop();
 800db94:	f7ff ff4a 	bl	800da2c <GPIO_I2CStop>
 800db98:	e7e6      	b.n	800db68 <mcp23017_i2c_read.constprop.1+0x10>
	GPIO_I2CWriteByte(TempData8);
 800db9a:	4630      	mov	r0, r6
	TempData8 = (uint8_t)(Addr & 0x00FF);
 800db9c:	f88d 6007 	strb.w	r6, [sp, #7]
	GPIO_I2CWriteByte(TempData8);
 800dba0:	f7ff ff0f 	bl	800d9c2 <GPIO_I2CWriteByte>
	if(GPIO_I2CIsAck() == 0)
 800dba4:	f7ff ff26 	bl	800d9f4 <GPIO_I2CIsAck>
 800dba8:	2800      	cmp	r0, #0
 800dbaa:	d0f3      	beq.n	800db94 <mcp23017_i2c_read.constprop.1+0x3c>
	GPIO_I2CStart(); //I2C Restart
 800dbac:	f7ff fefa 	bl	800d9a4 <GPIO_I2CStart>
	GPIO_I2CWriteByte((SLAVE_ADDR & 0xFE) | 0x01);
 800dbb0:	f045 0001 	orr.w	r0, r5, #1
 800dbb4:	f7ff ff05 	bl	800d9c2 <GPIO_I2CWriteByte>
	if(GPIO_I2CIsAck() == 0)
 800dbb8:	f7ff ff1c 	bl	800d9f4 <GPIO_I2CIsAck>
 800dbbc:	2800      	cmp	r0, #0
 800dbbe:	d0e9      	beq.n	800db94 <mcp23017_i2c_read.constprop.1+0x3c>
		GPIO_I2CReadByte(&TempData8);
 800dbc0:	f10d 0007 	add.w	r0, sp, #7
 800dbc4:	f7ff ff7e 	bl	800dac4 <GPIO_I2CReadByte>
		*pData++ = TempData8;
 800dbc8:	f89d 3007 	ldrb.w	r3, [sp, #7]
 800dbcc:	703b      	strb	r3, [r7, #0]
			GPIO_I2COutNoAck();
 800dbce:	f7ff ff9d 	bl	800db0c <GPIO_I2COutNoAck>
	GPIO_I2CStop();
 800dbd2:	f7ff ff2b 	bl	800da2c <GPIO_I2CStop>
	return rv;
 800dbd6:	2001      	movs	r0, #1
 800dbd8:	e7d1      	b.n	800db7e <mcp23017_i2c_read.constprop.1+0x26>
 800dbda:	bf00      	nop
 800dbdc:	20007018 	.word	0x20007018
 800dbe0:	08012628 	.word	0x08012628

0800dbe4 <Set_Bit>:
error:
	return -1;
}

static void Set_Bit(uint8_t slv_addr, uint8_t port, uint8_t value)
{
 800dbe4:	b573      	push	{r0, r1, r4, r5, r6, lr}
 800dbe6:	4614      	mov	r4, r2
	uint8_t rbuf = 0;
 800dbe8:	aa02      	add	r2, sp, #8
 800dbea:	2300      	movs	r3, #0
 800dbec:	f802 3d01 	strb.w	r3, [r2, #-1]!
{
 800dbf0:	4606      	mov	r6, r0
	uint8_t wbuf = 0;

	mcp23017_i2c_read(slv_addr, port, &rbuf, 1);
 800dbf2:	460d      	mov	r5, r1
 800dbf4:	f7ff ffb0 	bl	800db58 <mcp23017_i2c_read.constprop.1>
	if(value > 7) value = 0;
 800dbf8:	2c08      	cmp	r4, #8
 800dbfa:	bf28      	it	cs
 800dbfc:	2400      	movcs	r4, #0

	wbuf = rbuf | (0x01 << value);
 800dbfe:	f89d 3007 	ldrb.w	r3, [sp, #7]
 800dc02:	2201      	movs	r2, #1
 800dc04:	40a2      	lsls	r2, r4
 800dc06:	431a      	orrs	r2, r3

	mcp23017_i2c_write(slv_addr, port, wbuf);
 800dc08:	b2d2      	uxtb	r2, r2
 800dc0a:	4629      	mov	r1, r5
 800dc0c:	4630      	mov	r0, r6
 800dc0e:	f7ff ff25 	bl	800da5c <mcp23017_i2c_write>
}
 800dc12:	b002      	add	sp, #8
 800dc14:	bd70      	pop	{r4, r5, r6, pc}

0800dc16 <Clear_Bit>:

static void Clear_Bit(uint8_t slv_addr, uint8_t port, uint8_t value)
{
 800dc16:	b573      	push	{r0, r1, r4, r5, r6, lr}
 800dc18:	4614      	mov	r4, r2
	uint8_t rbuf = 0;
 800dc1a:	aa02      	add	r2, sp, #8
 800dc1c:	2300      	movs	r3, #0
 800dc1e:	f802 3d01 	strb.w	r3, [r2, #-1]!
{
 800dc22:	4606      	mov	r6, r0
	uint8_t wbuf = 0;

	mcp23017_i2c_read(slv_addr, port, &rbuf, 1);
 800dc24:	460d      	mov	r5, r1
 800dc26:	f7ff ff97 	bl	800db58 <mcp23017_i2c_read.constprop.1>

	if(value > 7) value = 0;
 800dc2a:	2c08      	cmp	r4, #8
 800dc2c:	bf28      	it	cs
 800dc2e:	2400      	movcs	r4, #0

	wbuf = rbuf & ~(0x01 << value);
 800dc30:	2201      	movs	r2, #1
 800dc32:	fa02 f404 	lsl.w	r4, r2, r4
 800dc36:	f89d 2007 	ldrb.w	r2, [sp, #7]

	mcp23017_i2c_write(slv_addr, port, wbuf);
 800dc3a:	4629      	mov	r1, r5
 800dc3c:	ea22 0204 	bic.w	r2, r2, r4
 800dc40:	4630      	mov	r0, r6
 800dc42:	f7ff ff0b 	bl	800da5c <mcp23017_i2c_write>
}
 800dc46:	b002      	add	sp, #8
 800dc48:	bd70      	pop	{r4, r5, r6, pc}
	...

0800dc4c <mcp23017_init>:
{
 800dc4c:	b530      	push	{r4, r5, lr}
	if(mcp23017_i2c_write(device_address, 0x0A, 0x80) != 1) //ICONA.BANK = 1
 800dc4e:	2280      	movs	r2, #128	; 0x80
{
 800dc50:	b087      	sub	sp, #28
	if(mcp23017_i2c_write(device_address, 0x0A, 0x80) != 1) //ICONA.BANK = 1
 800dc52:	210a      	movs	r1, #10
{
 800dc54:	4604      	mov	r4, r0
	if(mcp23017_i2c_write(device_address, 0x0A, 0x80) != 1) //ICONA.BANK = 1
 800dc56:	f7ff ff01 	bl	800da5c <mcp23017_i2c_write>
 800dc5a:	2801      	cmp	r0, #1
 800dc5c:	d002      	beq.n	800dc64 <mcp23017_init+0x18>
	return -1;
 800dc5e:	f04f 30ff 	mov.w	r0, #4294967295
		goto err;
 800dc62:	e046      	b.n	800dcf2 <mcp23017_init+0xa6>
	if(mcp23017_i2c_write(device_address, 0x0B, 0x80) != 1) //ICONB.BANK = 1
 800dc64:	2280      	movs	r2, #128	; 0x80
 800dc66:	210b      	movs	r1, #11
 800dc68:	4620      	mov	r0, r4
 800dc6a:	f7ff fef7 	bl	800da5c <mcp23017_i2c_write>
 800dc6e:	2801      	cmp	r0, #1
 800dc70:	d1f5      	bne.n	800dc5e <mcp23017_init+0x12>
	if(mcp23017_i2c_write(device_address, 0x00, 0x00) != 1) //PORTA ALL OUTPUT
 800dc72:	2200      	movs	r2, #0
 800dc74:	4611      	mov	r1, r2
 800dc76:	4620      	mov	r0, r4
 800dc78:	f7ff fef0 	bl	800da5c <mcp23017_i2c_write>
 800dc7c:	2801      	cmp	r0, #1
 800dc7e:	d1ee      	bne.n	800dc5e <mcp23017_init+0x12>
	if(mcp23017_i2c_write(device_address, 0x10, 0x00) != 1) //PORTB ALL OUTPUT
 800dc80:	2200      	movs	r2, #0
 800dc82:	2110      	movs	r1, #16
 800dc84:	4620      	mov	r0, r4
 800dc86:	f7ff fee9 	bl	800da5c <mcp23017_i2c_write>
 800dc8a:	2801      	cmp	r0, #1
 800dc8c:	d1e7      	bne.n	800dc5e <mcp23017_init+0x12>
	if(mcp23017_i2c_write(device_address, PA, 0x00) != 1) //PORTA ALL LOW
 800dc8e:	2200      	movs	r2, #0
 800dc90:	2109      	movs	r1, #9
 800dc92:	4620      	mov	r0, r4
 800dc94:	f7ff fee2 	bl	800da5c <mcp23017_i2c_write>
 800dc98:	2801      	cmp	r0, #1
 800dc9a:	d1e0      	bne.n	800dc5e <mcp23017_init+0x12>
	if(mcp23017_i2c_write(device_address, PB, 0x00) != 1)  //PORTB ALL LOW
 800dc9c:	2200      	movs	r2, #0
 800dc9e:	2119      	movs	r1, #25
 800dca0:	4620      	mov	r0, r4
 800dca2:	f7ff fedb 	bl	800da5c <mcp23017_i2c_write>
 800dca6:	2801      	cmp	r0, #1
 800dca8:	d1d9      	bne.n	800dc5e <mcp23017_init+0x12>
	if(mcp23017_i2c_read(device_address, 0x05, &rbuf[0], 1) != 1) //ICONA
 800dcaa:	466a      	mov	r2, sp
 800dcac:	2105      	movs	r1, #5
 800dcae:	4620      	mov	r0, r4
 800dcb0:	f7ff ff52 	bl	800db58 <mcp23017_i2c_read.constprop.1>
 800dcb4:	2801      	cmp	r0, #1
 800dcb6:	d1d2      	bne.n	800dc5e <mcp23017_init+0x12>
	if(mcp23017_i2c_read(device_address, 0x15, &rbuf[1], 1) != 1) //ICONB
 800dcb8:	f10d 0201 	add.w	r2, sp, #1
 800dcbc:	2115      	movs	r1, #21
 800dcbe:	4620      	mov	r0, r4
 800dcc0:	f7ff ff4a 	bl	800db58 <mcp23017_i2c_read.constprop.1>
 800dcc4:	2801      	cmp	r0, #1
 800dcc6:	d1ca      	bne.n	800dc5e <mcp23017_init+0x12>
	if((rbuf[0] == 0x80) && (rbuf[1] == 0x80))
 800dcc8:	f89d 3000 	ldrb.w	r3, [sp]
 800dccc:	4d10      	ldr	r5, [pc, #64]	; (800dd10 <mcp23017_init+0xc4>)
 800dcce:	2b80      	cmp	r3, #128	; 0x80
 800dcd0:	d111      	bne.n	800dcf6 <mcp23017_init+0xaa>
 800dcd2:	f89d 3001 	ldrb.w	r3, [sp, #1]
 800dcd6:	2b80      	cmp	r3, #128	; 0x80
 800dcd8:	d10d      	bne.n	800dcf6 <mcp23017_init+0xaa>
		LCD_OkLog("0x%x CHIP Read OK\n", device_address);
 800dcda:	2302      	movs	r3, #2
 800dcdc:	480d      	ldr	r0, [pc, #52]	; (800dd14 <mcp23017_init+0xc8>)
 800dcde:	602b      	str	r3, [r5, #0]
 800dce0:	f001 fb22 	bl	800f328 <iprintf>
 800dce4:	4621      	mov	r1, r4
 800dce6:	480c      	ldr	r0, [pc, #48]	; (800dd18 <mcp23017_init+0xcc>)
 800dce8:	f001 fb1e 	bl	800f328 <iprintf>
 800dcec:	2300      	movs	r3, #0
 800dcee:	602b      	str	r3, [r5, #0]
		return 1;
 800dcf0:	2001      	movs	r0, #1
}
 800dcf2:	b007      	add	sp, #28
 800dcf4:	bd30      	pop	{r4, r5, pc}
		LCD_ErrLog("0x%x CHIP Read Err\n", device_address);
 800dcf6:	2301      	movs	r3, #1
 800dcf8:	4808      	ldr	r0, [pc, #32]	; (800dd1c <mcp23017_init+0xd0>)
 800dcfa:	602b      	str	r3, [r5, #0]
 800dcfc:	f001 fb14 	bl	800f328 <iprintf>
 800dd00:	4621      	mov	r1, r4
 800dd02:	4807      	ldr	r0, [pc, #28]	; (800dd20 <mcp23017_init+0xd4>)
 800dd04:	f001 fb10 	bl	800f328 <iprintf>
 800dd08:	2300      	movs	r3, #0
 800dd0a:	602b      	str	r3, [r5, #0]
 800dd0c:	e7a7      	b.n	800dc5e <mcp23017_init+0x12>
 800dd0e:	bf00      	nop
 800dd10:	20007018 	.word	0x20007018
 800dd14:	08011e58 	.word	0x08011e58
 800dd18:	08012661 	.word	0x08012661
 800dd1c:	08011db6 	.word	0x08011db6
 800dd20:	08012674 	.word	0x08012674

0800dd24 <eep_256_burst_write>:
{
 800dd24:	b5f8      	push	{r3, r4, r5, r6, r7, lr}
 800dd26:	460f      	mov	r7, r1
 800dd28:	4616      	mov	r6, r2
	tmp16.u16tmp = (addr & 0x0000FFFF);
 800dd2a:	b285      	uxth	r5, r0
 800dd2c:	24c9      	movs	r4, #201	; 0xc9
 800dd2e:	3c01      	subs	r4, #1
 800dd30:	b2a4      	uxth	r4, r4
	if(Retry > RETRY_CNT)
 800dd32:	b944      	cbnz	r4, 800dd46 <eep_256_burst_write+0x22>
		LCD_DbgLog("WriteRegister [Err] Write Ack fail!\n");
 800dd34:	4b19      	ldr	r3, [pc, #100]	; (800dd9c <eep_256_burst_write+0x78>)
 800dd36:	481a      	ldr	r0, [pc, #104]	; (800dda0 <eep_256_burst_write+0x7c>)
 800dd38:	2204      	movs	r2, #4
 800dd3a:	601a      	str	r2, [r3, #0]
 800dd3c:	f001 fb68 	bl	800f410 <puts>
	return -1;
 800dd40:	f04f 30ff 	mov.w	r0, #4294967295
 800dd44:	bdf8      	pop	{r3, r4, r5, r6, r7, pc}
	GPIO_I2CStart();
 800dd46:	f7ff fe2d 	bl	800d9a4 <GPIO_I2CStart>
	GPIO_I2CWriteByte(slv_addr & 0xFE);
 800dd4a:	20a8      	movs	r0, #168	; 0xa8
 800dd4c:	f7ff fe39 	bl	800d9c2 <GPIO_I2CWriteByte>
	if(GPIO_I2CIsAck() == 0)
 800dd50:	f7ff fe50 	bl	800d9f4 <GPIO_I2CIsAck>
 800dd54:	b910      	cbnz	r0, 800dd5c <eep_256_burst_write+0x38>
		GPIO_I2CStop();
 800dd56:	f7ff fe69 	bl	800da2c <GPIO_I2CStop>
		goto RETRY;
 800dd5a:	e7e8      	b.n	800dd2e <eep_256_burst_write+0xa>
	GPIO_I2CWriteByte(tmp16.byte.byte2);
 800dd5c:	0a28      	lsrs	r0, r5, #8
 800dd5e:	f7ff fe30 	bl	800d9c2 <GPIO_I2CWriteByte>
	if(GPIO_I2CIsAck() == 0)
 800dd62:	f7ff fe47 	bl	800d9f4 <GPIO_I2CIsAck>
 800dd66:	2800      	cmp	r0, #0
 800dd68:	d0ea      	beq.n	800dd40 <eep_256_burst_write+0x1c>
	GPIO_I2CWriteByte(tmp16.byte.byte1);
 800dd6a:	b2e8      	uxtb	r0, r5
 800dd6c:	f7ff fe29 	bl	800d9c2 <GPIO_I2CWriteByte>
	if(GPIO_I2CIsAck() == 0)
 800dd70:	f7ff fe40 	bl	800d9f4 <GPIO_I2CIsAck>
 800dd74:	2800      	cmp	r0, #0
 800dd76:	d0e3      	beq.n	800dd40 <eep_256_burst_write+0x1c>
 800dd78:	2500      	movs	r5, #0
 800dd7a:	1ca8      	adds	r0, r5, #2
	for(int a=0; a<Size; a++)
 800dd7c:	42b5      	cmp	r5, r6
 800dd7e:	b204      	sxth	r4, r0
 800dd80:	db03      	blt.n	800dd8a <eep_256_burst_write+0x66>
	GPIO_I2CStop();
 800dd82:	f7ff fe53 	bl	800da2c <GPIO_I2CStop>
	return rv;
 800dd86:	4620      	mov	r0, r4
}
 800dd88:	bdf8      	pop	{r3, r4, r5, r6, r7, pc}
		GPIO_I2CWriteByte(*MemTarget);
 800dd8a:	5d78      	ldrb	r0, [r7, r5]
 800dd8c:	f7ff fe19 	bl	800d9c2 <GPIO_I2CWriteByte>
		if(GPIO_I2CIsAck() == 0)
 800dd90:	f7ff fe30 	bl	800d9f4 <GPIO_I2CIsAck>
 800dd94:	2800      	cmp	r0, #0
 800dd96:	d0d3      	beq.n	800dd40 <eep_256_burst_write+0x1c>
	for(int a=0; a<Size; a++)
 800dd98:	3501      	adds	r5, #1
 800dd9a:	e7ee      	b.n	800dd7a <eep_256_burst_write+0x56>
 800dd9c:	20007018 	.word	0x20007018
 800dda0:	0801263d 	.word	0x0801263d

0800dda4 <eep_256_burst_read>:
{
 800dda4:	e92d 43f7 	stmdb	sp!, {r0, r1, r2, r4, r5, r6, r7, r8, r9, lr}
	tmp16.u16tmp = (addr & 0x0000FFFF);
 800dda8:	b280      	uxth	r0, r0
{
 800ddaa:	4688      	mov	r8, r1
 800ddac:	4617      	mov	r7, r2
	tmp16.u16tmp = (addr & 0x0000FFFF);
 800ddae:	25c9      	movs	r5, #201	; 0xc9
	int16_t rv = 0;
 800ddb0:	2400      	movs	r4, #0
	GPIO_I2CWriteByte(tmp16.byte.byte2);
 800ddb2:	f3c0 2607 	ubfx	r6, r0, #8, #8
	GPIO_I2CWriteByte(tmp16.byte.byte1);
 800ddb6:	fa5f f980 	uxtb.w	r9, r0
 800ddba:	3d01      	subs	r5, #1
 800ddbc:	b2ad      	uxth	r5, r5
	if(Retry > RETRY_CNT)
 800ddbe:	b955      	cbnz	r5, 800ddd6 <eep_256_burst_read+0x32>
		LCD_DbgLog("WriteRegister [Err] Write Ack fail!\n");
 800ddc0:	4b26      	ldr	r3, [pc, #152]	; (800de5c <eep_256_burst_read+0xb8>)
 800ddc2:	4827      	ldr	r0, [pc, #156]	; (800de60 <eep_256_burst_read+0xbc>)
 800ddc4:	2204      	movs	r2, #4
 800ddc6:	601a      	str	r2, [r3, #0]
 800ddc8:	f001 fb22 	bl	800f410 <puts>
	return -1;
 800ddcc:	f04f 30ff 	mov.w	r0, #4294967295
}
 800ddd0:	b003      	add	sp, #12
 800ddd2:	e8bd 83f0 	ldmia.w	sp!, {r4, r5, r6, r7, r8, r9, pc}
	GPIO_I2CStart();
 800ddd6:	f7ff fde5 	bl	800d9a4 <GPIO_I2CStart>
	GPIO_I2CWriteByte(slv_addr & 0xFE);
 800ddda:	20a8      	movs	r0, #168	; 0xa8
 800dddc:	f7ff fdf1 	bl	800d9c2 <GPIO_I2CWriteByte>
	if(GPIO_I2CIsAck() == 0)
 800dde0:	f7ff fe08 	bl	800d9f4 <GPIO_I2CIsAck>
 800dde4:	b910      	cbnz	r0, 800ddec <eep_256_burst_read+0x48>
		GPIO_I2CStop();
 800dde6:	f7ff fe21 	bl	800da2c <GPIO_I2CStop>
		goto RETRY;
 800ddea:	e7e6      	b.n	800ddba <eep_256_burst_read+0x16>
	GPIO_I2CWriteByte(tmp16.byte.byte2);
 800ddec:	4630      	mov	r0, r6
 800ddee:	f7ff fde8 	bl	800d9c2 <GPIO_I2CWriteByte>
	if(GPIO_I2CIsAck() == 0)
 800ddf2:	f7ff fdff 	bl	800d9f4 <GPIO_I2CIsAck>
 800ddf6:	2800      	cmp	r0, #0
 800ddf8:	d0e8      	beq.n	800ddcc <eep_256_burst_read+0x28>
	GPIO_I2CWriteByte(tmp16.byte.byte1);
 800ddfa:	4648      	mov	r0, r9
		rv++;
 800ddfc:	b2a4      	uxth	r4, r4
	GPIO_I2CWriteByte(tmp16.byte.byte1);
 800ddfe:	f7ff fde0 	bl	800d9c2 <GPIO_I2CWriteByte>
	if(GPIO_I2CIsAck() == 0)
 800de02:	f7ff fdf7 	bl	800d9f4 <GPIO_I2CIsAck>
 800de06:	2800      	cmp	r0, #0
 800de08:	d0e0      	beq.n	800ddcc <eep_256_burst_read+0x28>
		rv++;
 800de0a:	3402      	adds	r4, #2
	GPIO_I2CStart(); //Repeat Start
 800de0c:	f7ff fdca 	bl	800d9a4 <GPIO_I2CStart>
	GPIO_I2CWriteByte((slv_addr & 0xFE) | 0x01);
 800de10:	20a9      	movs	r0, #169	; 0xa9
		rv++;
 800de12:	b224      	sxth	r4, r4
	GPIO_I2CWriteByte((slv_addr & 0xFE) | 0x01);
 800de14:	f7ff fdd5 	bl	800d9c2 <GPIO_I2CWriteByte>
	if(GPIO_I2CIsAck() == 0)
 800de18:	f7ff fdec 	bl	800d9f4 <GPIO_I2CIsAck>
 800de1c:	2800      	cmp	r0, #0
 800de1e:	d0e2      	beq.n	800dde6 <eep_256_burst_read+0x42>
 800de20:	4646      	mov	r6, r8
		if(i==(Size-1))
 800de22:	f107 39ff 	add.w	r9, r7, #4294967295
 800de26:	eba6 0508 	sub.w	r5, r6, r8
 800de2a:	b2ed      	uxtb	r5, r5
	for(uint8_t i=0; i<Size; i++)
 800de2c:	42bd      	cmp	r5, r7
 800de2e:	d20d      	bcs.n	800de4c <eep_256_burst_read+0xa8>
		GPIO_I2CReadByte(&TempData8);
 800de30:	f10d 0007 	add.w	r0, sp, #7
 800de34:	f7ff fe46 	bl	800dac4 <GPIO_I2CReadByte>
 800de38:	3401      	adds	r4, #1
		*MemTarget++ = TempData8;
 800de3a:	f89d 3007 	ldrb.w	r3, [sp, #7]
 800de3e:	f806 3b01 	strb.w	r3, [r6], #1
		if(i==(Size-1))
 800de42:	454d      	cmp	r5, r9
 800de44:	b224      	sxth	r4, r4
 800de46:	d105      	bne.n	800de54 <eep_256_burst_read+0xb0>
			GPIO_I2COutNoAck();
 800de48:	f7ff fe60 	bl	800db0c <GPIO_I2COutNoAck>
	GPIO_I2CStop();
 800de4c:	f7ff fdee 	bl	800da2c <GPIO_I2CStop>
	return rv;
 800de50:	4620      	mov	r0, r4
 800de52:	e7bd      	b.n	800ddd0 <eep_256_burst_read+0x2c>
			GPIO_I2COutAck();
 800de54:	f7ff fe6d 	bl	800db32 <GPIO_I2COutAck>
 800de58:	e7e5      	b.n	800de26 <eep_256_burst_read+0x82>
 800de5a:	bf00      	nop
 800de5c:	20007018 	.word	0x20007018
 800de60:	0801263d 	.word	0x0801263d

0800de64 <DFF_Data>:

void DFF_Data(uint8_t data)
{
	mcp23017_i2c_write(SLAVE0, PA, data);
 800de64:	4602      	mov	r2, r0
 800de66:	2109      	movs	r1, #9
 800de68:	2040      	movs	r0, #64	; 0x40
 800de6a:	f7ff bdf7 	b.w	800da5c <mcp23017_i2c_write>

0800de6e <DFF1>:
}

//DFF1 ~ DFF20 => CH CNT-I
void DFF1(void){Clear_Bit(SLAVE0, PB, 0); DFF_DELAY; Set_Bit(SLAVE0, PB, 0); DFF_DELAY;}
 800de6e:	b508      	push	{r3, lr}
 800de70:	2200      	movs	r2, #0
 800de72:	2119      	movs	r1, #25
 800de74:	2040      	movs	r0, #64	; 0x40
 800de76:	f7ff fece 	bl	800dc16 <Clear_Bit>
 800de7a:	f7ff fd53 	bl	800d924 <iic_delay_us>
 800de7e:	2200      	movs	r2, #0
 800de80:	2119      	movs	r1, #25
 800de82:	2040      	movs	r0, #64	; 0x40
 800de84:	f7ff feae 	bl	800dbe4 <Set_Bit>
 800de88:	e8bd 4008 	ldmia.w	sp!, {r3, lr}
 800de8c:	f7ff bd4a 	b.w	800d924 <iic_delay_us>

0800de90 <DFF2>:
void DFF2(void){Clear_Bit(SLAVE0, PB, 1); DFF_DELAY; Set_Bit(SLAVE0, PB, 1); DFF_DELAY;}
 800de90:	b508      	push	{r3, lr}
 800de92:	2201      	movs	r2, #1
 800de94:	2119      	movs	r1, #25
 800de96:	2040      	movs	r0, #64	; 0x40
 800de98:	f7ff febd 	bl	800dc16 <Clear_Bit>
 800de9c:	f7ff fd42 	bl	800d924 <iic_delay_us>
 800dea0:	2201      	movs	r2, #1
 800dea2:	2119      	movs	r1, #25
 800dea4:	2040      	movs	r0, #64	; 0x40
 800dea6:	f7ff fe9d 	bl	800dbe4 <Set_Bit>
 800deaa:	e8bd 4008 	ldmia.w	sp!, {r3, lr}
 800deae:	f7ff bd39 	b.w	800d924 <iic_delay_us>

0800deb2 <DFF3>:
void DFF3(void){Clear_Bit(SLAVE0, PB, 2); DFF_DELAY; Set_Bit(SLAVE0, PB, 2); DFF_DELAY;}
 800deb2:	b508      	push	{r3, lr}
 800deb4:	2202      	movs	r2, #2
 800deb6:	2119      	movs	r1, #25
 800deb8:	2040      	movs	r0, #64	; 0x40
 800deba:	f7ff feac 	bl	800dc16 <Clear_Bit>
 800debe:	f7ff fd31 	bl	800d924 <iic_delay_us>
 800dec2:	2202      	movs	r2, #2
 800dec4:	2119      	movs	r1, #25
 800dec6:	2040      	movs	r0, #64	; 0x40
 800dec8:	f7ff fe8c 	bl	800dbe4 <Set_Bit>
 800decc:	e8bd 4008 	ldmia.w	sp!, {r3, lr}
 800ded0:	f7ff bd28 	b.w	800d924 <iic_delay_us>

0800ded4 <DFF4>:
void DFF4(void){Clear_Bit(SLAVE0, PB, 3); DFF_DELAY; Set_Bit(SLAVE0, PB, 3); DFF_DELAY;}
 800ded4:	b508      	push	{r3, lr}
 800ded6:	2203      	movs	r2, #3
 800ded8:	2119      	movs	r1, #25
 800deda:	2040      	movs	r0, #64	; 0x40
 800dedc:	f7ff fe9b 	bl	800dc16 <Clear_Bit>
 800dee0:	f7ff fd20 	bl	800d924 <iic_delay_us>
 800dee4:	2203      	movs	r2, #3
 800dee6:	2119      	movs	r1, #25
 800dee8:	2040      	movs	r0, #64	; 0x40
 800deea:	f7ff fe7b 	bl	800dbe4 <Set_Bit>
 800deee:	e8bd 4008 	ldmia.w	sp!, {r3, lr}
 800def2:	f7ff bd17 	b.w	800d924 <iic_delay_us>

0800def6 <DFF5>:
void DFF5(void){Clear_Bit(SLAVE0, PB, 4); DFF_DELAY; Set_Bit(SLAVE0, PB, 4); DFF_DELAY;}
 800def6:	b508      	push	{r3, lr}
 800def8:	2204      	movs	r2, #4
 800defa:	2119      	movs	r1, #25
 800defc:	2040      	movs	r0, #64	; 0x40
 800defe:	f7ff fe8a 	bl	800dc16 <Clear_Bit>
 800df02:	f7ff fd0f 	bl	800d924 <iic_delay_us>
 800df06:	2204      	movs	r2, #4
 800df08:	2119      	movs	r1, #25
 800df0a:	2040      	movs	r0, #64	; 0x40
 800df0c:	f7ff fe6a 	bl	800dbe4 <Set_Bit>
 800df10:	e8bd 4008 	ldmia.w	sp!, {r3, lr}
 800df14:	f7ff bd06 	b.w	800d924 <iic_delay_us>

0800df18 <DFF6>:
void DFF6(void){Clear_Bit(SLAVE0, PB, 5); DFF_DELAY; Set_Bit(SLAVE0, PB, 5); DFF_DELAY;}
 800df18:	b508      	push	{r3, lr}
 800df1a:	2205      	movs	r2, #5
 800df1c:	2119      	movs	r1, #25
 800df1e:	2040      	movs	r0, #64	; 0x40
 800df20:	f7ff fe79 	bl	800dc16 <Clear_Bit>
 800df24:	f7ff fcfe 	bl	800d924 <iic_delay_us>
 800df28:	2205      	movs	r2, #5
 800df2a:	2119      	movs	r1, #25
 800df2c:	2040      	movs	r0, #64	; 0x40
 800df2e:	f7ff fe59 	bl	800dbe4 <Set_Bit>
 800df32:	e8bd 4008 	ldmia.w	sp!, {r3, lr}
 800df36:	f7ff bcf5 	b.w	800d924 <iic_delay_us>

0800df3a <DFF7>:
void DFF7(void){Clear_Bit(SLAVE0, PB, 6); DFF_DELAY; Set_Bit(SLAVE0, PB, 6); DFF_DELAY;}
 800df3a:	b508      	push	{r3, lr}
 800df3c:	2206      	movs	r2, #6
 800df3e:	2119      	movs	r1, #25
 800df40:	2040      	movs	r0, #64	; 0x40
 800df42:	f7ff fe68 	bl	800dc16 <Clear_Bit>
 800df46:	f7ff fced 	bl	800d924 <iic_delay_us>
 800df4a:	2206      	movs	r2, #6
 800df4c:	2119      	movs	r1, #25
 800df4e:	2040      	movs	r0, #64	; 0x40
 800df50:	f7ff fe48 	bl	800dbe4 <Set_Bit>
 800df54:	e8bd 4008 	ldmia.w	sp!, {r3, lr}
 800df58:	f7ff bce4 	b.w	800d924 <iic_delay_us>

0800df5c <DFF8>:
void DFF8(void){Clear_Bit(SLAVE0, PB, 7); DFF_DELAY; Set_Bit(SLAVE0, PB, 7); DFF_DELAY;}
 800df5c:	b508      	push	{r3, lr}
 800df5e:	2207      	movs	r2, #7
 800df60:	2119      	movs	r1, #25
 800df62:	2040      	movs	r0, #64	; 0x40
 800df64:	f7ff fe57 	bl	800dc16 <Clear_Bit>
 800df68:	f7ff fcdc 	bl	800d924 <iic_delay_us>
 800df6c:	2207      	movs	r2, #7
 800df6e:	2119      	movs	r1, #25
 800df70:	2040      	movs	r0, #64	; 0x40
 800df72:	f7ff fe37 	bl	800dbe4 <Set_Bit>
 800df76:	e8bd 4008 	ldmia.w	sp!, {r3, lr}
 800df7a:	f7ff bcd3 	b.w	800d924 <iic_delay_us>

0800df7e <DFF9>:
void DFF9(void){Clear_Bit(SLAVE1, PA, 0); DFF_DELAY; Set_Bit(SLAVE1, PA, 0); DFF_DELAY;}
 800df7e:	b508      	push	{r3, lr}
 800df80:	2200      	movs	r2, #0
 800df82:	2109      	movs	r1, #9
 800df84:	2042      	movs	r0, #66	; 0x42
 800df86:	f7ff fe46 	bl	800dc16 <Clear_Bit>
 800df8a:	f7ff fccb 	bl	800d924 <iic_delay_us>
 800df8e:	2200      	movs	r2, #0
 800df90:	2109      	movs	r1, #9
 800df92:	2042      	movs	r0, #66	; 0x42
 800df94:	f7ff fe26 	bl	800dbe4 <Set_Bit>
 800df98:	e8bd 4008 	ldmia.w	sp!, {r3, lr}
 800df9c:	f7ff bcc2 	b.w	800d924 <iic_delay_us>

0800dfa0 <DFF10>:
void DFF10(void){Clear_Bit(SLAVE1, PA, 1); DFF_DELAY; Set_Bit(SLAVE1, PA, 1); DFF_DELAY;}
 800dfa0:	b508      	push	{r3, lr}
 800dfa2:	2201      	movs	r2, #1
 800dfa4:	2109      	movs	r1, #9
 800dfa6:	2042      	movs	r0, #66	; 0x42
 800dfa8:	f7ff fe35 	bl	800dc16 <Clear_Bit>
 800dfac:	f7ff fcba 	bl	800d924 <iic_delay_us>
 800dfb0:	2201      	movs	r2, #1
 800dfb2:	2109      	movs	r1, #9
 800dfb4:	2042      	movs	r0, #66	; 0x42
 800dfb6:	f7ff fe15 	bl	800dbe4 <Set_Bit>
 800dfba:	e8bd 4008 	ldmia.w	sp!, {r3, lr}
 800dfbe:	f7ff bcb1 	b.w	800d924 <iic_delay_us>

0800dfc2 <DFF11>:
void DFF11(void){Clear_Bit(SLAVE1, PA, 2); DFF_DELAY; Set_Bit(SLAVE1, PA, 2); DFF_DELAY;}
 800dfc2:	b508      	push	{r3, lr}
 800dfc4:	2202      	movs	r2, #2
 800dfc6:	2109      	movs	r1, #9
 800dfc8:	2042      	movs	r0, #66	; 0x42
 800dfca:	f7ff fe24 	bl	800dc16 <Clear_Bit>
 800dfce:	f7ff fca9 	bl	800d924 <iic_delay_us>
 800dfd2:	2202      	movs	r2, #2
 800dfd4:	2109      	movs	r1, #9
 800dfd6:	2042      	movs	r0, #66	; 0x42
 800dfd8:	f7ff fe04 	bl	800dbe4 <Set_Bit>
 800dfdc:	e8bd 4008 	ldmia.w	sp!, {r3, lr}
 800dfe0:	f7ff bca0 	b.w	800d924 <iic_delay_us>

0800dfe4 <DFF12>:
void DFF12(void){Clear_Bit(SLAVE1, PA, 3); DFF_DELAY; Set_Bit(SLAVE1, PA, 3); DFF_DELAY;}
 800dfe4:	b508      	push	{r3, lr}
 800dfe6:	2203      	movs	r2, #3
 800dfe8:	2109      	movs	r1, #9
 800dfea:	2042      	movs	r0, #66	; 0x42
 800dfec:	f7ff fe13 	bl	800dc16 <Clear_Bit>
 800dff0:	f7ff fc98 	bl	800d924 <iic_delay_us>
 800dff4:	2203      	movs	r2, #3
 800dff6:	2109      	movs	r1, #9
 800dff8:	2042      	movs	r0, #66	; 0x42
 800dffa:	f7ff fdf3 	bl	800dbe4 <Set_Bit>
 800dffe:	e8bd 4008 	ldmia.w	sp!, {r3, lr}
 800e002:	f7ff bc8f 	b.w	800d924 <iic_delay_us>

0800e006 <DFF13>:
void DFF13(void){Clear_Bit(SLAVE1, PA, 4); DFF_DELAY; Set_Bit(SLAVE1, PA, 4); DFF_DELAY;}
 800e006:	b508      	push	{r3, lr}
 800e008:	2204      	movs	r2, #4
 800e00a:	2109      	movs	r1, #9
 800e00c:	2042      	movs	r0, #66	; 0x42
 800e00e:	f7ff fe02 	bl	800dc16 <Clear_Bit>
 800e012:	f7ff fc87 	bl	800d924 <iic_delay_us>
 800e016:	2204      	movs	r2, #4
 800e018:	2109      	movs	r1, #9
 800e01a:	2042      	movs	r0, #66	; 0x42
 800e01c:	f7ff fde2 	bl	800dbe4 <Set_Bit>
 800e020:	e8bd 4008 	ldmia.w	sp!, {r3, lr}
 800e024:	f7ff bc7e 	b.w	800d924 <iic_delay_us>

0800e028 <DFF14>:
void DFF14(void){Clear_Bit(SLAVE1, PA, 5); DFF_DELAY; Set_Bit(SLAVE1, PA, 5); DFF_DELAY;}
 800e028:	b508      	push	{r3, lr}
 800e02a:	2205      	movs	r2, #5
 800e02c:	2109      	movs	r1, #9
 800e02e:	2042      	movs	r0, #66	; 0x42
 800e030:	f7ff fdf1 	bl	800dc16 <Clear_Bit>
 800e034:	f7ff fc76 	bl	800d924 <iic_delay_us>
 800e038:	2205      	movs	r2, #5
 800e03a:	2109      	movs	r1, #9
 800e03c:	2042      	movs	r0, #66	; 0x42
 800e03e:	f7ff fdd1 	bl	800dbe4 <Set_Bit>
 800e042:	e8bd 4008 	ldmia.w	sp!, {r3, lr}
 800e046:	f7ff bc6d 	b.w	800d924 <iic_delay_us>

0800e04a <DFF15>:
void DFF15(void){Clear_Bit(SLAVE1, PA, 6); DFF_DELAY; Set_Bit(SLAVE1, PA, 6); DFF_DELAY;}
 800e04a:	b508      	push	{r3, lr}
 800e04c:	2206      	movs	r2, #6
 800e04e:	2109      	movs	r1, #9
 800e050:	2042      	movs	r0, #66	; 0x42
 800e052:	f7ff fde0 	bl	800dc16 <Clear_Bit>
 800e056:	f7ff fc65 	bl	800d924 <iic_delay_us>
 800e05a:	2206      	movs	r2, #6
 800e05c:	2109      	movs	r1, #9
 800e05e:	2042      	movs	r0, #66	; 0x42
 800e060:	f7ff fdc0 	bl	800dbe4 <Set_Bit>
 800e064:	e8bd 4008 	ldmia.w	sp!, {r3, lr}
 800e068:	f7ff bc5c 	b.w	800d924 <iic_delay_us>

0800e06c <DFF16>:
void DFF16(void){Clear_Bit(SLAVE1, PA, 7); DFF_DELAY; Set_Bit(SLAVE1, PA, 7); DFF_DELAY;}
 800e06c:	b508      	push	{r3, lr}
 800e06e:	2207      	movs	r2, #7
 800e070:	2109      	movs	r1, #9
 800e072:	2042      	movs	r0, #66	; 0x42
 800e074:	f7ff fdcf 	bl	800dc16 <Clear_Bit>
 800e078:	f7ff fc54 	bl	800d924 <iic_delay_us>
 800e07c:	2207      	movs	r2, #7
 800e07e:	2109      	movs	r1, #9
 800e080:	2042      	movs	r0, #66	; 0x42
 800e082:	f7ff fdaf 	bl	800dbe4 <Set_Bit>
 800e086:	e8bd 4008 	ldmia.w	sp!, {r3, lr}
 800e08a:	f7ff bc4b 	b.w	800d924 <iic_delay_us>

0800e08e <DFF17>:
void DFF17(void){Clear_Bit(SLAVE1, PB, 0); DFF_DELAY; Set_Bit(SLAVE1, PB, 0); DFF_DELAY;}
 800e08e:	b508      	push	{r3, lr}
 800e090:	2200      	movs	r2, #0
 800e092:	2119      	movs	r1, #25
 800e094:	2042      	movs	r0, #66	; 0x42
 800e096:	f7ff fdbe 	bl	800dc16 <Clear_Bit>
 800e09a:	f7ff fc43 	bl	800d924 <iic_delay_us>
 800e09e:	2200      	movs	r2, #0
 800e0a0:	2119      	movs	r1, #25
 800e0a2:	2042      	movs	r0, #66	; 0x42
 800e0a4:	f7ff fd9e 	bl	800dbe4 <Set_Bit>
 800e0a8:	e8bd 4008 	ldmia.w	sp!, {r3, lr}
 800e0ac:	f7ff bc3a 	b.w	800d924 <iic_delay_us>

0800e0b0 <DFF18>:
void DFF18(void){Clear_Bit(SLAVE1, PB, 1); DFF_DELAY; Set_Bit(SLAVE1, PB, 1); DFF_DELAY;}
 800e0b0:	b508      	push	{r3, lr}
 800e0b2:	2201      	movs	r2, #1
 800e0b4:	2119      	movs	r1, #25
 800e0b6:	2042      	movs	r0, #66	; 0x42
 800e0b8:	f7ff fdad 	bl	800dc16 <Clear_Bit>
 800e0bc:	f7ff fc32 	bl	800d924 <iic_delay_us>
 800e0c0:	2201      	movs	r2, #1
 800e0c2:	2119      	movs	r1, #25
 800e0c4:	2042      	movs	r0, #66	; 0x42
 800e0c6:	f7ff fd8d 	bl	800dbe4 <Set_Bit>
 800e0ca:	e8bd 4008 	ldmia.w	sp!, {r3, lr}
 800e0ce:	f7ff bc29 	b.w	800d924 <iic_delay_us>

0800e0d2 <DFF19>:
void DFF19(void){Clear_Bit(SLAVE1, PB, 2); DFF_DELAY; Set_Bit(SLAVE1, PB, 2); DFF_DELAY;}
 800e0d2:	b508      	push	{r3, lr}
 800e0d4:	2202      	movs	r2, #2
 800e0d6:	2119      	movs	r1, #25
 800e0d8:	2042      	movs	r0, #66	; 0x42
 800e0da:	f7ff fd9c 	bl	800dc16 <Clear_Bit>
 800e0de:	f7ff fc21 	bl	800d924 <iic_delay_us>
 800e0e2:	2202      	movs	r2, #2
 800e0e4:	2119      	movs	r1, #25
 800e0e6:	2042      	movs	r0, #66	; 0x42
 800e0e8:	f7ff fd7c 	bl	800dbe4 <Set_Bit>
 800e0ec:	e8bd 4008 	ldmia.w	sp!, {r3, lr}
 800e0f0:	f7ff bc18 	b.w	800d924 <iic_delay_us>

0800e0f4 <DFF20>:
void DFF20(void){Clear_Bit(SLAVE1, PB, 3); DFF_DELAY; Set_Bit(SLAVE1, PB, 3); DFF_DELAY;}
 800e0f4:	b508      	push	{r3, lr}
 800e0f6:	2203      	movs	r2, #3
 800e0f8:	2119      	movs	r1, #25
 800e0fa:	2042      	movs	r0, #66	; 0x42
 800e0fc:	f7ff fd8b 	bl	800dc16 <Clear_Bit>
 800e100:	f7ff fc10 	bl	800d924 <iic_delay_us>
 800e104:	2203      	movs	r2, #3
 800e106:	2119      	movs	r1, #25
 800e108:	2042      	movs	r0, #66	; 0x42
 800e10a:	f7ff fd6b 	bl	800dbe4 <Set_Bit>
 800e10e:	e8bd 4008 	ldmia.w	sp!, {r3, lr}
 800e112:	f7ff bc07 	b.w	800d924 <iic_delay_us>

0800e116 <DFF21>:

//DFF21 ~ DFF40 => CH CNT-II
void DFF21(void){Clear_Bit(SLAVE1, PB, 4); DFF_DELAY; Set_Bit(SLAVE1, PB, 4); DFF_DELAY;}
 800e116:	b508      	push	{r3, lr}
 800e118:	2204      	movs	r2, #4
 800e11a:	2119      	movs	r1, #25
 800e11c:	2042      	movs	r0, #66	; 0x42
 800e11e:	f7ff fd7a 	bl	800dc16 <Clear_Bit>
 800e122:	f7ff fbff 	bl	800d924 <iic_delay_us>
 800e126:	2204      	movs	r2, #4
 800e128:	2119      	movs	r1, #25
 800e12a:	2042      	movs	r0, #66	; 0x42
 800e12c:	f7ff fd5a 	bl	800dbe4 <Set_Bit>
 800e130:	e8bd 4008 	ldmia.w	sp!, {r3, lr}
 800e134:	f7ff bbf6 	b.w	800d924 <iic_delay_us>

0800e138 <DFF22>:
void DFF22(void){Clear_Bit(SLAVE1, PB, 5); DFF_DELAY; Set_Bit(SLAVE1, PB, 5); DFF_DELAY;}
 800e138:	b508      	push	{r3, lr}
 800e13a:	2205      	movs	r2, #5
 800e13c:	2119      	movs	r1, #25
 800e13e:	2042      	movs	r0, #66	; 0x42
 800e140:	f7ff fd69 	bl	800dc16 <Clear_Bit>
 800e144:	f7ff fbee 	bl	800d924 <iic_delay_us>
 800e148:	2205      	movs	r2, #5
 800e14a:	2119      	movs	r1, #25
 800e14c:	2042      	movs	r0, #66	; 0x42
 800e14e:	f7ff fd49 	bl	800dbe4 <Set_Bit>
 800e152:	e8bd 4008 	ldmia.w	sp!, {r3, lr}
 800e156:	f7ff bbe5 	b.w	800d924 <iic_delay_us>

0800e15a <DFF23>:
void DFF23(void){Clear_Bit(SLAVE1, PB, 6); DFF_DELAY; Set_Bit(SLAVE1, PB, 6); DFF_DELAY;}
 800e15a:	b508      	push	{r3, lr}
 800e15c:	2206      	movs	r2, #6
 800e15e:	2119      	movs	r1, #25
 800e160:	2042      	movs	r0, #66	; 0x42
 800e162:	f7ff fd58 	bl	800dc16 <Clear_Bit>
 800e166:	f7ff fbdd 	bl	800d924 <iic_delay_us>
 800e16a:	2206      	movs	r2, #6
 800e16c:	2119      	movs	r1, #25
 800e16e:	2042      	movs	r0, #66	; 0x42
 800e170:	f7ff fd38 	bl	800dbe4 <Set_Bit>
 800e174:	e8bd 4008 	ldmia.w	sp!, {r3, lr}
 800e178:	f7ff bbd4 	b.w	800d924 <iic_delay_us>

0800e17c <DFF24>:
void DFF24(void){Clear_Bit(SLAVE1, PB, 7); DFF_DELAY; Set_Bit(SLAVE1, PB, 7); DFF_DELAY;}
 800e17c:	b508      	push	{r3, lr}
 800e17e:	2207      	movs	r2, #7
 800e180:	2119      	movs	r1, #25
 800e182:	2042      	movs	r0, #66	; 0x42
 800e184:	f7ff fd47 	bl	800dc16 <Clear_Bit>
 800e188:	f7ff fbcc 	bl	800d924 <iic_delay_us>
 800e18c:	2207      	movs	r2, #7
 800e18e:	2119      	movs	r1, #25
 800e190:	2042      	movs	r0, #66	; 0x42
 800e192:	f7ff fd27 	bl	800dbe4 <Set_Bit>
 800e196:	e8bd 4008 	ldmia.w	sp!, {r3, lr}
 800e19a:	f7ff bbc3 	b.w	800d924 <iic_delay_us>

0800e19e <DFF25>:
void DFF25(void){Clear_Bit(SLAVE2, PA, 0); DFF_DELAY; Set_Bit(SLAVE2, PA, 0); DFF_DELAY;}
 800e19e:	b508      	push	{r3, lr}
 800e1a0:	2200      	movs	r2, #0
 800e1a2:	2109      	movs	r1, #9
 800e1a4:	2044      	movs	r0, #68	; 0x44
 800e1a6:	f7ff fd36 	bl	800dc16 <Clear_Bit>
 800e1aa:	f7ff fbbb 	bl	800d924 <iic_delay_us>
 800e1ae:	2200      	movs	r2, #0
 800e1b0:	2109      	movs	r1, #9
 800e1b2:	2044      	movs	r0, #68	; 0x44
 800e1b4:	f7ff fd16 	bl	800dbe4 <Set_Bit>
 800e1b8:	e8bd 4008 	ldmia.w	sp!, {r3, lr}
 800e1bc:	f7ff bbb2 	b.w	800d924 <iic_delay_us>

0800e1c0 <DFF26>:
void DFF26(void){Clear_Bit(SLAVE2, PA, 1); DFF_DELAY; Set_Bit(SLAVE2, PA, 1); DFF_DELAY;}
 800e1c0:	b508      	push	{r3, lr}
 800e1c2:	2201      	movs	r2, #1
 800e1c4:	2109      	movs	r1, #9
 800e1c6:	2044      	movs	r0, #68	; 0x44
 800e1c8:	f7ff fd25 	bl	800dc16 <Clear_Bit>
 800e1cc:	f7ff fbaa 	bl	800d924 <iic_delay_us>
 800e1d0:	2201      	movs	r2, #1
 800e1d2:	2109      	movs	r1, #9
 800e1d4:	2044      	movs	r0, #68	; 0x44
 800e1d6:	f7ff fd05 	bl	800dbe4 <Set_Bit>
 800e1da:	e8bd 4008 	ldmia.w	sp!, {r3, lr}
 800e1de:	f7ff bba1 	b.w	800d924 <iic_delay_us>

0800e1e2 <DFF27>:
void DFF27(void){Clear_Bit(SLAVE2, PA, 2); DFF_DELAY; Set_Bit(SLAVE2, PA, 2); DFF_DELAY;}
 800e1e2:	b508      	push	{r3, lr}
 800e1e4:	2202      	movs	r2, #2
 800e1e6:	2109      	movs	r1, #9
 800e1e8:	2044      	movs	r0, #68	; 0x44
 800e1ea:	f7ff fd14 	bl	800dc16 <Clear_Bit>
 800e1ee:	f7ff fb99 	bl	800d924 <iic_delay_us>
 800e1f2:	2202      	movs	r2, #2
 800e1f4:	2109      	movs	r1, #9
 800e1f6:	2044      	movs	r0, #68	; 0x44
 800e1f8:	f7ff fcf4 	bl	800dbe4 <Set_Bit>
 800e1fc:	e8bd 4008 	ldmia.w	sp!, {r3, lr}
 800e200:	f7ff bb90 	b.w	800d924 <iic_delay_us>

0800e204 <DFF28>:
void DFF28(void){Clear_Bit(SLAVE2, PA, 3); DFF_DELAY; Set_Bit(SLAVE2, PA, 3); DFF_DELAY;}
 800e204:	b508      	push	{r3, lr}
 800e206:	2203      	movs	r2, #3
 800e208:	2109      	movs	r1, #9
 800e20a:	2044      	movs	r0, #68	; 0x44
 800e20c:	f7ff fd03 	bl	800dc16 <Clear_Bit>
 800e210:	f7ff fb88 	bl	800d924 <iic_delay_us>
 800e214:	2203      	movs	r2, #3
 800e216:	2109      	movs	r1, #9
 800e218:	2044      	movs	r0, #68	; 0x44
 800e21a:	f7ff fce3 	bl	800dbe4 <Set_Bit>
 800e21e:	e8bd 4008 	ldmia.w	sp!, {r3, lr}
 800e222:	f7ff bb7f 	b.w	800d924 <iic_delay_us>

0800e226 <DFF29>:
void DFF29(void){Clear_Bit(SLAVE2, PA, 4); DFF_DELAY; Set_Bit(SLAVE2, PA, 4); DFF_DELAY;}
 800e226:	b508      	push	{r3, lr}
 800e228:	2204      	movs	r2, #4
 800e22a:	2109      	movs	r1, #9
 800e22c:	2044      	movs	r0, #68	; 0x44
 800e22e:	f7ff fcf2 	bl	800dc16 <Clear_Bit>
 800e232:	f7ff fb77 	bl	800d924 <iic_delay_us>
 800e236:	2204      	movs	r2, #4
 800e238:	2109      	movs	r1, #9
 800e23a:	2044      	movs	r0, #68	; 0x44
 800e23c:	f7ff fcd2 	bl	800dbe4 <Set_Bit>
 800e240:	e8bd 4008 	ldmia.w	sp!, {r3, lr}
 800e244:	f7ff bb6e 	b.w	800d924 <iic_delay_us>

0800e248 <DFF30>:
void DFF30(void){Clear_Bit(SLAVE2, PA, 5); DFF_DELAY; Set_Bit(SLAVE2, PA, 5); DFF_DELAY;}
 800e248:	b508      	push	{r3, lr}
 800e24a:	2205      	movs	r2, #5
 800e24c:	2109      	movs	r1, #9
 800e24e:	2044      	movs	r0, #68	; 0x44
 800e250:	f7ff fce1 	bl	800dc16 <Clear_Bit>
 800e254:	f7ff fb66 	bl	800d924 <iic_delay_us>
 800e258:	2205      	movs	r2, #5
 800e25a:	2109      	movs	r1, #9
 800e25c:	2044      	movs	r0, #68	; 0x44
 800e25e:	f7ff fcc1 	bl	800dbe4 <Set_Bit>
 800e262:	e8bd 4008 	ldmia.w	sp!, {r3, lr}
 800e266:	f7ff bb5d 	b.w	800d924 <iic_delay_us>

0800e26a <DFF31>:
void DFF31(void){Clear_Bit(SLAVE2, PA, 6); DFF_DELAY; Set_Bit(SLAVE2, PA, 6); DFF_DELAY;}
 800e26a:	b508      	push	{r3, lr}
 800e26c:	2206      	movs	r2, #6
 800e26e:	2109      	movs	r1, #9
 800e270:	2044      	movs	r0, #68	; 0x44
 800e272:	f7ff fcd0 	bl	800dc16 <Clear_Bit>
 800e276:	f7ff fb55 	bl	800d924 <iic_delay_us>
 800e27a:	2206      	movs	r2, #6
 800e27c:	2109      	movs	r1, #9
 800e27e:	2044      	movs	r0, #68	; 0x44
 800e280:	f7ff fcb0 	bl	800dbe4 <Set_Bit>
 800e284:	e8bd 4008 	ldmia.w	sp!, {r3, lr}
 800e288:	f7ff bb4c 	b.w	800d924 <iic_delay_us>

0800e28c <DFF32>:
void DFF32(void){Clear_Bit(SLAVE2, PA, 7); DFF_DELAY; Set_Bit(SLAVE2, PA, 7); DFF_DELAY;}
 800e28c:	b508      	push	{r3, lr}
 800e28e:	2207      	movs	r2, #7
 800e290:	2109      	movs	r1, #9
 800e292:	2044      	movs	r0, #68	; 0x44
 800e294:	f7ff fcbf 	bl	800dc16 <Clear_Bit>
 800e298:	f7ff fb44 	bl	800d924 <iic_delay_us>
 800e29c:	2207      	movs	r2, #7
 800e29e:	2109      	movs	r1, #9
 800e2a0:	2044      	movs	r0, #68	; 0x44
 800e2a2:	f7ff fc9f 	bl	800dbe4 <Set_Bit>
 800e2a6:	e8bd 4008 	ldmia.w	sp!, {r3, lr}
 800e2aa:	f7ff bb3b 	b.w	800d924 <iic_delay_us>

0800e2ae <DFF33>:
void DFF33(void){Clear_Bit(SLAVE2, PB, 0); DFF_DELAY; Set_Bit(SLAVE2, PB, 0); DFF_DELAY;}
 800e2ae:	b508      	push	{r3, lr}
 800e2b0:	2200      	movs	r2, #0
 800e2b2:	2119      	movs	r1, #25
 800e2b4:	2044      	movs	r0, #68	; 0x44
 800e2b6:	f7ff fcae 	bl	800dc16 <Clear_Bit>
 800e2ba:	f7ff fb33 	bl	800d924 <iic_delay_us>
 800e2be:	2200      	movs	r2, #0
 800e2c0:	2119      	movs	r1, #25
 800e2c2:	2044      	movs	r0, #68	; 0x44
 800e2c4:	f7ff fc8e 	bl	800dbe4 <Set_Bit>
 800e2c8:	e8bd 4008 	ldmia.w	sp!, {r3, lr}
 800e2cc:	f7ff bb2a 	b.w	800d924 <iic_delay_us>

0800e2d0 <DFF34>:
void DFF34(void){Clear_Bit(SLAVE2, PB, 1); DFF_DELAY; Set_Bit(SLAVE2, PB, 1); DFF_DELAY;}
 800e2d0:	b508      	push	{r3, lr}
 800e2d2:	2201      	movs	r2, #1
 800e2d4:	2119      	movs	r1, #25
 800e2d6:	2044      	movs	r0, #68	; 0x44
 800e2d8:	f7ff fc9d 	bl	800dc16 <Clear_Bit>
 800e2dc:	f7ff fb22 	bl	800d924 <iic_delay_us>
 800e2e0:	2201      	movs	r2, #1
 800e2e2:	2119      	movs	r1, #25
 800e2e4:	2044      	movs	r0, #68	; 0x44
 800e2e6:	f7ff fc7d 	bl	800dbe4 <Set_Bit>
 800e2ea:	e8bd 4008 	ldmia.w	sp!, {r3, lr}
 800e2ee:	f7ff bb19 	b.w	800d924 <iic_delay_us>

0800e2f2 <DFF35>:
void DFF35(void){Clear_Bit(SLAVE2, PB, 2); DFF_DELAY; Set_Bit(SLAVE2, PB, 2); DFF_DELAY;}
 800e2f2:	b508      	push	{r3, lr}
 800e2f4:	2202      	movs	r2, #2
 800e2f6:	2119      	movs	r1, #25
 800e2f8:	2044      	movs	r0, #68	; 0x44
 800e2fa:	f7ff fc8c 	bl	800dc16 <Clear_Bit>
 800e2fe:	f7ff fb11 	bl	800d924 <iic_delay_us>
 800e302:	2202      	movs	r2, #2
 800e304:	2119      	movs	r1, #25
 800e306:	2044      	movs	r0, #68	; 0x44
 800e308:	f7ff fc6c 	bl	800dbe4 <Set_Bit>
 800e30c:	e8bd 4008 	ldmia.w	sp!, {r3, lr}
 800e310:	f7ff bb08 	b.w	800d924 <iic_delay_us>

0800e314 <DFF36>:
void DFF36(void){Clear_Bit(SLAVE2, PB, 3); DFF_DELAY; Set_Bit(SLAVE2, PB, 3); DFF_DELAY;}
 800e314:	b508      	push	{r3, lr}
 800e316:	2203      	movs	r2, #3
 800e318:	2119      	movs	r1, #25
 800e31a:	2044      	movs	r0, #68	; 0x44
 800e31c:	f7ff fc7b 	bl	800dc16 <Clear_Bit>
 800e320:	f7ff fb00 	bl	800d924 <iic_delay_us>
 800e324:	2203      	movs	r2, #3
 800e326:	2119      	movs	r1, #25
 800e328:	2044      	movs	r0, #68	; 0x44
 800e32a:	f7ff fc5b 	bl	800dbe4 <Set_Bit>
 800e32e:	e8bd 4008 	ldmia.w	sp!, {r3, lr}
 800e332:	f7ff baf7 	b.w	800d924 <iic_delay_us>

0800e336 <DFF37>:
void DFF37(void){Clear_Bit(SLAVE2, PB, 4); DFF_DELAY; Set_Bit(SLAVE2, PB, 4); DFF_DELAY;}
 800e336:	b508      	push	{r3, lr}
 800e338:	2204      	movs	r2, #4
 800e33a:	2119      	movs	r1, #25
 800e33c:	2044      	movs	r0, #68	; 0x44
 800e33e:	f7ff fc6a 	bl	800dc16 <Clear_Bit>
 800e342:	f7ff faef 	bl	800d924 <iic_delay_us>
 800e346:	2204      	movs	r2, #4
 800e348:	2119      	movs	r1, #25
 800e34a:	2044      	movs	r0, #68	; 0x44
 800e34c:	f7ff fc4a 	bl	800dbe4 <Set_Bit>
 800e350:	e8bd 4008 	ldmia.w	sp!, {r3, lr}
 800e354:	f7ff bae6 	b.w	800d924 <iic_delay_us>

0800e358 <DFF38>:
void DFF38(void){Clear_Bit(SLAVE2, PB, 5); DFF_DELAY; Set_Bit(SLAVE2, PB, 5); DFF_DELAY;}
 800e358:	b508      	push	{r3, lr}
 800e35a:	2205      	movs	r2, #5
 800e35c:	2119      	movs	r1, #25
 800e35e:	2044      	movs	r0, #68	; 0x44
 800e360:	f7ff fc59 	bl	800dc16 <Clear_Bit>
 800e364:	f7ff fade 	bl	800d924 <iic_delay_us>
 800e368:	2205      	movs	r2, #5
 800e36a:	2119      	movs	r1, #25
 800e36c:	2044      	movs	r0, #68	; 0x44
 800e36e:	f7ff fc39 	bl	800dbe4 <Set_Bit>
 800e372:	e8bd 4008 	ldmia.w	sp!, {r3, lr}
 800e376:	f7ff bad5 	b.w	800d924 <iic_delay_us>

0800e37a <DFF39>:
void DFF39(void){Clear_Bit(SLAVE2, PB, 6); DFF_DELAY; Set_Bit(SLAVE2, PB, 6); DFF_DELAY;}
 800e37a:	b508      	push	{r3, lr}
 800e37c:	2206      	movs	r2, #6
 800e37e:	2119      	movs	r1, #25
 800e380:	2044      	movs	r0, #68	; 0x44
 800e382:	f7ff fc48 	bl	800dc16 <Clear_Bit>
 800e386:	f7ff facd 	bl	800d924 <iic_delay_us>
 800e38a:	2206      	movs	r2, #6
 800e38c:	2119      	movs	r1, #25
 800e38e:	2044      	movs	r0, #68	; 0x44
 800e390:	f7ff fc28 	bl	800dbe4 <Set_Bit>
 800e394:	e8bd 4008 	ldmia.w	sp!, {r3, lr}
 800e398:	f7ff bac4 	b.w	800d924 <iic_delay_us>

0800e39c <DFF40>:
void DFF40(void){Clear_Bit(SLAVE2, PB, 7); DFF_DELAY; Set_Bit(SLAVE2, PB, 7); DFF_DELAY;}
 800e39c:	b508      	push	{r3, lr}
 800e39e:	2207      	movs	r2, #7
 800e3a0:	2119      	movs	r1, #25
 800e3a2:	2044      	movs	r0, #68	; 0x44
 800e3a4:	f7ff fc37 	bl	800dc16 <Clear_Bit>
 800e3a8:	f7ff fabc 	bl	800d924 <iic_delay_us>
 800e3ac:	2207      	movs	r2, #7
 800e3ae:	2119      	movs	r1, #25
 800e3b0:	2044      	movs	r0, #68	; 0x44
 800e3b2:	f7ff fc17 	bl	800dbe4 <Set_Bit>
 800e3b6:	e8bd 4008 	ldmia.w	sp!, {r3, lr}
 800e3ba:	f7ff bab3 	b.w	800d924 <iic_delay_us>

0800e3be <DFF_GND_Init>:

void DFF_GND_Init(void)
{
 800e3be:	b508      	push	{r3, lr}
	DFF_Data(0x00);
 800e3c0:	2000      	movs	r0, #0
 800e3c2:	f7ff fd4f 	bl	800de64 <DFF_Data>

	DFF_DELAY;
 800e3c6:	f7ff faad 	bl	800d924 <iic_delay_us>

	DFF1();
 800e3ca:	f7ff fd50 	bl	800de6e <DFF1>
	DFF2();
 800e3ce:	f7ff fd5f 	bl	800de90 <DFF2>
	DFF3();
 800e3d2:	f7ff fd6e 	bl	800deb2 <DFF3>
	DFF4();
 800e3d6:	f7ff fd7d 	bl	800ded4 <DFF4>
	DFF5();
 800e3da:	f7ff fd8c 	bl	800def6 <DFF5>
	DFF6();
 800e3de:	f7ff fd9b 	bl	800df18 <DFF6>
	DFF7();
 800e3e2:	f7ff fdaa 	bl	800df3a <DFF7>
	DFF8();
 800e3e6:	f7ff fdb9 	bl	800df5c <DFF8>

	DFF9();
 800e3ea:	f7ff fdc8 	bl	800df7e <DFF9>
	DFF10();
 800e3ee:	f7ff fdd7 	bl	800dfa0 <DFF10>
	DFF11();
 800e3f2:	f7ff fde6 	bl	800dfc2 <DFF11>
	DFF12();
 800e3f6:	f7ff fdf5 	bl	800dfe4 <DFF12>
	DFF13();
 800e3fa:	f7ff fe04 	bl	800e006 <DFF13>
	DFF14();
 800e3fe:	f7ff fe13 	bl	800e028 <DFF14>
	DFF15();
 800e402:	f7ff fe22 	bl	800e04a <DFF15>
	DFF16();
 800e406:	f7ff fe31 	bl	800e06c <DFF16>

	DFF17();
 800e40a:	f7ff fe40 	bl	800e08e <DFF17>
	DFF18();
 800e40e:	f7ff fe4f 	bl	800e0b0 <DFF18>
	DFF19();
 800e412:	f7ff fe5e 	bl	800e0d2 <DFF19>
	DFF20();
 800e416:	f7ff fe6d 	bl	800e0f4 <DFF20>

	DFF21();
 800e41a:	f7ff fe7c 	bl	800e116 <DFF21>
	DFF22();
 800e41e:	f7ff fe8b 	bl	800e138 <DFF22>
	DFF23();
 800e422:	f7ff fe9a 	bl	800e15a <DFF23>
	DFF24();
 800e426:	f7ff fea9 	bl	800e17c <DFF24>
	DFF25();
 800e42a:	f7ff feb8 	bl	800e19e <DFF25>
	DFF26();
 800e42e:	f7ff fec7 	bl	800e1c0 <DFF26>
	DFF27();
 800e432:	f7ff fed6 	bl	800e1e2 <DFF27>
	DFF28();
 800e436:	f7ff fee5 	bl	800e204 <DFF28>

	DFF29();
 800e43a:	f7ff fef4 	bl	800e226 <DFF29>
	DFF30();
 800e43e:	f7ff ff03 	bl	800e248 <DFF30>
	DFF31();
 800e442:	f7ff ff12 	bl	800e26a <DFF31>
	DFF32();
 800e446:	f7ff ff21 	bl	800e28c <DFF32>
	DFF33();
 800e44a:	f7ff ff30 	bl	800e2ae <DFF33>
	DFF34();
 800e44e:	f7ff ff3f 	bl	800e2d0 <DFF34>
	DFF35();
 800e452:	f7ff ff4e 	bl	800e2f2 <DFF35>
	DFF36();
 800e456:	f7ff ff5d 	bl	800e314 <DFF36>

	DFF37();
 800e45a:	f7ff ff6c 	bl	800e336 <DFF37>
	DFF38();
 800e45e:	f7ff ff7b 	bl	800e358 <DFF38>
	DFF39();
 800e462:	f7ff ff8a 	bl	800e37a <DFF39>
	DFF40();
}
 800e466:	e8bd 4008 	ldmia.w	sp!, {r3, lr}
	DFF40();
 800e46a:	f7ff bf97 	b.w	800e39c <DFF40>

0800e46e <DFF_Floating_Init>:

void DFF_Floating_Init(void)
{
 800e46e:	b508      	push	{r3, lr}
	DFF_Data(0xFF);
 800e470:	20ff      	movs	r0, #255	; 0xff
 800e472:	f7ff fcf7 	bl	800de64 <DFF_Data>

	DFF_DELAY;
 800e476:	f7ff fa55 	bl	800d924 <iic_delay_us>

	DFF1();
 800e47a:	f7ff fcf8 	bl	800de6e <DFF1>
	DFF2();
 800e47e:	f7ff fd07 	bl	800de90 <DFF2>
	DFF3();
 800e482:	f7ff fd16 	bl	800deb2 <DFF3>
	DFF4();
 800e486:	f7ff fd25 	bl	800ded4 <DFF4>
	DFF5();
 800e48a:	f7ff fd34 	bl	800def6 <DFF5>
	DFF6();
 800e48e:	f7ff fd43 	bl	800df18 <DFF6>
	DFF7();
 800e492:	f7ff fd52 	bl	800df3a <DFF7>
	DFF8();
 800e496:	f7ff fd61 	bl	800df5c <DFF8>

	DFF9();
 800e49a:	f7ff fd70 	bl	800df7e <DFF9>
	DFF10();
 800e49e:	f7ff fd7f 	bl	800dfa0 <DFF10>
	DFF11();
 800e4a2:	f7ff fd8e 	bl	800dfc2 <DFF11>
	DFF12();
 800e4a6:	f7ff fd9d 	bl	800dfe4 <DFF12>
	DFF13();
 800e4aa:	f7ff fdac 	bl	800e006 <DFF13>
	DFF14();
 800e4ae:	f7ff fdbb 	bl	800e028 <DFF14>
	DFF15();
 800e4b2:	f7ff fdca 	bl	800e04a <DFF15>
	DFF16();
 800e4b6:	f7ff fdd9 	bl	800e06c <DFF16>

	DFF17();
 800e4ba:	f7ff fde8 	bl	800e08e <DFF17>
	DFF18();
 800e4be:	f7ff fdf7 	bl	800e0b0 <DFF18>
	DFF19();
 800e4c2:	f7ff fe06 	bl	800e0d2 <DFF19>
	DFF20();
 800e4c6:	f7ff fe15 	bl	800e0f4 <DFF20>

	DFF21();
 800e4ca:	f7ff fe24 	bl	800e116 <DFF21>
	DFF22();
 800e4ce:	f7ff fe33 	bl	800e138 <DFF22>
	DFF23();
 800e4d2:	f7ff fe42 	bl	800e15a <DFF23>
	DFF24();
 800e4d6:	f7ff fe51 	bl	800e17c <DFF24>
	DFF25();
 800e4da:	f7ff fe60 	bl	800e19e <DFF25>
	DFF26();
 800e4de:	f7ff fe6f 	bl	800e1c0 <DFF26>
	DFF27();
 800e4e2:	f7ff fe7e 	bl	800e1e2 <DFF27>
	DFF28();
 800e4e6:	f7ff fe8d 	bl	800e204 <DFF28>

	DFF29();
 800e4ea:	f7ff fe9c 	bl	800e226 <DFF29>
	DFF30();
 800e4ee:	f7ff feab 	bl	800e248 <DFF30>
	DFF31();
 800e4f2:	f7ff feba 	bl	800e26a <DFF31>
	DFF32();
 800e4f6:	f7ff fec9 	bl	800e28c <DFF32>
	DFF33();
 800e4fa:	f7ff fed8 	bl	800e2ae <DFF33>
	DFF34();
 800e4fe:	f7ff fee7 	bl	800e2d0 <DFF34>
	DFF35();
 800e502:	f7ff fef6 	bl	800e2f2 <DFF35>
	DFF36();
 800e506:	f7ff ff05 	bl	800e314 <DFF36>

	DFF37();
 800e50a:	f7ff ff14 	bl	800e336 <DFF37>
	DFF38();
 800e50e:	f7ff ff23 	bl	800e358 <DFF38>
	DFF39();
 800e512:	f7ff ff32 	bl	800e37a <DFF39>
	DFF40();
}
 800e516:	e8bd 4008 	ldmia.w	sp!, {r3, lr}
	DFF40();
 800e51a:	f7ff bf3f 	b.w	800e39c <DFF40>

0800e51e <_read>:
	_kill(status, -1);
	while (1) {}		/* Make sure we hang here */
}

__attribute__((weak)) int _read(int file, char *ptr, int len)
{
 800e51e:	b570      	push	{r4, r5, r6, lr}
 800e520:	460e      	mov	r6, r1
 800e522:	4615      	mov	r5, r2
	int DataIdx;

	for (DataIdx = 0; DataIdx < len; DataIdx++)
 800e524:	460c      	mov	r4, r1
 800e526:	1ba3      	subs	r3, r4, r6
 800e528:	429d      	cmp	r5, r3
 800e52a:	dc01      	bgt.n	800e530 <_read+0x12>
	{
		*ptr++ = __io_getchar();
	}

return len;
}
 800e52c:	4628      	mov	r0, r5
 800e52e:	bd70      	pop	{r4, r5, r6, pc}
		*ptr++ = __io_getchar();
 800e530:	f3af 8000 	nop.w
 800e534:	f804 0b01 	strb.w	r0, [r4], #1
 800e538:	e7f5      	b.n	800e526 <_read+0x8>
	...

0800e53c <_sbrk>:
	}
	return len;
}

caddr_t _sbrk(int incr)
{
 800e53c:	b508      	push	{r3, lr}
	extern char end asm("end");
	static char *heap_end;
	char *prev_heap_end;

	if (heap_end == 0)
 800e53e:	4b0a      	ldr	r3, [pc, #40]	; (800e568 <_sbrk+0x2c>)
 800e540:	6819      	ldr	r1, [r3, #0]
{
 800e542:	4602      	mov	r2, r0
	if (heap_end == 0)
 800e544:	b909      	cbnz	r1, 800e54a <_sbrk+0xe>
		heap_end = &end;
 800e546:	4909      	ldr	r1, [pc, #36]	; (800e56c <_sbrk+0x30>)
 800e548:	6019      	str	r1, [r3, #0]

	prev_heap_end = heap_end;
 800e54a:	6818      	ldr	r0, [r3, #0]
	if (heap_end + incr > stack_ptr)
 800e54c:	4669      	mov	r1, sp
 800e54e:	4402      	add	r2, r0
 800e550:	428a      	cmp	r2, r1
 800e552:	d906      	bls.n	800e562 <_sbrk+0x26>
	{
//		write(1, "Heap and stack collision\n", 25);
//		abort();
		errno = ENOMEM;
 800e554:	f000 fa4a 	bl	800e9ec <__errno>
 800e558:	230c      	movs	r3, #12
 800e55a:	6003      	str	r3, [r0, #0]
		return (caddr_t) -1;
 800e55c:	f04f 30ff 	mov.w	r0, #4294967295
 800e560:	bd08      	pop	{r3, pc}
	}

	heap_end += incr;
 800e562:	601a      	str	r2, [r3, #0]

	return (caddr_t) prev_heap_end;
}
 800e564:	bd08      	pop	{r3, pc}
 800e566:	bf00      	nop
 800e568:	200017ec 	.word	0x200017ec
 800e56c:	20007024 	.word	0x20007024

0800e570 <_close>:

int _close(int file)
{
	return -1;
}
 800e570:	f04f 30ff 	mov.w	r0, #4294967295
 800e574:	4770      	bx	lr

0800e576 <_fstat>:


int _fstat(int file, struct stat *st)
{
	st->st_mode = S_IFCHR;
 800e576:	f44f 5300 	mov.w	r3, #8192	; 0x2000
 800e57a:	604b      	str	r3, [r1, #4]
	return 0;
}
 800e57c:	2000      	movs	r0, #0
 800e57e:	4770      	bx	lr

0800e580 <_isatty>:

int _isatty(int file)
{
	return 1;
}
 800e580:	2001      	movs	r0, #1
 800e582:	4770      	bx	lr

0800e584 <_lseek>:

int _lseek(int file, int ptr, int dir)
{
	return 0;
}
 800e584:	2000      	movs	r0, #0
 800e586:	4770      	bx	lr

0800e588 <SystemInit>:
  */
void SystemInit(void)
{
  /* FPU settings ------------------------------------------------------------*/
  #if (__FPU_PRESENT == 1) && (__FPU_USED == 1)
    SCB->CPACR |= ((3UL << 10*2)|(3UL << 11*2));  /* set CP10 and CP11 Full Access */
 800e588:	490e      	ldr	r1, [pc, #56]	; (800e5c4 <SystemInit+0x3c>)
 800e58a:	f8d1 3088 	ldr.w	r3, [r1, #136]	; 0x88
 800e58e:	f443 0370 	orr.w	r3, r3, #15728640	; 0xf00000
 800e592:	f8c1 3088 	str.w	r3, [r1, #136]	; 0x88
  #endif
  /* Reset the RCC clock configuration to the default reset state ------------*/
  /* Set HSION bit */
  RCC->CR |= (uint32_t)0x00000001;
 800e596:	4b0c      	ldr	r3, [pc, #48]	; (800e5c8 <SystemInit+0x40>)
 800e598:	681a      	ldr	r2, [r3, #0]

  /* Reset CFGR register */
  RCC->CFGR = 0x00000000;
 800e59a:	2000      	movs	r0, #0
  RCC->CR |= (uint32_t)0x00000001;
 800e59c:	f042 0201 	orr.w	r2, r2, #1
 800e5a0:	601a      	str	r2, [r3, #0]
  RCC->CFGR = 0x00000000;
 800e5a2:	6098      	str	r0, [r3, #8]

  /* Reset HSEON, CSSON and PLLON bits */
  RCC->CR &= (uint32_t)0xFEF6FFFF;
 800e5a4:	681a      	ldr	r2, [r3, #0]
 800e5a6:	f022 7284 	bic.w	r2, r2, #17301504	; 0x1080000
 800e5aa:	f422 3280 	bic.w	r2, r2, #65536	; 0x10000
 800e5ae:	601a      	str	r2, [r3, #0]

  /* Reset PLLCFGR register */
  RCC->PLLCFGR = 0x24003010;
 800e5b0:	4a06      	ldr	r2, [pc, #24]	; (800e5cc <SystemInit+0x44>)
 800e5b2:	605a      	str	r2, [r3, #4]

  /* Reset HSEBYP bit */
  RCC->CR &= (uint32_t)0xFFFBFFFF;
 800e5b4:	681a      	ldr	r2, [r3, #0]
 800e5b6:	f422 2280 	bic.w	r2, r2, #262144	; 0x40000
 800e5ba:	601a      	str	r2, [r3, #0]

  /* Disable all interrupts */
  RCC->CIR = 0x00000000;
 800e5bc:	60d8      	str	r0, [r3, #12]

  /* Configure the Vector Table location add offset address ------------------*/
#ifdef VECT_TAB_SRAM
  SCB->VTOR = SRAM_BASE | VECT_TAB_OFFSET; /* Vector Table Relocation in Internal SRAM */
#else
  SCB->VTOR = FLASH_BASE | VECT_TAB_OFFSET; /* Vector Table Relocation in Internal FLASH */
 800e5be:	4b04      	ldr	r3, [pc, #16]	; (800e5d0 <SystemInit+0x48>)
 800e5c0:	608b      	str	r3, [r1, #8]
 800e5c2:	4770      	bx	lr
 800e5c4:	e000ed00 	.word	0xe000ed00
 800e5c8:	40023800 	.word	0x40023800
 800e5cc:	24003010 	.word	0x24003010
 800e5d0:	08008000 	.word	0x08008000

0800e5d4 <LCD_LOG_DeInit>:
  * @param  None
  * @retval None
  */
void LCD_LOG_DeInit(void)
{
  LCD_LineColor = LCD_LOG_TEXT_COLOR;
 800e5d4:	4a0c      	ldr	r2, [pc, #48]	; (800e608 <LCD_LOG_DeInit+0x34>)
 800e5d6:	2300      	movs	r3, #0
 800e5d8:	6013      	str	r3, [r2, #0]
  LCD_CacheBuffer_xptr = 0;
 800e5da:	4a0c      	ldr	r2, [pc, #48]	; (800e60c <LCD_LOG_DeInit+0x38>)
 800e5dc:	8013      	strh	r3, [r2, #0]
  LCD_CacheBuffer_yptr_top = 0;
 800e5de:	4a0c      	ldr	r2, [pc, #48]	; (800e610 <LCD_LOG_DeInit+0x3c>)
 800e5e0:	8013      	strh	r3, [r2, #0]
  LCD_CacheBuffer_yptr_bottom = 0;
 800e5e2:	4a0c      	ldr	r2, [pc, #48]	; (800e614 <LCD_LOG_DeInit+0x40>)
 800e5e4:	8013      	strh	r3, [r2, #0]
  
  LCD_CacheBuffer_yptr_top_bak = 0;
 800e5e6:	4a0c      	ldr	r2, [pc, #48]	; (800e618 <LCD_LOG_DeInit+0x44>)
 800e5e8:	8013      	strh	r3, [r2, #0]
  LCD_CacheBuffer_yptr_bottom_bak = 0;
 800e5ea:	4a0c      	ldr	r2, [pc, #48]	; (800e61c <LCD_LOG_DeInit+0x48>)
 800e5ec:	8013      	strh	r3, [r2, #0]
  
  LCD_CacheBuffer_yptr_invert= ENABLE;
 800e5ee:	4a0c      	ldr	r2, [pc, #48]	; (800e620 <LCD_LOG_DeInit+0x4c>)
 800e5f0:	2101      	movs	r1, #1
 800e5f2:	7011      	strb	r1, [r2, #0]
  LCD_ScrollActive = DISABLE;
 800e5f4:	4a0b      	ldr	r2, [pc, #44]	; (800e624 <LCD_LOG_DeInit+0x50>)
 800e5f6:	7013      	strb	r3, [r2, #0]
  LCD_Lock = DISABLE;
 800e5f8:	4a0b      	ldr	r2, [pc, #44]	; (800e628 <LCD_LOG_DeInit+0x54>)
 800e5fa:	7013      	strb	r3, [r2, #0]
  LCD_Scrolled = DISABLE;
 800e5fc:	4a0b      	ldr	r2, [pc, #44]	; (800e62c <LCD_LOG_DeInit+0x58>)
 800e5fe:	7013      	strb	r3, [r2, #0]
  LCD_ScrollBackStep = 0;
 800e600:	4a0b      	ldr	r2, [pc, #44]	; (800e630 <LCD_LOG_DeInit+0x5c>)
 800e602:	8013      	strh	r3, [r2, #0]
 800e604:	4770      	bx	lr
 800e606:	bf00      	nop
 800e608:	20007018 	.word	0x20007018
 800e60c:	20001c02 	.word	0x20001c02
 800e610:	20001c08 	.word	0x20001c08
 800e614:	20001c00 	.word	0x20001c00
 800e618:	20001bfe 	.word	0x20001bfe
 800e61c:	20001bfc 	.word	0x20001bfc
 800e620:	20001c04 	.word	0x20001c04
 800e624:	20001c0a 	.word	0x20001c0a
 800e628:	20001c05 	.word	0x20001c05
 800e62c:	20001c06 	.word	0x20001c06
 800e630:	2000701c 	.word	0x2000701c

0800e634 <LCD_LOG_Init>:
{
 800e634:	b508      	push	{r3, lr}
  LCD_LOG_DeInit();
 800e636:	f7ff ffcd 	bl	800e5d4 <LCD_LOG_DeInit>
  BSP_LCD_Clear(BLACK);
 800e63a:	2005      	movs	r0, #5
}
 800e63c:	e8bd 4008 	ldmia.w	sp!, {r3, lr}
  BSP_LCD_Clear(BLACK);
 800e640:	f7fa bcfc 	b.w	800903c <BSP_LCD_Clear>

0800e644 <LCD_LOG_UpdateDisplay>:
  * @param  None
  * @retval None
  */

void LCD_LOG_UpdateDisplay (void)
{
 800e644:	e92d 43f8 	stmdb	sp!, {r3, r4, r5, r6, r7, r8, r9, lr}
  uint8_t cnt = 0 ;
  uint16_t length = 0 ;
  uint16_t ptr = 0, index = 0;
  
  if((LCD_CacheBuffer_yptr_bottom  < (YWINDOW_SIZE -1)) &&
 800e648:	4d1b      	ldr	r5, [pc, #108]	; (800e6b8 <LCD_LOG_UpdateDisplay+0x74>)
 800e64a:	4a1c      	ldr	r2, [pc, #112]	; (800e6bc <LCD_LOG_UpdateDisplay+0x78>)
 800e64c:	882b      	ldrh	r3, [r5, #0]
 800e64e:	4f1c      	ldr	r7, [pc, #112]	; (800e6c0 <LCD_LOG_UpdateDisplay+0x7c>)
 800e650:	2b0b      	cmp	r3, #11
 800e652:	d810      	bhi.n	800e676 <LCD_LOG_UpdateDisplay+0x32>
 800e654:	8811      	ldrh	r1, [r2, #0]
 800e656:	4299      	cmp	r1, r3
 800e658:	d80d      	bhi.n	800e676 <LCD_LOG_UpdateDisplay+0x32>
     (LCD_CacheBuffer_yptr_bottom  >= LCD_CacheBuffer_yptr_top))
  {
    BSP_LCD_SetTextColor(LCD_CacheBuffer[cnt + LCD_CacheBuffer_yptr_bottom].color);
 800e65a:	2484      	movs	r4, #132	; 0x84
 800e65c:	fb04 7303 	mla	r3, r4, r3, r7
 800e660:	f8d3 0080 	ldr.w	r0, [r3, #128]	; 0x80
 800e664:	f7fa fcd6 	bl	8009014 <BSP_LCD_SetTextColor>
    BSP_LCD_DisplayStringAtLine ((YWINDOW_MIN + LCD_CacheBuffer_yptr_bottom),
 800e668:	8828      	ldrh	r0, [r5, #0]
 800e66a:	fb04 7100 	mla	r1, r4, r0, r7
      BSP_LCD_SetTextColor(LCD_CacheBuffer[index].color);
      BSP_LCD_DisplayStringAtLine ((cnt + YWINDOW_MIN),
                             (uint8_t *)(LCD_CacheBuffer[index].line));
    }
  }
}
 800e66e:	e8bd 43f8 	ldmia.w	sp!, {r3, r4, r5, r6, r7, r8, r9, lr}
    BSP_LCD_DisplayStringAtLine ((YWINDOW_MIN + LCD_CacheBuffer_yptr_bottom),
 800e672:	f7fa bd33 	b.w	80090dc <BSP_LCD_DisplayStringAtLine>
    if(LCD_CacheBuffer_yptr_bottom < LCD_CacheBuffer_yptr_top)
 800e676:	8812      	ldrh	r2, [r2, #0]
 800e678:	429a      	cmp	r2, r3
      length = LCD_CACHE_DEPTH + LCD_CacheBuffer_yptr_bottom ;
 800e67a:	bf84      	itt	hi
 800e67c:	33a3      	addhi	r3, #163	; 0xa3
 800e67e:	b29b      	uxthhi	r3, r3
    ptr = length - YWINDOW_SIZE + 1;
 800e680:	3b0c      	subs	r3, #12
 800e682:	b29c      	uxth	r4, r3
 800e684:	2600      	movs	r6, #0
      index = (cnt + ptr )% LCD_CACHE_DEPTH;
 800e686:	f04f 08a3 	mov.w	r8, #163	; 0xa3
      BSP_LCD_SetTextColor(LCD_CacheBuffer[index].color);
 800e68a:	f04f 0984 	mov.w	r9, #132	; 0x84
      index = (cnt + ptr )% LCD_CACHE_DEPTH;
 800e68e:	19a1      	adds	r1, r4, r6
 800e690:	fb91 f5f8 	sdiv	r5, r1, r8
 800e694:	fb08 1515 	mls	r5, r8, r5, r1
      BSP_LCD_SetTextColor(LCD_CacheBuffer[index].color);
 800e698:	fb09 7505 	mla	r5, r9, r5, r7
 800e69c:	f8d5 0080 	ldr.w	r0, [r5, #128]	; 0x80
 800e6a0:	f7fa fcb8 	bl	8009014 <BSP_LCD_SetTextColor>
      BSP_LCD_DisplayStringAtLine ((cnt + YWINDOW_MIN),
 800e6a4:	b2b0      	uxth	r0, r6
 800e6a6:	4629      	mov	r1, r5
 800e6a8:	3601      	adds	r6, #1
 800e6aa:	f7fa fd17 	bl	80090dc <BSP_LCD_DisplayStringAtLine>
    for  (cnt = 0 ; cnt < YWINDOW_SIZE ; cnt ++)
 800e6ae:	2e0d      	cmp	r6, #13
 800e6b0:	d1ed      	bne.n	800e68e <LCD_LOG_UpdateDisplay+0x4a>
}
 800e6b2:	e8bd 83f8 	ldmia.w	sp!, {r3, r4, r5, r6, r7, r8, r9, pc}
 800e6b6:	bf00      	nop
 800e6b8:	20001c00 	.word	0x20001c00
 800e6bc:	20001c08 	.word	0x20001c08
 800e6c0:	20001c0c 	.word	0x20001c0c

0800e6c4 <__io_putchar>:
{
 800e6c4:	e92d 4ff0 	stmdb	sp!, {r4, r5, r6, r7, r8, r9, sl, fp, lr}
  if(LCD_Lock == DISABLE)
 800e6c8:	4b48      	ldr	r3, [pc, #288]	; (800e7ec <__io_putchar+0x128>)
 800e6ca:	781b      	ldrb	r3, [r3, #0]
{
 800e6cc:	b085      	sub	sp, #20
 800e6ce:	4607      	mov	r7, r0
  if(LCD_Lock == DISABLE)
 800e6d0:	2b00      	cmp	r3, #0
 800e6d2:	d131      	bne.n	800e738 <__io_putchar+0x74>
    if(LCD_ScrollActive == ENABLE)
 800e6d4:	4a46      	ldr	r2, [pc, #280]	; (800e7f0 <__io_putchar+0x12c>)
 800e6d6:	4c47      	ldr	r4, [pc, #284]	; (800e7f4 <__io_putchar+0x130>)
 800e6d8:	7811      	ldrb	r1, [r2, #0]
 800e6da:	2901      	cmp	r1, #1
 800e6dc:	d10b      	bne.n	800e6f6 <__io_putchar+0x32>
      LCD_CacheBuffer_yptr_bottom = LCD_CacheBuffer_yptr_bottom_bak;
 800e6de:	4946      	ldr	r1, [pc, #280]	; (800e7f8 <__io_putchar+0x134>)
      LCD_ScrollActive = DISABLE;
 800e6e0:	7013      	strb	r3, [r2, #0]
      LCD_CacheBuffer_yptr_bottom = LCD_CacheBuffer_yptr_bottom_bak;
 800e6e2:	8809      	ldrh	r1, [r1, #0]
      LCD_Scrolled = DISABLE;
 800e6e4:	4a45      	ldr	r2, [pc, #276]	; (800e7fc <__io_putchar+0x138>)
      LCD_CacheBuffer_yptr_bottom = LCD_CacheBuffer_yptr_bottom_bak;
 800e6e6:	8021      	strh	r1, [r4, #0]
      LCD_CacheBuffer_yptr_top    = LCD_CacheBuffer_yptr_top_bak;
 800e6e8:	4945      	ldr	r1, [pc, #276]	; (800e800 <__io_putchar+0x13c>)
      LCD_Scrolled = DISABLE;
 800e6ea:	7013      	strb	r3, [r2, #0]
      LCD_CacheBuffer_yptr_top    = LCD_CacheBuffer_yptr_top_bak;
 800e6ec:	8808      	ldrh	r0, [r1, #0]
      LCD_ScrollBackStep = 0;
 800e6ee:	4a45      	ldr	r2, [pc, #276]	; (800e804 <__io_putchar+0x140>)
      LCD_CacheBuffer_yptr_top    = LCD_CacheBuffer_yptr_top_bak;
 800e6f0:	4945      	ldr	r1, [pc, #276]	; (800e808 <__io_putchar+0x144>)
      LCD_ScrollBackStep = 0;
 800e6f2:	8013      	strh	r3, [r2, #0]
      LCD_CacheBuffer_yptr_top    = LCD_CacheBuffer_yptr_top_bak;
 800e6f4:	8008      	strh	r0, [r1, #0]
    if((LCD_CacheBuffer_xptr < (BSP_LCD_GetXSize()) / DrawProp[ActiveLayer].Width - 19) &&  ( ch != '\n'))
 800e6f6:	4e45      	ldr	r6, [pc, #276]	; (800e80c <__io_putchar+0x148>)
 800e6f8:	f8df 8124 	ldr.w	r8, [pc, #292]	; 800e820 <__io_putchar+0x15c>
 800e6fc:	8835      	ldrh	r5, [r6, #0]
 800e6fe:	f7fa fc95 	bl	800902c <BSP_LCD_GetXSize>
 800e702:	4a43      	ldr	r2, [pc, #268]	; (800e810 <__io_putchar+0x14c>)
 800e704:	4943      	ldr	r1, [pc, #268]	; (800e814 <__io_putchar+0x150>)
 800e706:	6813      	ldr	r3, [r2, #0]
 800e708:	9101      	str	r1, [sp, #4]
 800e70a:	f04f 0e0c 	mov.w	lr, #12
 800e70e:	fb0e 1303 	mla	r3, lr, r3, r1
 800e712:	4691      	mov	r9, r2
 800e714:	891b      	ldrh	r3, [r3, #8]
 800e716:	fbb0 f0f3 	udiv	r0, r0, r3
 800e71a:	3813      	subs	r0, #19
 800e71c:	4285      	cmp	r5, r0
 800e71e:	4635      	mov	r5, r6
 800e720:	d20e      	bcs.n	800e740 <__io_putchar+0x7c>
 800e722:	2f0a      	cmp	r7, #10
 800e724:	d00c      	beq.n	800e740 <__io_putchar+0x7c>
      LCD_CacheBuffer[LCD_CacheBuffer_yptr_bottom].line[LCD_CacheBuffer_xptr++] = (uint16_t)ch;
 800e726:	8832      	ldrh	r2, [r6, #0]
 800e728:	8823      	ldrh	r3, [r4, #0]
 800e72a:	1c51      	adds	r1, r2, #1
 800e72c:	8031      	strh	r1, [r6, #0]
        LCD_CacheBuffer[LCD_CacheBuffer_yptr_bottom].line[LCD_CacheBuffer_xptr++] = (uint16_t)ch;
 800e72e:	2184      	movs	r1, #132	; 0x84
 800e730:	fb01 8803 	mla	r8, r1, r3, r8
 800e734:	f808 7002 	strb.w	r7, [r8, r2]
}
 800e738:	4638      	mov	r0, r7
 800e73a:	b005      	add	sp, #20
 800e73c:	e8bd 8ff0 	ldmia.w	sp!, {r4, r5, r6, r7, r8, r9, sl, fp, pc}
      if(LCD_CacheBuffer_yptr_top >= LCD_CacheBuffer_yptr_bottom)
 800e740:	4e31      	ldr	r6, [pc, #196]	; (800e808 <__io_putchar+0x144>)
 800e742:	8822      	ldrh	r2, [r4, #0]
 800e744:	8833      	ldrh	r3, [r6, #0]
 800e746:	429a      	cmp	r2, r3
 800e748:	d809      	bhi.n	800e75e <__io_putchar+0x9a>
        if(LCD_CacheBuffer_yptr_invert == DISABLE)
 800e74a:	4a33      	ldr	r2, [pc, #204]	; (800e818 <__io_putchar+0x154>)
 800e74c:	7811      	ldrb	r1, [r2, #0]
 800e74e:	2900      	cmp	r1, #0
 800e750:	d13d      	bne.n	800e7ce <__io_putchar+0x10a>
          LCD_CacheBuffer_yptr_top++;
 800e752:	3301      	adds	r3, #1
 800e754:	b29b      	uxth	r3, r3
          if(LCD_CacheBuffer_yptr_top == LCD_CACHE_DEPTH)
 800e756:	2ba3      	cmp	r3, #163	; 0xa3
          LCD_CacheBuffer_yptr_top++;
 800e758:	bf14      	ite	ne
 800e75a:	8033      	strhne	r3, [r6, #0]
            LCD_CacheBuffer_yptr_top = 0;  
 800e75c:	8031      	strheq	r1, [r6, #0]
      for(idx = LCD_CacheBuffer_xptr ; idx < ((BSP_LCD_GetXSize()) / DrawProp[ActiveLayer].Width); idx++)
 800e75e:	f8b5 a000 	ldrh.w	sl, [r5]
 800e762:	f04f 0b0c 	mov.w	fp, #12
        LCD_CacheBuffer[LCD_CacheBuffer_yptr_bottom].line[LCD_CacheBuffer_xptr++] = 0;
 800e766:	2284      	movs	r2, #132	; 0x84
 800e768:	2100      	movs	r1, #0
 800e76a:	9103      	str	r1, [sp, #12]
 800e76c:	9202      	str	r2, [sp, #8]
      for(idx = LCD_CacheBuffer_xptr ; idx < ((BSP_LCD_GetXSize()) / DrawProp[ActiveLayer].Width); idx++)
 800e76e:	f7fa fc5d 	bl	800902c <BSP_LCD_GetXSize>
 800e772:	9a01      	ldr	r2, [sp, #4]
 800e774:	f8d9 3000 	ldr.w	r3, [r9]
 800e778:	9903      	ldr	r1, [sp, #12]
 800e77a:	fb0b 2303 	mla	r3, fp, r3, r2
 800e77e:	9a02      	ldr	r2, [sp, #8]
 800e780:	891b      	ldrh	r3, [r3, #8]
 800e782:	fbb0 f0f3 	udiv	r0, r0, r3
 800e786:	4582      	cmp	sl, r0
        LCD_CacheBuffer[LCD_CacheBuffer_yptr_bottom].line[LCD_CacheBuffer_xptr++] = 0;
 800e788:	8823      	ldrh	r3, [r4, #0]
      for(idx = LCD_CacheBuffer_xptr ; idx < ((BSP_LCD_GetXSize()) / DrawProp[ActiveLayer].Width); idx++)
 800e78a:	d323      	bcc.n	800e7d4 <__io_putchar+0x110>
      LCD_CacheBuffer[LCD_CacheBuffer_yptr_bottom].color = LCD_LineColor;  
 800e78c:	2284      	movs	r2, #132	; 0x84
 800e78e:	fb02 8303 	mla	r3, r2, r3, r8
 800e792:	4a22      	ldr	r2, [pc, #136]	; (800e81c <__io_putchar+0x158>)
 800e794:	6812      	ldr	r2, [r2, #0]
 800e796:	f8c3 2080 	str.w	r2, [r3, #128]	; 0x80
      LCD_CacheBuffer_xptr = 0;
 800e79a:	f04f 0900 	mov.w	r9, #0
 800e79e:	f8a5 9000 	strh.w	r9, [r5]
      LCD_LOG_UpdateDisplay ();
 800e7a2:	f7ff ff4f 	bl	800e644 <LCD_LOG_UpdateDisplay>
      LCD_CacheBuffer_yptr_bottom ++; //
 800e7a6:	8823      	ldrh	r3, [r4, #0]
 800e7a8:	3301      	adds	r3, #1
 800e7aa:	b29b      	uxth	r3, r3
      if(LCD_CacheBuffer_yptr_bottom == LCD_CACHE_DEPTH) //
 800e7ac:	2ba3      	cmp	r3, #163	; 0xa3
        LCD_CacheBuffer_yptr_invert = ENABLE;
 800e7ae:	bf09      	itett	eq
 800e7b0:	4a19      	ldreq	r2, [pc, #100]	; (800e818 <__io_putchar+0x154>)
      LCD_CacheBuffer_yptr_bottom ++; //
 800e7b2:	8023      	strhne	r3, [r4, #0]
        LCD_CacheBuffer_yptr_top = 1;    
 800e7b4:	2301      	moveq	r3, #1
    	LCD_CacheBuffer_yptr_bottom = 0;
 800e7b6:	f8a4 9000 	strheq.w	r9, [r4]
        LCD_CacheBuffer_yptr_top = 1;    
 800e7ba:	bf04      	itt	eq
 800e7bc:	8033      	strheq	r3, [r6, #0]
        LCD_CacheBuffer_yptr_invert = ENABLE;
 800e7be:	7013      	strbeq	r3, [r2, #0]
      if( ch != '\n')
 800e7c0:	2f0a      	cmp	r7, #10
 800e7c2:	d0b9      	beq.n	800e738 <__io_putchar+0x74>
        LCD_CacheBuffer[LCD_CacheBuffer_yptr_bottom].line[LCD_CacheBuffer_xptr++] = (uint16_t)ch;
 800e7c4:	882a      	ldrh	r2, [r5, #0]
 800e7c6:	8823      	ldrh	r3, [r4, #0]
 800e7c8:	1c51      	adds	r1, r2, #1
 800e7ca:	8029      	strh	r1, [r5, #0]
 800e7cc:	e7af      	b.n	800e72e <__io_putchar+0x6a>
          LCD_CacheBuffer_yptr_invert= DISABLE;
 800e7ce:	2300      	movs	r3, #0
 800e7d0:	7013      	strb	r3, [r2, #0]
 800e7d2:	e7c4      	b.n	800e75e <__io_putchar+0x9a>
        LCD_CacheBuffer[LCD_CacheBuffer_yptr_bottom].line[LCD_CacheBuffer_xptr++] = 0;
 800e7d4:	8828      	ldrh	r0, [r5, #0]
 800e7d6:	fb02 8303 	mla	r3, r2, r3, r8
 800e7da:	f100 0e01 	add.w	lr, r0, #1
 800e7de:	f8a5 e000 	strh.w	lr, [r5]
 800e7e2:	5419      	strb	r1, [r3, r0]
      for(idx = LCD_CacheBuffer_xptr ; idx < ((BSP_LCD_GetXSize()) / DrawProp[ActiveLayer].Width); idx++)
 800e7e4:	f10a 0a01 	add.w	sl, sl, #1
 800e7e8:	e7bf      	b.n	800e76a <__io_putchar+0xa6>
 800e7ea:	bf00      	nop
 800e7ec:	20001c05 	.word	0x20001c05
 800e7f0:	20001c0a 	.word	0x20001c0a
 800e7f4:	20001c00 	.word	0x20001c00
 800e7f8:	20001bfc 	.word	0x20001bfc
 800e7fc:	20001c06 	.word	0x20001c06
 800e800:	20001bfe 	.word	0x20001bfe
 800e804:	2000701c 	.word	0x2000701c
 800e808:	20001c08 	.word	0x20001c08
 800e80c:	20001c02 	.word	0x20001c02
 800e810:	2000179c 	.word	0x2000179c
 800e814:	20001924 	.word	0x20001924
 800e818:	20001c04 	.word	0x20001c04
 800e81c:	20007018 	.word	0x20007018
 800e820:	20001c0c 	.word	0x20001c0c

0800e824 <LCD_LOG_ScrollBack>:
  * @retval Status
  */

ErrorStatus LCD_LOG_ScrollBack(void)
{
  if(LCD_ScrollActive == DISABLE)
 800e824:	4a2c      	ldr	r2, [pc, #176]	; (800e8d8 <LCD_LOG_ScrollBack+0xb4>)
{
 800e826:	b538      	push	{r3, r4, r5, lr}
  if(LCD_ScrollActive == DISABLE)
 800e828:	7813      	ldrb	r3, [r2, #0]
 800e82a:	b9db      	cbnz	r3, 800e864 <LCD_LOG_ScrollBack+0x40>
  {
	  //Send_String("Case 1");
    LCD_CacheBuffer_yptr_bottom_bak = LCD_CacheBuffer_yptr_bottom;
 800e82c:	492b      	ldr	r1, [pc, #172]	; (800e8dc <LCD_LOG_ScrollBack+0xb8>)
 800e82e:	482c      	ldr	r0, [pc, #176]	; (800e8e0 <LCD_LOG_ScrollBack+0xbc>)
 800e830:	880b      	ldrh	r3, [r1, #0]
 800e832:	8003      	strh	r3, [r0, #0]
    LCD_CacheBuffer_yptr_top_bak    = LCD_CacheBuffer_yptr_top;
 800e834:	482b      	ldr	r0, [pc, #172]	; (800e8e4 <LCD_LOG_ScrollBack+0xc0>)
 800e836:	4c2c      	ldr	r4, [pc, #176]	; (800e8e8 <LCD_LOG_ScrollBack+0xc4>)
 800e838:	8800      	ldrh	r0, [r0, #0]
 800e83a:	8020      	strh	r0, [r4, #0]

    if(LCD_CacheBuffer_yptr_bottom > LCD_CacheBuffer_yptr_top) 
 800e83c:	4283      	cmp	r3, r0
 800e83e:	d907      	bls.n	800e850 <LCD_LOG_ScrollBack+0x2c>
    {
      
      if ((LCD_CacheBuffer_yptr_bottom - LCD_CacheBuffer_yptr_top) <=  YWINDOW_SIZE)
 800e840:	1a1c      	subs	r4, r3, r0
 800e842:	2c0d      	cmp	r4, #13
 800e844:	dc04      	bgt.n	800e850 <LCD_LOG_ScrollBack+0x2c>
      {
        LCD_Lock = DISABLE;
 800e846:	4b29      	ldr	r3, [pc, #164]	; (800e8ec <LCD_LOG_ScrollBack+0xc8>)
 800e848:	2200      	movs	r2, #0
 800e84a:	701a      	strb	r2, [r3, #0]
        return ERROR;
 800e84c:	2001      	movs	r0, #1
 800e84e:	bd38      	pop	{r3, r4, r5, pc}
      }
    }
    LCD_ScrollActive = ENABLE;
 800e850:	2401      	movs	r4, #1
    
    if((LCD_CacheBuffer_yptr_bottom  > LCD_CacheBuffer_yptr_top)&&
 800e852:	4283      	cmp	r3, r0
    LCD_ScrollActive = ENABLE;
 800e854:	7014      	strb	r4, [r2, #0]
    if((LCD_CacheBuffer_yptr_bottom  > LCD_CacheBuffer_yptr_top)&&
 800e856:	d908      	bls.n	800e86a <LCD_LOG_ScrollBack+0x46>
       (LCD_Scrolled == DISABLE ))
 800e858:	4825      	ldr	r0, [pc, #148]	; (800e8f0 <LCD_LOG_ScrollBack+0xcc>)
    if((LCD_CacheBuffer_yptr_bottom  > LCD_CacheBuffer_yptr_top)&&
 800e85a:	7805      	ldrb	r5, [r0, #0]
 800e85c:	b92d      	cbnz	r5, 800e86a <LCD_LOG_ScrollBack+0x46>
    {
      LCD_CacheBuffer_yptr_bottom--;
 800e85e:	3b01      	subs	r3, #1
 800e860:	800b      	strh	r3, [r1, #0]
      LCD_Scrolled = ENABLE;
 800e862:	7004      	strb	r4, [r0, #0]
    }
  }
  
  if(LCD_ScrollActive == ENABLE)
 800e864:	7813      	ldrb	r3, [r2, #0]
 800e866:	2b01      	cmp	r3, #1
 800e868:	d133      	bne.n	800e8d2 <LCD_LOG_ScrollBack+0xae>
  {
	  //Send_String("Case 2");
	  LCD_Lock = ENABLE;
    
    if(LCD_CacheBuffer_yptr_bottom > LCD_CacheBuffer_yptr_top) 
 800e86a:	481c      	ldr	r0, [pc, #112]	; (800e8dc <LCD_LOG_ScrollBack+0xb8>)
	  LCD_Lock = ENABLE;
 800e86c:	4c1f      	ldr	r4, [pc, #124]	; (800e8ec <LCD_LOG_ScrollBack+0xc8>)
    if(LCD_CacheBuffer_yptr_bottom > LCD_CacheBuffer_yptr_top) 
 800e86e:	4a1d      	ldr	r2, [pc, #116]	; (800e8e4 <LCD_LOG_ScrollBack+0xc0>)
	  LCD_Lock = ENABLE;
 800e870:	2301      	movs	r3, #1
 800e872:	7023      	strb	r3, [r4, #0]
    if(LCD_CacheBuffer_yptr_bottom > LCD_CacheBuffer_yptr_top) 
 800e874:	8812      	ldrh	r2, [r2, #0]
 800e876:	8803      	ldrh	r3, [r0, #0]
 800e878:	4293      	cmp	r3, r2
 800e87a:	4601      	mov	r1, r0
 800e87c:	d90d      	bls.n	800e89a <LCD_LOG_ScrollBack+0x76>
    {
      if((LCD_CacheBuffer_yptr_bottom  - LCD_CacheBuffer_yptr_top) <  YWINDOW_SIZE )
 800e87e:	1a9a      	subs	r2, r3, r2
 800e880:	2a0c      	cmp	r2, #12
 800e882:	dde0      	ble.n	800e846 <LCD_LOG_ScrollBack+0x22>
      {
        LCD_Lock = DISABLE;
        return ERROR;
      }
      
      LCD_CacheBuffer_yptr_bottom --;
 800e884:	3b01      	subs	r3, #1
 800e886:	8003      	strh	r3, [r0, #0]
    	  else LCD_CacheBuffer_yptr_bottom = LCD_CACHE_DEPTH - 2;
      }
#endif
    }

    LCD_ScrollBackStep++;
 800e888:	4a1a      	ldr	r2, [pc, #104]	; (800e8f4 <LCD_LOG_ScrollBack+0xd0>)
 800e88a:	8813      	ldrh	r3, [r2, #0]
 800e88c:	3301      	adds	r3, #1
 800e88e:	8013      	strh	r3, [r2, #0]

    //sprintf(buff, "Test value1 : %d, scroll value : %d", LCD_CacheBuffer_yptr_bottom, LCD_ScrollBackStep);
    //Send_String(buff);

    LCD_LOG_UpdateDisplay();
 800e890:	f7ff fed8 	bl	800e644 <LCD_LOG_UpdateDisplay>
    LCD_Lock = DISABLE;
 800e894:	2000      	movs	r0, #0
 800e896:	7020      	strb	r0, [r4, #0]
 800e898:	bd38      	pop	{r3, r4, r5, pc}
      if((LCD_CACHE_DEPTH  - LCD_CacheBuffer_yptr_top + LCD_CacheBuffer_yptr_bottom) < YWINDOW_SIZE)
 800e89a:	f1c2 00a3 	rsb	r0, r2, #163	; 0xa3
 800e89e:	4418      	add	r0, r3
 800e8a0:	280c      	cmp	r0, #12
 800e8a2:	ddd0      	ble.n	800e846 <LCD_LOG_ScrollBack+0x22>
      LCD_CacheBuffer_yptr_bottom --; //
 800e8a4:	1e58      	subs	r0, r3, #1
 800e8a6:	b280      	uxth	r0, r0
      if(LCD_CacheBuffer_yptr_bottom + 1 == LCD_CacheBuffer_yptr_top)
 800e8a8:	1c45      	adds	r5, r0, #1
 800e8aa:	42aa      	cmp	r2, r5
		  LCD_CacheBuffer_yptr_bottom--;
 800e8ac:	bf06      	itte	eq
 800e8ae:	3b02      	subeq	r3, #2
 800e8b0:	800b      	strheq	r3, [r1, #0]
      LCD_CacheBuffer_yptr_bottom --; //
 800e8b2:	8008      	strhne	r0, [r1, #0]
      else if(LCD_CacheBuffer_yptr_bottom == 0xFFFF)
 800e8b4:	880a      	ldrh	r2, [r1, #0]
 800e8b6:	f64f 73ff 	movw	r3, #65535	; 0xffff
 800e8ba:	429a      	cmp	r2, r3
 800e8bc:	d1e4      	bne.n	800e888 <LCD_LOG_ScrollBack+0x64>
    	  if(LCD_CacheBuffer_yptr_top_bak == LCD_CacheBuffer_yptr_bottom_bak)
 800e8be:	4b0a      	ldr	r3, [pc, #40]	; (800e8e8 <LCD_LOG_ScrollBack+0xc4>)
 800e8c0:	881a      	ldrh	r2, [r3, #0]
 800e8c2:	4b07      	ldr	r3, [pc, #28]	; (800e8e0 <LCD_LOG_ScrollBack+0xbc>)
 800e8c4:	881b      	ldrh	r3, [r3, #0]
 800e8c6:	429a      	cmp	r2, r3
    		  LCD_CacheBuffer_yptr_bottom = LCD_CACHE_DEPTH - 1;
 800e8c8:	bf0c      	ite	eq
 800e8ca:	23a2      	moveq	r3, #162	; 0xa2
    	  else LCD_CacheBuffer_yptr_bottom = LCD_CACHE_DEPTH - 2;
 800e8cc:	23a1      	movne	r3, #161	; 0xa1
 800e8ce:	800b      	strh	r3, [r1, #0]
 800e8d0:	e7da      	b.n	800e888 <LCD_LOG_ScrollBack+0x64>

  }
  return SUCCESS;
 800e8d2:	2000      	movs	r0, #0
}
 800e8d4:	bd38      	pop	{r3, r4, r5, pc}
 800e8d6:	bf00      	nop
 800e8d8:	20001c0a 	.word	0x20001c0a
 800e8dc:	20001c00 	.word	0x20001c00
 800e8e0:	20001bfc 	.word	0x20001bfc
 800e8e4:	20001c08 	.word	0x20001c08
 800e8e8:	20001bfe 	.word	0x20001bfe
 800e8ec:	20001c05 	.word	0x20001c05
 800e8f0:	20001c06 	.word	0x20001c06
 800e8f4:	2000701c 	.word	0x2000701c

0800e8f8 <LCD_LOG_ScrollForward>:
  * @brief  Display next text frame
  * @param  None
  * @retval Status
  */
ErrorStatus LCD_LOG_ScrollForward(void)
{
 800e8f8:	b5f8      	push	{r3, r4, r5, r6, r7, lr}
  
	//sprintf(buff, "bottom : %d, top : %d", LCD_CacheBuffer_yptr_bottom, LCD_CacheBuffer_yptr_top);
	//Send_String(buff);

  if(LCD_ScrollBackStep != 0)
 800e8fa:	4d1f      	ldr	r5, [pc, #124]	; (800e978 <LCD_LOG_ScrollForward+0x80>)
 800e8fc:	882e      	ldrh	r6, [r5, #0]
 800e8fe:	b17e      	cbz	r6, 800e920 <LCD_LOG_ScrollForward+0x28>
  {
    if(LCD_ScrollActive == DISABLE)
 800e900:	4a1e      	ldr	r2, [pc, #120]	; (800e97c <LCD_LOG_ScrollForward+0x84>)
 800e902:	7813      	ldrb	r3, [r2, #0]
 800e904:	b9db      	cbnz	r3, 800e93e <LCD_LOG_ScrollForward+0x46>
    {
      LCD_CacheBuffer_yptr_bottom_bak = LCD_CacheBuffer_yptr_bottom;
 800e906:	491e      	ldr	r1, [pc, #120]	; (800e980 <LCD_LOG_ScrollForward+0x88>)
 800e908:	481e      	ldr	r0, [pc, #120]	; (800e984 <LCD_LOG_ScrollForward+0x8c>)
 800e90a:	880b      	ldrh	r3, [r1, #0]
 800e90c:	8003      	strh	r3, [r0, #0]
      LCD_CacheBuffer_yptr_top_bak    = LCD_CacheBuffer_yptr_top;
 800e90e:	481e      	ldr	r0, [pc, #120]	; (800e988 <LCD_LOG_ScrollForward+0x90>)
 800e910:	4c1e      	ldr	r4, [pc, #120]	; (800e98c <LCD_LOG_ScrollForward+0x94>)
 800e912:	8800      	ldrh	r0, [r0, #0]
 800e914:	8020      	strh	r0, [r4, #0]
      
      if(LCD_CacheBuffer_yptr_bottom > LCD_CacheBuffer_yptr_top) 
 800e916:	4283      	cmp	r3, r0
 800e918:	d907      	bls.n	800e92a <LCD_LOG_ScrollForward+0x32>
      {
        
        if ((LCD_CacheBuffer_yptr_bottom - LCD_CacheBuffer_yptr_top) <=  YWINDOW_SIZE)
 800e91a:	1a1c      	subs	r4, r3, r0
 800e91c:	2c0d      	cmp	r4, #13
 800e91e:	dc04      	bgt.n	800e92a <LCD_LOG_ScrollForward+0x32>
        {
          //Send_String("Err case 1");
        	LCD_Lock = DISABLE;
 800e920:	4b1b      	ldr	r3, [pc, #108]	; (800e990 <LCD_LOG_ScrollForward+0x98>)
 800e922:	2200      	movs	r2, #0
 800e924:	701a      	strb	r2, [r3, #0]
          return ERROR;
 800e926:	2001      	movs	r0, #1
 800e928:	bdf8      	pop	{r3, r4, r5, r6, r7, pc}
        }
      }
      LCD_ScrollActive = ENABLE;
 800e92a:	2401      	movs	r4, #1
      
      if((LCD_CacheBuffer_yptr_bottom  > LCD_CacheBuffer_yptr_top)&&
 800e92c:	4283      	cmp	r3, r0
      LCD_ScrollActive = ENABLE;
 800e92e:	7014      	strb	r4, [r2, #0]
      if((LCD_CacheBuffer_yptr_bottom  > LCD_CacheBuffer_yptr_top)&&
 800e930:	d908      	bls.n	800e944 <LCD_LOG_ScrollForward+0x4c>
         (LCD_Scrolled == DISABLE ))
 800e932:	4818      	ldr	r0, [pc, #96]	; (800e994 <LCD_LOG_ScrollForward+0x9c>)
      if((LCD_CacheBuffer_yptr_bottom  > LCD_CacheBuffer_yptr_top)&&
 800e934:	7807      	ldrb	r7, [r0, #0]
 800e936:	b92f      	cbnz	r7, 800e944 <LCD_LOG_ScrollForward+0x4c>
      {
        LCD_CacheBuffer_yptr_bottom--;
 800e938:	3b01      	subs	r3, #1
 800e93a:	800b      	strh	r3, [r1, #0]
        LCD_Scrolled = ENABLE;
 800e93c:	7004      	strb	r4, [r0, #0]
      }
      
    }
    
    if(LCD_ScrollActive == ENABLE)
 800e93e:	7813      	ldrb	r3, [r2, #0]
 800e940:	2b01      	cmp	r3, #1
 800e942:	d116      	bne.n	800e972 <LCD_LOG_ScrollForward+0x7a>
    {
      LCD_Lock = ENABLE;
 800e944:	4c12      	ldr	r4, [pc, #72]	; (800e990 <LCD_LOG_ScrollForward+0x98>)
      LCD_ScrollBackStep--; //
      //LCD_CacheBuffer_yptr_bottom++; //
#if 1
      if(LCD_CacheBuffer_yptr_bottom + 1 == LCD_CacheBuffer_yptr_top);
 800e946:	4810      	ldr	r0, [pc, #64]	; (800e988 <LCD_LOG_ScrollForward+0x90>)
      LCD_Lock = ENABLE;
 800e948:	2301      	movs	r3, #1
 800e94a:	7023      	strb	r3, [r4, #0]
      LCD_ScrollBackStep--; //
 800e94c:	1e73      	subs	r3, r6, #1
 800e94e:	802b      	strh	r3, [r5, #0]
      if(LCD_CacheBuffer_yptr_bottom + 1 == LCD_CacheBuffer_yptr_top);
 800e950:	4b0b      	ldr	r3, [pc, #44]	; (800e980 <LCD_LOG_ScrollForward+0x88>)
 800e952:	8800      	ldrh	r0, [r0, #0]
 800e954:	8819      	ldrh	r1, [r3, #0]
 800e956:	3101      	adds	r1, #1
 800e958:	4281      	cmp	r1, r0
      else
      {
    	  LCD_CacheBuffer_yptr_bottom++;
 800e95a:	bf18      	it	ne
 800e95c:	8019      	strhne	r1, [r3, #0]
      }
#endif
      //if(++LCD_CacheBuffer_yptr_bottom == LCD_CACHE_DEPTH) //
      if(LCD_CacheBuffer_yptr_bottom == LCD_CACHE_DEPTH)
 800e95e:	881a      	ldrh	r2, [r3, #0]
 800e960:	2aa3      	cmp	r2, #163	; 0xa3
      {
        LCD_CacheBuffer_yptr_bottom = 0;
 800e962:	bf04      	itt	eq
 800e964:	2200      	moveq	r2, #0
 800e966:	801a      	strheq	r2, [r3, #0]
      }

	  LCD_LOG_UpdateDisplay();
 800e968:	f7ff fe6c 	bl	800e644 <LCD_LOG_UpdateDisplay>

      LCD_Lock = DISABLE;
 800e96c:	2000      	movs	r0, #0
 800e96e:	7020      	strb	r0, [r4, #0]
 800e970:	bdf8      	pop	{r3, r4, r5, r6, r7, pc}

    } 
    return SUCCESS;
 800e972:	2000      	movs	r0, #0
  {
	  //Send_String("Err case 2");
	  LCD_Lock = DISABLE;
    return ERROR;
  }  
}
 800e974:	bdf8      	pop	{r3, r4, r5, r6, r7, pc}
 800e976:	bf00      	nop
 800e978:	2000701c 	.word	0x2000701c
 800e97c:	20001c0a 	.word	0x20001c0a
 800e980:	20001c00 	.word	0x20001c00
 800e984:	20001bfc 	.word	0x20001bfc
 800e988:	20001c08 	.word	0x20001c08
 800e98c:	20001bfe 	.word	0x20001bfe
 800e990:	20001c05 	.word	0x20001c05
 800e994:	20001c06 	.word	0x20001c06

0800e998 <Reset_Handler>:

    .section  .text.Reset_Handler
  .weak  Reset_Handler
  .type  Reset_Handler, %function
Reset_Handler:  
  ldr   sp, =_estack    		 /* set stack pointer */
 800e998:	f8df d034 	ldr.w	sp, [pc, #52]	; 800e9d0 <LoopFillZerobss+0x14>

/* Copy the data segment initializers from flash to SRAM */  
  movs  r1, #0
 800e99c:	2100      	movs	r1, #0
  b  LoopCopyDataInit
 800e99e:	e003      	b.n	800e9a8 <LoopCopyDataInit>

0800e9a0 <CopyDataInit>:

CopyDataInit:
  ldr  r3, =_sidata
 800e9a0:	4b0c      	ldr	r3, [pc, #48]	; (800e9d4 <LoopFillZerobss+0x18>)
  ldr  r3, [r3, r1]
 800e9a2:	585b      	ldr	r3, [r3, r1]
  str  r3, [r0, r1]
 800e9a4:	5043      	str	r3, [r0, r1]
  adds  r1, r1, #4
 800e9a6:	3104      	adds	r1, #4

0800e9a8 <LoopCopyDataInit>:
    
LoopCopyDataInit:
  ldr  r0, =_sdata
 800e9a8:	480b      	ldr	r0, [pc, #44]	; (800e9d8 <LoopFillZerobss+0x1c>)
  ldr  r3, =_edata
 800e9aa:	4b0c      	ldr	r3, [pc, #48]	; (800e9dc <LoopFillZerobss+0x20>)
  adds  r2, r0, r1
 800e9ac:	1842      	adds	r2, r0, r1
  cmp  r2, r3
 800e9ae:	429a      	cmp	r2, r3
  bcc  CopyDataInit
 800e9b0:	d3f6      	bcc.n	800e9a0 <CopyDataInit>
  ldr  r2, =_sbss
 800e9b2:	4a0b      	ldr	r2, [pc, #44]	; (800e9e0 <LoopFillZerobss+0x24>)
  b  LoopFillZerobss
 800e9b4:	e002      	b.n	800e9bc <LoopFillZerobss>

0800e9b6 <FillZerobss>:
/* Zero fill the bss segment. */  
FillZerobss:
  movs  r3, #0
 800e9b6:	2300      	movs	r3, #0
  str  r3, [r2], #4
 800e9b8:	f842 3b04 	str.w	r3, [r2], #4

0800e9bc <LoopFillZerobss>:
    
LoopFillZerobss:
  ldr  r3, = _ebss
 800e9bc:	4b09      	ldr	r3, [pc, #36]	; (800e9e4 <LoopFillZerobss+0x28>)
  cmp  r2, r3
 800e9be:	429a      	cmp	r2, r3
  bcc  FillZerobss
 800e9c0:	d3f9      	bcc.n	800e9b6 <FillZerobss>

/* Call the clock system intitialization function.*/
  bl  SystemInit   
 800e9c2:	f7ff fde1 	bl	800e588 <SystemInit>
/* Call static constructors */
    bl __libc_init_array
 800e9c6:	f000 f817 	bl	800e9f8 <__libc_init_array>
/* Call the application's entry point.*/
  bl  main
 800e9ca:	f7fe fc9d 	bl	800d308 <main>
  bx  lr    
 800e9ce:	4770      	bx	lr
  ldr   sp, =_estack    		 /* set stack pointer */
 800e9d0:	20020000 	.word	0x20020000
  ldr  r3, =_sidata
 800e9d4:	0801296c 	.word	0x0801296c
  ldr  r0, =_sdata
 800e9d8:	20000000 	.word	0x20000000
  ldr  r3, =_edata
 800e9dc:	20001780 	.word	0x20001780
  ldr  r2, =_sbss
 800e9e0:	20001780 	.word	0x20001780
  ldr  r3, = _ebss
 800e9e4:	20007024 	.word	0x20007024

0800e9e8 <ADC_IRQHandler>:
 * @retval None       
*/
    .section  .text.Default_Handler,"ax",%progbits
Default_Handler:
Infinite_Loop:
  b  Infinite_Loop
 800e9e8:	e7fe      	b.n	800e9e8 <ADC_IRQHandler>
	...

0800e9ec <__errno>:
 800e9ec:	4b01      	ldr	r3, [pc, #4]	; (800e9f4 <__errno+0x8>)
 800e9ee:	6818      	ldr	r0, [r3, #0]
 800e9f0:	4770      	bx	lr
 800e9f2:	bf00      	nop
 800e9f4:	200015b0 	.word	0x200015b0

0800e9f8 <__libc_init_array>:
 800e9f8:	b570      	push	{r4, r5, r6, lr}
 800e9fa:	4e0d      	ldr	r6, [pc, #52]	; (800ea30 <__libc_init_array+0x38>)
 800e9fc:	4c0d      	ldr	r4, [pc, #52]	; (800ea34 <__libc_init_array+0x3c>)
 800e9fe:	1ba4      	subs	r4, r4, r6
 800ea00:	10a4      	asrs	r4, r4, #2
 800ea02:	2500      	movs	r5, #0
 800ea04:	42a5      	cmp	r5, r4
 800ea06:	d109      	bne.n	800ea1c <__libc_init_array+0x24>
 800ea08:	4e0b      	ldr	r6, [pc, #44]	; (800ea38 <__libc_init_array+0x40>)
 800ea0a:	4c0c      	ldr	r4, [pc, #48]	; (800ea3c <__libc_init_array+0x44>)
 800ea0c:	f002 fe58 	bl	80116c0 <_init>
 800ea10:	1ba4      	subs	r4, r4, r6
 800ea12:	10a4      	asrs	r4, r4, #2
 800ea14:	2500      	movs	r5, #0
 800ea16:	42a5      	cmp	r5, r4
 800ea18:	d105      	bne.n	800ea26 <__libc_init_array+0x2e>
 800ea1a:	bd70      	pop	{r4, r5, r6, pc}
 800ea1c:	f856 3025 	ldr.w	r3, [r6, r5, lsl #2]
 800ea20:	4798      	blx	r3
 800ea22:	3501      	adds	r5, #1
 800ea24:	e7ee      	b.n	800ea04 <__libc_init_array+0xc>
 800ea26:	f856 3025 	ldr.w	r3, [r6, r5, lsl #2]
 800ea2a:	4798      	blx	r3
 800ea2c:	3501      	adds	r5, #1
 800ea2e:	e7f2      	b.n	800ea16 <__libc_init_array+0x1e>
 800ea30:	08012964 	.word	0x08012964
 800ea34:	08012964 	.word	0x08012964
 800ea38:	08012964 	.word	0x08012964
 800ea3c:	08012968 	.word	0x08012968

0800ea40 <memset>:
 800ea40:	4402      	add	r2, r0
 800ea42:	4603      	mov	r3, r0
 800ea44:	4293      	cmp	r3, r2
 800ea46:	d100      	bne.n	800ea4a <memset+0xa>
 800ea48:	4770      	bx	lr
 800ea4a:	f803 1b01 	strb.w	r1, [r3], #1
 800ea4e:	e7f9      	b.n	800ea44 <memset+0x4>

0800ea50 <__cvt>:
 800ea50:	e92d 47ff 	stmdb	sp!, {r0, r1, r2, r3, r4, r5, r6, r7, r8, r9, sl, lr}
 800ea54:	ec55 4b10 	vmov	r4, r5, d0
 800ea58:	9f0d      	ldr	r7, [sp, #52]	; 0x34
 800ea5a:	f8dd a030 	ldr.w	sl, [sp, #48]	; 0x30
 800ea5e:	2d00      	cmp	r5, #0
 800ea60:	460e      	mov	r6, r1
 800ea62:	4691      	mov	r9, r2
 800ea64:	4619      	mov	r1, r3
 800ea66:	bfb8      	it	lt
 800ea68:	4622      	movlt	r2, r4
 800ea6a:	462b      	mov	r3, r5
 800ea6c:	f027 0720 	bic.w	r7, r7, #32
 800ea70:	bfbb      	ittet	lt
 800ea72:	f105 4300 	addlt.w	r3, r5, #2147483648	; 0x80000000
 800ea76:	461d      	movlt	r5, r3
 800ea78:	2300      	movge	r3, #0
 800ea7a:	232d      	movlt	r3, #45	; 0x2d
 800ea7c:	bfb8      	it	lt
 800ea7e:	4614      	movlt	r4, r2
 800ea80:	2f46      	cmp	r7, #70	; 0x46
 800ea82:	700b      	strb	r3, [r1, #0]
 800ea84:	d004      	beq.n	800ea90 <__cvt+0x40>
 800ea86:	2f45      	cmp	r7, #69	; 0x45
 800ea88:	d100      	bne.n	800ea8c <__cvt+0x3c>
 800ea8a:	3601      	adds	r6, #1
 800ea8c:	2102      	movs	r1, #2
 800ea8e:	e000      	b.n	800ea92 <__cvt+0x42>
 800ea90:	2103      	movs	r1, #3
 800ea92:	ab03      	add	r3, sp, #12
 800ea94:	9301      	str	r3, [sp, #4]
 800ea96:	ab02      	add	r3, sp, #8
 800ea98:	9300      	str	r3, [sp, #0]
 800ea9a:	4632      	mov	r2, r6
 800ea9c:	4653      	mov	r3, sl
 800ea9e:	ec45 4b10 	vmov	d0, r4, r5
 800eaa2:	f000 fefd 	bl	800f8a0 <_dtoa_r>
 800eaa6:	2f47      	cmp	r7, #71	; 0x47
 800eaa8:	4680      	mov	r8, r0
 800eaaa:	d102      	bne.n	800eab2 <__cvt+0x62>
 800eaac:	f019 0f01 	tst.w	r9, #1
 800eab0:	d026      	beq.n	800eb00 <__cvt+0xb0>
 800eab2:	2f46      	cmp	r7, #70	; 0x46
 800eab4:	eb08 0906 	add.w	r9, r8, r6
 800eab8:	d111      	bne.n	800eade <__cvt+0x8e>
 800eaba:	f898 3000 	ldrb.w	r3, [r8]
 800eabe:	2b30      	cmp	r3, #48	; 0x30
 800eac0:	d10a      	bne.n	800ead8 <__cvt+0x88>
 800eac2:	2200      	movs	r2, #0
 800eac4:	2300      	movs	r3, #0
 800eac6:	4620      	mov	r0, r4
 800eac8:	4629      	mov	r1, r5
 800eaca:	f7fa f801 	bl	8008ad0 <__aeabi_dcmpeq>
 800eace:	b918      	cbnz	r0, 800ead8 <__cvt+0x88>
 800ead0:	f1c6 0601 	rsb	r6, r6, #1
 800ead4:	f8ca 6000 	str.w	r6, [sl]
 800ead8:	f8da 3000 	ldr.w	r3, [sl]
 800eadc:	4499      	add	r9, r3
 800eade:	2200      	movs	r2, #0
 800eae0:	2300      	movs	r3, #0
 800eae2:	4620      	mov	r0, r4
 800eae4:	4629      	mov	r1, r5
 800eae6:	f7f9 fff3 	bl	8008ad0 <__aeabi_dcmpeq>
 800eaea:	b938      	cbnz	r0, 800eafc <__cvt+0xac>
 800eaec:	2230      	movs	r2, #48	; 0x30
 800eaee:	9b03      	ldr	r3, [sp, #12]
 800eaf0:	4599      	cmp	r9, r3
 800eaf2:	d905      	bls.n	800eb00 <__cvt+0xb0>
 800eaf4:	1c59      	adds	r1, r3, #1
 800eaf6:	9103      	str	r1, [sp, #12]
 800eaf8:	701a      	strb	r2, [r3, #0]
 800eafa:	e7f8      	b.n	800eaee <__cvt+0x9e>
 800eafc:	f8cd 900c 	str.w	r9, [sp, #12]
 800eb00:	9b03      	ldr	r3, [sp, #12]
 800eb02:	9a0e      	ldr	r2, [sp, #56]	; 0x38
 800eb04:	eba3 0308 	sub.w	r3, r3, r8
 800eb08:	4640      	mov	r0, r8
 800eb0a:	6013      	str	r3, [r2, #0]
 800eb0c:	b004      	add	sp, #16
 800eb0e:	e8bd 87f0 	ldmia.w	sp!, {r4, r5, r6, r7, r8, r9, sl, pc}

0800eb12 <__exponent>:
 800eb12:	b5f7      	push	{r0, r1, r2, r4, r5, r6, r7, lr}
 800eb14:	4603      	mov	r3, r0
 800eb16:	2900      	cmp	r1, #0
 800eb18:	bfb8      	it	lt
 800eb1a:	4249      	neglt	r1, r1
 800eb1c:	f803 2b02 	strb.w	r2, [r3], #2
 800eb20:	bfb4      	ite	lt
 800eb22:	222d      	movlt	r2, #45	; 0x2d
 800eb24:	222b      	movge	r2, #43	; 0x2b
 800eb26:	2909      	cmp	r1, #9
 800eb28:	7042      	strb	r2, [r0, #1]
 800eb2a:	dd20      	ble.n	800eb6e <__exponent+0x5c>
 800eb2c:	f10d 0207 	add.w	r2, sp, #7
 800eb30:	4617      	mov	r7, r2
 800eb32:	260a      	movs	r6, #10
 800eb34:	fb91 f5f6 	sdiv	r5, r1, r6
 800eb38:	fb06 1115 	mls	r1, r6, r5, r1
 800eb3c:	3130      	adds	r1, #48	; 0x30
 800eb3e:	2d09      	cmp	r5, #9
 800eb40:	f802 1c01 	strb.w	r1, [r2, #-1]
 800eb44:	f102 34ff 	add.w	r4, r2, #4294967295
 800eb48:	4629      	mov	r1, r5
 800eb4a:	dc09      	bgt.n	800eb60 <__exponent+0x4e>
 800eb4c:	3130      	adds	r1, #48	; 0x30
 800eb4e:	3a02      	subs	r2, #2
 800eb50:	f804 1c01 	strb.w	r1, [r4, #-1]
 800eb54:	42ba      	cmp	r2, r7
 800eb56:	461c      	mov	r4, r3
 800eb58:	d304      	bcc.n	800eb64 <__exponent+0x52>
 800eb5a:	1a20      	subs	r0, r4, r0
 800eb5c:	b003      	add	sp, #12
 800eb5e:	bdf0      	pop	{r4, r5, r6, r7, pc}
 800eb60:	4622      	mov	r2, r4
 800eb62:	e7e7      	b.n	800eb34 <__exponent+0x22>
 800eb64:	f812 1b01 	ldrb.w	r1, [r2], #1
 800eb68:	f803 1b01 	strb.w	r1, [r3], #1
 800eb6c:	e7f2      	b.n	800eb54 <__exponent+0x42>
 800eb6e:	2230      	movs	r2, #48	; 0x30
 800eb70:	461c      	mov	r4, r3
 800eb72:	4411      	add	r1, r2
 800eb74:	f804 2b02 	strb.w	r2, [r4], #2
 800eb78:	7059      	strb	r1, [r3, #1]
 800eb7a:	e7ee      	b.n	800eb5a <__exponent+0x48>

0800eb7c <_printf_float>:
 800eb7c:	e92d 4ff0 	stmdb	sp!, {r4, r5, r6, r7, r8, r9, sl, fp, lr}
 800eb80:	b08d      	sub	sp, #52	; 0x34
 800eb82:	460c      	mov	r4, r1
 800eb84:	f8dd 8058 	ldr.w	r8, [sp, #88]	; 0x58
 800eb88:	4616      	mov	r6, r2
 800eb8a:	461f      	mov	r7, r3
 800eb8c:	4605      	mov	r5, r0
 800eb8e:	f001 fdd1 	bl	8010734 <_localeconv_r>
 800eb92:	6803      	ldr	r3, [r0, #0]
 800eb94:	9304      	str	r3, [sp, #16]
 800eb96:	4618      	mov	r0, r3
 800eb98:	f7f9 fb22 	bl	80081e0 <strlen>
 800eb9c:	2300      	movs	r3, #0
 800eb9e:	930a      	str	r3, [sp, #40]	; 0x28
 800eba0:	f8d8 3000 	ldr.w	r3, [r8]
 800eba4:	9005      	str	r0, [sp, #20]
 800eba6:	3307      	adds	r3, #7
 800eba8:	f023 0307 	bic.w	r3, r3, #7
 800ebac:	f103 0208 	add.w	r2, r3, #8
 800ebb0:	f894 a018 	ldrb.w	sl, [r4, #24]
 800ebb4:	f8d4 b000 	ldr.w	fp, [r4]
 800ebb8:	f8c8 2000 	str.w	r2, [r8]
 800ebbc:	e9d3 2300 	ldrd	r2, r3, [r3]
 800ebc0:	e9c4 2312 	strd	r2, r3, [r4, #72]	; 0x48
 800ebc4:	e9d4 8912 	ldrd	r8, r9, [r4, #72]	; 0x48
 800ebc8:	f029 4300 	bic.w	r3, r9, #2147483648	; 0x80000000
 800ebcc:	9307      	str	r3, [sp, #28]
 800ebce:	f8cd 8018 	str.w	r8, [sp, #24]
 800ebd2:	f04f 32ff 	mov.w	r2, #4294967295
 800ebd6:	4ba5      	ldr	r3, [pc, #660]	; (800ee6c <_printf_float+0x2f0>)
 800ebd8:	e9dd 0106 	ldrd	r0, r1, [sp, #24]
 800ebdc:	f7f9 ffaa 	bl	8008b34 <__aeabi_dcmpun>
 800ebe0:	2800      	cmp	r0, #0
 800ebe2:	f040 81fb 	bne.w	800efdc <_printf_float+0x460>
 800ebe6:	f04f 32ff 	mov.w	r2, #4294967295
 800ebea:	4ba0      	ldr	r3, [pc, #640]	; (800ee6c <_printf_float+0x2f0>)
 800ebec:	e9dd 0106 	ldrd	r0, r1, [sp, #24]
 800ebf0:	f7f9 ff82 	bl	8008af8 <__aeabi_dcmple>
 800ebf4:	2800      	cmp	r0, #0
 800ebf6:	f040 81f1 	bne.w	800efdc <_printf_float+0x460>
 800ebfa:	2200      	movs	r2, #0
 800ebfc:	2300      	movs	r3, #0
 800ebfe:	4640      	mov	r0, r8
 800ec00:	4649      	mov	r1, r9
 800ec02:	f7f9 ff6f 	bl	8008ae4 <__aeabi_dcmplt>
 800ec06:	b110      	cbz	r0, 800ec0e <_printf_float+0x92>
 800ec08:	232d      	movs	r3, #45	; 0x2d
 800ec0a:	f884 3043 	strb.w	r3, [r4, #67]	; 0x43
 800ec0e:	4b98      	ldr	r3, [pc, #608]	; (800ee70 <_printf_float+0x2f4>)
 800ec10:	4a98      	ldr	r2, [pc, #608]	; (800ee74 <_printf_float+0x2f8>)
 800ec12:	f1ba 0f47 	cmp.w	sl, #71	; 0x47
 800ec16:	bf8c      	ite	hi
 800ec18:	4690      	movhi	r8, r2
 800ec1a:	4698      	movls	r8, r3
 800ec1c:	2303      	movs	r3, #3
 800ec1e:	f02b 0204 	bic.w	r2, fp, #4
 800ec22:	6123      	str	r3, [r4, #16]
 800ec24:	6022      	str	r2, [r4, #0]
 800ec26:	f04f 0900 	mov.w	r9, #0
 800ec2a:	9700      	str	r7, [sp, #0]
 800ec2c:	4633      	mov	r3, r6
 800ec2e:	aa0b      	add	r2, sp, #44	; 0x2c
 800ec30:	4621      	mov	r1, r4
 800ec32:	4628      	mov	r0, r5
 800ec34:	f000 f9e2 	bl	800effc <_printf_common>
 800ec38:	3001      	adds	r0, #1
 800ec3a:	f040 8093 	bne.w	800ed64 <_printf_float+0x1e8>
 800ec3e:	f04f 30ff 	mov.w	r0, #4294967295
 800ec42:	b00d      	add	sp, #52	; 0x34
 800ec44:	e8bd 8ff0 	ldmia.w	sp!, {r4, r5, r6, r7, r8, r9, sl, fp, pc}
 800ec48:	6861      	ldr	r1, [r4, #4]
 800ec4a:	1c4b      	adds	r3, r1, #1
 800ec4c:	f44b 6280 	orr.w	r2, fp, #1024	; 0x400
 800ec50:	d13f      	bne.n	800ecd2 <_printf_float+0x156>
 800ec52:	2306      	movs	r3, #6
 800ec54:	6063      	str	r3, [r4, #4]
 800ec56:	2300      	movs	r3, #0
 800ec58:	9303      	str	r3, [sp, #12]
 800ec5a:	ab0a      	add	r3, sp, #40	; 0x28
 800ec5c:	9302      	str	r3, [sp, #8]
 800ec5e:	ab09      	add	r3, sp, #36	; 0x24
 800ec60:	9300      	str	r3, [sp, #0]
 800ec62:	ec49 8b10 	vmov	d0, r8, r9
 800ec66:	f10d 0323 	add.w	r3, sp, #35	; 0x23
 800ec6a:	6022      	str	r2, [r4, #0]
 800ec6c:	f8cd a004 	str.w	sl, [sp, #4]
 800ec70:	6861      	ldr	r1, [r4, #4]
 800ec72:	4628      	mov	r0, r5
 800ec74:	f7ff feec 	bl	800ea50 <__cvt>
 800ec78:	f00a 03df 	and.w	r3, sl, #223	; 0xdf
 800ec7c:	2b47      	cmp	r3, #71	; 0x47
 800ec7e:	4680      	mov	r8, r0
 800ec80:	d109      	bne.n	800ec96 <_printf_float+0x11a>
 800ec82:	9b09      	ldr	r3, [sp, #36]	; 0x24
 800ec84:	1cd8      	adds	r0, r3, #3
 800ec86:	db02      	blt.n	800ec8e <_printf_float+0x112>
 800ec88:	6862      	ldr	r2, [r4, #4]
 800ec8a:	4293      	cmp	r3, r2
 800ec8c:	dd57      	ble.n	800ed3e <_printf_float+0x1c2>
 800ec8e:	f1aa 0a02 	sub.w	sl, sl, #2
 800ec92:	fa5f fa8a 	uxtb.w	sl, sl
 800ec96:	f1ba 0f65 	cmp.w	sl, #101	; 0x65
 800ec9a:	9909      	ldr	r1, [sp, #36]	; 0x24
 800ec9c:	d834      	bhi.n	800ed08 <_printf_float+0x18c>
 800ec9e:	3901      	subs	r1, #1
 800eca0:	4652      	mov	r2, sl
 800eca2:	f104 0050 	add.w	r0, r4, #80	; 0x50
 800eca6:	9109      	str	r1, [sp, #36]	; 0x24
 800eca8:	f7ff ff33 	bl	800eb12 <__exponent>
 800ecac:	9a0a      	ldr	r2, [sp, #40]	; 0x28
 800ecae:	1883      	adds	r3, r0, r2
 800ecb0:	2a01      	cmp	r2, #1
 800ecb2:	4681      	mov	r9, r0
 800ecb4:	6123      	str	r3, [r4, #16]
 800ecb6:	dc02      	bgt.n	800ecbe <_printf_float+0x142>
 800ecb8:	6822      	ldr	r2, [r4, #0]
 800ecba:	07d1      	lsls	r1, r2, #31
 800ecbc:	d501      	bpl.n	800ecc2 <_printf_float+0x146>
 800ecbe:	3301      	adds	r3, #1
 800ecc0:	6123      	str	r3, [r4, #16]
 800ecc2:	f89d 3023 	ldrb.w	r3, [sp, #35]	; 0x23
 800ecc6:	2b00      	cmp	r3, #0
 800ecc8:	d0af      	beq.n	800ec2a <_printf_float+0xae>
 800ecca:	232d      	movs	r3, #45	; 0x2d
 800eccc:	f884 3043 	strb.w	r3, [r4, #67]	; 0x43
 800ecd0:	e7ab      	b.n	800ec2a <_printf_float+0xae>
 800ecd2:	f1ba 0f67 	cmp.w	sl, #103	; 0x67
 800ecd6:	d002      	beq.n	800ecde <_printf_float+0x162>
 800ecd8:	f1ba 0f47 	cmp.w	sl, #71	; 0x47
 800ecdc:	d1bb      	bne.n	800ec56 <_printf_float+0xda>
 800ecde:	b189      	cbz	r1, 800ed04 <_printf_float+0x188>
 800ece0:	2300      	movs	r3, #0
 800ece2:	9303      	str	r3, [sp, #12]
 800ece4:	ab0a      	add	r3, sp, #40	; 0x28
 800ece6:	9302      	str	r3, [sp, #8]
 800ece8:	ab09      	add	r3, sp, #36	; 0x24
 800ecea:	9300      	str	r3, [sp, #0]
 800ecec:	ec49 8b10 	vmov	d0, r8, r9
 800ecf0:	6022      	str	r2, [r4, #0]
 800ecf2:	f8cd a004 	str.w	sl, [sp, #4]
 800ecf6:	f10d 0323 	add.w	r3, sp, #35	; 0x23
 800ecfa:	4628      	mov	r0, r5
 800ecfc:	f7ff fea8 	bl	800ea50 <__cvt>
 800ed00:	4680      	mov	r8, r0
 800ed02:	e7be      	b.n	800ec82 <_printf_float+0x106>
 800ed04:	2301      	movs	r3, #1
 800ed06:	e7a5      	b.n	800ec54 <_printf_float+0xd8>
 800ed08:	f1ba 0f66 	cmp.w	sl, #102	; 0x66
 800ed0c:	d119      	bne.n	800ed42 <_printf_float+0x1c6>
 800ed0e:	2900      	cmp	r1, #0
 800ed10:	6863      	ldr	r3, [r4, #4]
 800ed12:	dd0c      	ble.n	800ed2e <_printf_float+0x1b2>
 800ed14:	6121      	str	r1, [r4, #16]
 800ed16:	b913      	cbnz	r3, 800ed1e <_printf_float+0x1a2>
 800ed18:	6822      	ldr	r2, [r4, #0]
 800ed1a:	07d2      	lsls	r2, r2, #31
 800ed1c:	d502      	bpl.n	800ed24 <_printf_float+0x1a8>
 800ed1e:	3301      	adds	r3, #1
 800ed20:	440b      	add	r3, r1
 800ed22:	6123      	str	r3, [r4, #16]
 800ed24:	9b09      	ldr	r3, [sp, #36]	; 0x24
 800ed26:	65a3      	str	r3, [r4, #88]	; 0x58
 800ed28:	f04f 0900 	mov.w	r9, #0
 800ed2c:	e7c9      	b.n	800ecc2 <_printf_float+0x146>
 800ed2e:	b913      	cbnz	r3, 800ed36 <_printf_float+0x1ba>
 800ed30:	6822      	ldr	r2, [r4, #0]
 800ed32:	07d0      	lsls	r0, r2, #31
 800ed34:	d501      	bpl.n	800ed3a <_printf_float+0x1be>
 800ed36:	3302      	adds	r3, #2
 800ed38:	e7f3      	b.n	800ed22 <_printf_float+0x1a6>
 800ed3a:	2301      	movs	r3, #1
 800ed3c:	e7f1      	b.n	800ed22 <_printf_float+0x1a6>
 800ed3e:	f04f 0a67 	mov.w	sl, #103	; 0x67
 800ed42:	9b09      	ldr	r3, [sp, #36]	; 0x24
 800ed44:	9a0a      	ldr	r2, [sp, #40]	; 0x28
 800ed46:	4293      	cmp	r3, r2
 800ed48:	db05      	blt.n	800ed56 <_printf_float+0x1da>
 800ed4a:	6822      	ldr	r2, [r4, #0]
 800ed4c:	6123      	str	r3, [r4, #16]
 800ed4e:	07d1      	lsls	r1, r2, #31
 800ed50:	d5e8      	bpl.n	800ed24 <_printf_float+0x1a8>
 800ed52:	3301      	adds	r3, #1
 800ed54:	e7e5      	b.n	800ed22 <_printf_float+0x1a6>
 800ed56:	2b00      	cmp	r3, #0
 800ed58:	bfd4      	ite	le
 800ed5a:	f1c3 0302 	rsble	r3, r3, #2
 800ed5e:	2301      	movgt	r3, #1
 800ed60:	4413      	add	r3, r2
 800ed62:	e7de      	b.n	800ed22 <_printf_float+0x1a6>
 800ed64:	6823      	ldr	r3, [r4, #0]
 800ed66:	055a      	lsls	r2, r3, #21
 800ed68:	d407      	bmi.n	800ed7a <_printf_float+0x1fe>
 800ed6a:	6923      	ldr	r3, [r4, #16]
 800ed6c:	4642      	mov	r2, r8
 800ed6e:	4631      	mov	r1, r6
 800ed70:	4628      	mov	r0, r5
 800ed72:	47b8      	blx	r7
 800ed74:	3001      	adds	r0, #1
 800ed76:	d12b      	bne.n	800edd0 <_printf_float+0x254>
 800ed78:	e761      	b.n	800ec3e <_printf_float+0xc2>
 800ed7a:	f1ba 0f65 	cmp.w	sl, #101	; 0x65
 800ed7e:	f240 80e2 	bls.w	800ef46 <_printf_float+0x3ca>
 800ed82:	2200      	movs	r2, #0
 800ed84:	2300      	movs	r3, #0
 800ed86:	e9d4 0112 	ldrd	r0, r1, [r4, #72]	; 0x48
 800ed8a:	f7f9 fea1 	bl	8008ad0 <__aeabi_dcmpeq>
 800ed8e:	2800      	cmp	r0, #0
 800ed90:	d03c      	beq.n	800ee0c <_printf_float+0x290>
 800ed92:	2301      	movs	r3, #1
 800ed94:	4a38      	ldr	r2, [pc, #224]	; (800ee78 <_printf_float+0x2fc>)
 800ed96:	4631      	mov	r1, r6
 800ed98:	4628      	mov	r0, r5
 800ed9a:	47b8      	blx	r7
 800ed9c:	3001      	adds	r0, #1
 800ed9e:	f43f af4e 	beq.w	800ec3e <_printf_float+0xc2>
 800eda2:	9b0a      	ldr	r3, [sp, #40]	; 0x28
 800eda4:	9a09      	ldr	r2, [sp, #36]	; 0x24
 800eda6:	429a      	cmp	r2, r3
 800eda8:	db02      	blt.n	800edb0 <_printf_float+0x234>
 800edaa:	6823      	ldr	r3, [r4, #0]
 800edac:	07d8      	lsls	r0, r3, #31
 800edae:	d50f      	bpl.n	800edd0 <_printf_float+0x254>
 800edb0:	9b05      	ldr	r3, [sp, #20]
 800edb2:	9a04      	ldr	r2, [sp, #16]
 800edb4:	4631      	mov	r1, r6
 800edb6:	4628      	mov	r0, r5
 800edb8:	47b8      	blx	r7
 800edba:	3001      	adds	r0, #1
 800edbc:	f43f af3f 	beq.w	800ec3e <_printf_float+0xc2>
 800edc0:	f04f 0800 	mov.w	r8, #0
 800edc4:	f104 091a 	add.w	r9, r4, #26
 800edc8:	9b0a      	ldr	r3, [sp, #40]	; 0x28
 800edca:	3b01      	subs	r3, #1
 800edcc:	4598      	cmp	r8, r3
 800edce:	db12      	blt.n	800edf6 <_printf_float+0x27a>
 800edd0:	6823      	ldr	r3, [r4, #0]
 800edd2:	079b      	lsls	r3, r3, #30
 800edd4:	d509      	bpl.n	800edea <_printf_float+0x26e>
 800edd6:	f04f 0800 	mov.w	r8, #0
 800edda:	f104 0919 	add.w	r9, r4, #25
 800edde:	68e3      	ldr	r3, [r4, #12]
 800ede0:	9a0b      	ldr	r2, [sp, #44]	; 0x2c
 800ede2:	1a9b      	subs	r3, r3, r2
 800ede4:	4598      	cmp	r8, r3
 800ede6:	f2c0 80ee 	blt.w	800efc6 <_printf_float+0x44a>
 800edea:	68e0      	ldr	r0, [r4, #12]
 800edec:	9b0b      	ldr	r3, [sp, #44]	; 0x2c
 800edee:	4298      	cmp	r0, r3
 800edf0:	bfb8      	it	lt
 800edf2:	4618      	movlt	r0, r3
 800edf4:	e725      	b.n	800ec42 <_printf_float+0xc6>
 800edf6:	2301      	movs	r3, #1
 800edf8:	464a      	mov	r2, r9
 800edfa:	4631      	mov	r1, r6
 800edfc:	4628      	mov	r0, r5
 800edfe:	47b8      	blx	r7
 800ee00:	3001      	adds	r0, #1
 800ee02:	f43f af1c 	beq.w	800ec3e <_printf_float+0xc2>
 800ee06:	f108 0801 	add.w	r8, r8, #1
 800ee0a:	e7dd      	b.n	800edc8 <_printf_float+0x24c>
 800ee0c:	9b09      	ldr	r3, [sp, #36]	; 0x24
 800ee0e:	2b00      	cmp	r3, #0
 800ee10:	dc34      	bgt.n	800ee7c <_printf_float+0x300>
 800ee12:	2301      	movs	r3, #1
 800ee14:	4a18      	ldr	r2, [pc, #96]	; (800ee78 <_printf_float+0x2fc>)
 800ee16:	4631      	mov	r1, r6
 800ee18:	4628      	mov	r0, r5
 800ee1a:	47b8      	blx	r7
 800ee1c:	3001      	adds	r0, #1
 800ee1e:	f43f af0e 	beq.w	800ec3e <_printf_float+0xc2>
 800ee22:	9b09      	ldr	r3, [sp, #36]	; 0x24
 800ee24:	b923      	cbnz	r3, 800ee30 <_printf_float+0x2b4>
 800ee26:	9b0a      	ldr	r3, [sp, #40]	; 0x28
 800ee28:	b913      	cbnz	r3, 800ee30 <_printf_float+0x2b4>
 800ee2a:	6823      	ldr	r3, [r4, #0]
 800ee2c:	07d9      	lsls	r1, r3, #31
 800ee2e:	d5cf      	bpl.n	800edd0 <_printf_float+0x254>
 800ee30:	9b05      	ldr	r3, [sp, #20]
 800ee32:	9a04      	ldr	r2, [sp, #16]
 800ee34:	4631      	mov	r1, r6
 800ee36:	4628      	mov	r0, r5
 800ee38:	47b8      	blx	r7
 800ee3a:	3001      	adds	r0, #1
 800ee3c:	f43f aeff 	beq.w	800ec3e <_printf_float+0xc2>
 800ee40:	f04f 0900 	mov.w	r9, #0
 800ee44:	f104 0a1a 	add.w	sl, r4, #26
 800ee48:	9b09      	ldr	r3, [sp, #36]	; 0x24
 800ee4a:	425b      	negs	r3, r3
 800ee4c:	4599      	cmp	r9, r3
 800ee4e:	db01      	blt.n	800ee54 <_printf_float+0x2d8>
 800ee50:	9b0a      	ldr	r3, [sp, #40]	; 0x28
 800ee52:	e78b      	b.n	800ed6c <_printf_float+0x1f0>
 800ee54:	2301      	movs	r3, #1
 800ee56:	4652      	mov	r2, sl
 800ee58:	4631      	mov	r1, r6
 800ee5a:	4628      	mov	r0, r5
 800ee5c:	47b8      	blx	r7
 800ee5e:	3001      	adds	r0, #1
 800ee60:	f43f aeed 	beq.w	800ec3e <_printf_float+0xc2>
 800ee64:	f109 0901 	add.w	r9, r9, #1
 800ee68:	e7ee      	b.n	800ee48 <_printf_float+0x2cc>
 800ee6a:	bf00      	nop
 800ee6c:	7fefffff 	.word	0x7fefffff
 800ee70:	080126a4 	.word	0x080126a4
 800ee74:	080126a8 	.word	0x080126a8
 800ee78:	080121a8 	.word	0x080121a8
 800ee7c:	9a0a      	ldr	r2, [sp, #40]	; 0x28
 800ee7e:	6da3      	ldr	r3, [r4, #88]	; 0x58
 800ee80:	429a      	cmp	r2, r3
 800ee82:	bfa8      	it	ge
 800ee84:	461a      	movge	r2, r3
 800ee86:	2a00      	cmp	r2, #0
 800ee88:	4691      	mov	r9, r2
 800ee8a:	dc38      	bgt.n	800eefe <_printf_float+0x382>
 800ee8c:	f104 031a 	add.w	r3, r4, #26
 800ee90:	f04f 0b00 	mov.w	fp, #0
 800ee94:	ea29 79e9 	bic.w	r9, r9, r9, asr #31
 800ee98:	9306      	str	r3, [sp, #24]
 800ee9a:	f8d4 a058 	ldr.w	sl, [r4, #88]	; 0x58
 800ee9e:	ebaa 0309 	sub.w	r3, sl, r9
 800eea2:	459b      	cmp	fp, r3
 800eea4:	db33      	blt.n	800ef0e <_printf_float+0x392>
 800eea6:	9b0a      	ldr	r3, [sp, #40]	; 0x28
 800eea8:	9a09      	ldr	r2, [sp, #36]	; 0x24
 800eeaa:	429a      	cmp	r2, r3
 800eeac:	db3a      	blt.n	800ef24 <_printf_float+0x3a8>
 800eeae:	6823      	ldr	r3, [r4, #0]
 800eeb0:	07da      	lsls	r2, r3, #31
 800eeb2:	d437      	bmi.n	800ef24 <_printf_float+0x3a8>
 800eeb4:	9b0a      	ldr	r3, [sp, #40]	; 0x28
 800eeb6:	9909      	ldr	r1, [sp, #36]	; 0x24
 800eeb8:	eba3 020a 	sub.w	r2, r3, sl
 800eebc:	eba3 0901 	sub.w	r9, r3, r1
 800eec0:	4591      	cmp	r9, r2
 800eec2:	bfa8      	it	ge
 800eec4:	4691      	movge	r9, r2
 800eec6:	f1b9 0f00 	cmp.w	r9, #0
 800eeca:	dc33      	bgt.n	800ef34 <_printf_float+0x3b8>
 800eecc:	f04f 0800 	mov.w	r8, #0
 800eed0:	ea29 79e9 	bic.w	r9, r9, r9, asr #31
 800eed4:	f104 0a1a 	add.w	sl, r4, #26
 800eed8:	9a09      	ldr	r2, [sp, #36]	; 0x24
 800eeda:	9b0a      	ldr	r3, [sp, #40]	; 0x28
 800eedc:	1a9b      	subs	r3, r3, r2
 800eede:	eba3 0309 	sub.w	r3, r3, r9
 800eee2:	4598      	cmp	r8, r3
 800eee4:	f6bf af74 	bge.w	800edd0 <_printf_float+0x254>
 800eee8:	2301      	movs	r3, #1
 800eeea:	4652      	mov	r2, sl
 800eeec:	4631      	mov	r1, r6
 800eeee:	4628      	mov	r0, r5
 800eef0:	47b8      	blx	r7
 800eef2:	3001      	adds	r0, #1
 800eef4:	f43f aea3 	beq.w	800ec3e <_printf_float+0xc2>
 800eef8:	f108 0801 	add.w	r8, r8, #1
 800eefc:	e7ec      	b.n	800eed8 <_printf_float+0x35c>
 800eefe:	4613      	mov	r3, r2
 800ef00:	4631      	mov	r1, r6
 800ef02:	4642      	mov	r2, r8
 800ef04:	4628      	mov	r0, r5
 800ef06:	47b8      	blx	r7
 800ef08:	3001      	adds	r0, #1
 800ef0a:	d1bf      	bne.n	800ee8c <_printf_float+0x310>
 800ef0c:	e697      	b.n	800ec3e <_printf_float+0xc2>
 800ef0e:	2301      	movs	r3, #1
 800ef10:	9a06      	ldr	r2, [sp, #24]
 800ef12:	4631      	mov	r1, r6
 800ef14:	4628      	mov	r0, r5
 800ef16:	47b8      	blx	r7
 800ef18:	3001      	adds	r0, #1
 800ef1a:	f43f ae90 	beq.w	800ec3e <_printf_float+0xc2>
 800ef1e:	f10b 0b01 	add.w	fp, fp, #1
 800ef22:	e7ba      	b.n	800ee9a <_printf_float+0x31e>
 800ef24:	9b05      	ldr	r3, [sp, #20]
 800ef26:	9a04      	ldr	r2, [sp, #16]
 800ef28:	4631      	mov	r1, r6
 800ef2a:	4628      	mov	r0, r5
 800ef2c:	47b8      	blx	r7
 800ef2e:	3001      	adds	r0, #1
 800ef30:	d1c0      	bne.n	800eeb4 <_printf_float+0x338>
 800ef32:	e684      	b.n	800ec3e <_printf_float+0xc2>
 800ef34:	464b      	mov	r3, r9
 800ef36:	eb08 020a 	add.w	r2, r8, sl
 800ef3a:	4631      	mov	r1, r6
 800ef3c:	4628      	mov	r0, r5
 800ef3e:	47b8      	blx	r7
 800ef40:	3001      	adds	r0, #1
 800ef42:	d1c3      	bne.n	800eecc <_printf_float+0x350>
 800ef44:	e67b      	b.n	800ec3e <_printf_float+0xc2>
 800ef46:	9a0a      	ldr	r2, [sp, #40]	; 0x28
 800ef48:	2a01      	cmp	r2, #1
 800ef4a:	dc01      	bgt.n	800ef50 <_printf_float+0x3d4>
 800ef4c:	07db      	lsls	r3, r3, #31
 800ef4e:	d537      	bpl.n	800efc0 <_printf_float+0x444>
 800ef50:	2301      	movs	r3, #1
 800ef52:	4642      	mov	r2, r8
 800ef54:	4631      	mov	r1, r6
 800ef56:	4628      	mov	r0, r5
 800ef58:	47b8      	blx	r7
 800ef5a:	3001      	adds	r0, #1
 800ef5c:	f43f ae6f 	beq.w	800ec3e <_printf_float+0xc2>
 800ef60:	9b05      	ldr	r3, [sp, #20]
 800ef62:	9a04      	ldr	r2, [sp, #16]
 800ef64:	4631      	mov	r1, r6
 800ef66:	4628      	mov	r0, r5
 800ef68:	47b8      	blx	r7
 800ef6a:	3001      	adds	r0, #1
 800ef6c:	f43f ae67 	beq.w	800ec3e <_printf_float+0xc2>
 800ef70:	2200      	movs	r2, #0
 800ef72:	2300      	movs	r3, #0
 800ef74:	e9d4 0112 	ldrd	r0, r1, [r4, #72]	; 0x48
 800ef78:	f7f9 fdaa 	bl	8008ad0 <__aeabi_dcmpeq>
 800ef7c:	b158      	cbz	r0, 800ef96 <_printf_float+0x41a>
 800ef7e:	f04f 0800 	mov.w	r8, #0
 800ef82:	f104 0a1a 	add.w	sl, r4, #26
 800ef86:	9b0a      	ldr	r3, [sp, #40]	; 0x28
 800ef88:	3b01      	subs	r3, #1
 800ef8a:	4598      	cmp	r8, r3
 800ef8c:	db0d      	blt.n	800efaa <_printf_float+0x42e>
 800ef8e:	464b      	mov	r3, r9
 800ef90:	f104 0250 	add.w	r2, r4, #80	; 0x50
 800ef94:	e6eb      	b.n	800ed6e <_printf_float+0x1f2>
 800ef96:	9b0a      	ldr	r3, [sp, #40]	; 0x28
 800ef98:	f108 0201 	add.w	r2, r8, #1
 800ef9c:	3b01      	subs	r3, #1
 800ef9e:	4631      	mov	r1, r6
 800efa0:	4628      	mov	r0, r5
 800efa2:	47b8      	blx	r7
 800efa4:	3001      	adds	r0, #1
 800efa6:	d1f2      	bne.n	800ef8e <_printf_float+0x412>
 800efa8:	e649      	b.n	800ec3e <_printf_float+0xc2>
 800efaa:	2301      	movs	r3, #1
 800efac:	4652      	mov	r2, sl
 800efae:	4631      	mov	r1, r6
 800efb0:	4628      	mov	r0, r5
 800efb2:	47b8      	blx	r7
 800efb4:	3001      	adds	r0, #1
 800efb6:	f43f ae42 	beq.w	800ec3e <_printf_float+0xc2>
 800efba:	f108 0801 	add.w	r8, r8, #1
 800efbe:	e7e2      	b.n	800ef86 <_printf_float+0x40a>
 800efc0:	2301      	movs	r3, #1
 800efc2:	4642      	mov	r2, r8
 800efc4:	e7eb      	b.n	800ef9e <_printf_float+0x422>
 800efc6:	2301      	movs	r3, #1
 800efc8:	464a      	mov	r2, r9
 800efca:	4631      	mov	r1, r6
 800efcc:	4628      	mov	r0, r5
 800efce:	47b8      	blx	r7
 800efd0:	3001      	adds	r0, #1
 800efd2:	f43f ae34 	beq.w	800ec3e <_printf_float+0xc2>
 800efd6:	f108 0801 	add.w	r8, r8, #1
 800efda:	e700      	b.n	800edde <_printf_float+0x262>
 800efdc:	4642      	mov	r2, r8
 800efde:	464b      	mov	r3, r9
 800efe0:	4640      	mov	r0, r8
 800efe2:	4649      	mov	r1, r9
 800efe4:	f7f9 fda6 	bl	8008b34 <__aeabi_dcmpun>
 800efe8:	2800      	cmp	r0, #0
 800efea:	f43f ae2d 	beq.w	800ec48 <_printf_float+0xcc>
 800efee:	4b01      	ldr	r3, [pc, #4]	; (800eff4 <_printf_float+0x478>)
 800eff0:	4a01      	ldr	r2, [pc, #4]	; (800eff8 <_printf_float+0x47c>)
 800eff2:	e60e      	b.n	800ec12 <_printf_float+0x96>
 800eff4:	080126ac 	.word	0x080126ac
 800eff8:	080126b0 	.word	0x080126b0

0800effc <_printf_common>:
 800effc:	e92d 47f0 	stmdb	sp!, {r4, r5, r6, r7, r8, r9, sl, lr}
 800f000:	4691      	mov	r9, r2
 800f002:	461f      	mov	r7, r3
 800f004:	688a      	ldr	r2, [r1, #8]
 800f006:	690b      	ldr	r3, [r1, #16]
 800f008:	f8dd 8020 	ldr.w	r8, [sp, #32]
 800f00c:	4293      	cmp	r3, r2
 800f00e:	bfb8      	it	lt
 800f010:	4613      	movlt	r3, r2
 800f012:	f8c9 3000 	str.w	r3, [r9]
 800f016:	f891 2043 	ldrb.w	r2, [r1, #67]	; 0x43
 800f01a:	4606      	mov	r6, r0
 800f01c:	460c      	mov	r4, r1
 800f01e:	b112      	cbz	r2, 800f026 <_printf_common+0x2a>
 800f020:	3301      	adds	r3, #1
 800f022:	f8c9 3000 	str.w	r3, [r9]
 800f026:	6823      	ldr	r3, [r4, #0]
 800f028:	0699      	lsls	r1, r3, #26
 800f02a:	bf42      	ittt	mi
 800f02c:	f8d9 3000 	ldrmi.w	r3, [r9]
 800f030:	3302      	addmi	r3, #2
 800f032:	f8c9 3000 	strmi.w	r3, [r9]
 800f036:	6825      	ldr	r5, [r4, #0]
 800f038:	f015 0506 	ands.w	r5, r5, #6
 800f03c:	d107      	bne.n	800f04e <_printf_common+0x52>
 800f03e:	f104 0a19 	add.w	sl, r4, #25
 800f042:	68e3      	ldr	r3, [r4, #12]
 800f044:	f8d9 2000 	ldr.w	r2, [r9]
 800f048:	1a9b      	subs	r3, r3, r2
 800f04a:	429d      	cmp	r5, r3
 800f04c:	db29      	blt.n	800f0a2 <_printf_common+0xa6>
 800f04e:	f894 3043 	ldrb.w	r3, [r4, #67]	; 0x43
 800f052:	6822      	ldr	r2, [r4, #0]
 800f054:	3300      	adds	r3, #0
 800f056:	bf18      	it	ne
 800f058:	2301      	movne	r3, #1
 800f05a:	0692      	lsls	r2, r2, #26
 800f05c:	d42e      	bmi.n	800f0bc <_printf_common+0xc0>
 800f05e:	f104 0243 	add.w	r2, r4, #67	; 0x43
 800f062:	4639      	mov	r1, r7
 800f064:	4630      	mov	r0, r6
 800f066:	47c0      	blx	r8
 800f068:	3001      	adds	r0, #1
 800f06a:	d021      	beq.n	800f0b0 <_printf_common+0xb4>
 800f06c:	6823      	ldr	r3, [r4, #0]
 800f06e:	68e5      	ldr	r5, [r4, #12]
 800f070:	f8d9 2000 	ldr.w	r2, [r9]
 800f074:	f003 0306 	and.w	r3, r3, #6
 800f078:	2b04      	cmp	r3, #4
 800f07a:	bf08      	it	eq
 800f07c:	1aad      	subeq	r5, r5, r2
 800f07e:	68a3      	ldr	r3, [r4, #8]
 800f080:	6922      	ldr	r2, [r4, #16]
 800f082:	bf0c      	ite	eq
 800f084:	ea25 75e5 	biceq.w	r5, r5, r5, asr #31
 800f088:	2500      	movne	r5, #0
 800f08a:	4293      	cmp	r3, r2
 800f08c:	bfc4      	itt	gt
 800f08e:	1a9b      	subgt	r3, r3, r2
 800f090:	18ed      	addgt	r5, r5, r3
 800f092:	f04f 0900 	mov.w	r9, #0
 800f096:	341a      	adds	r4, #26
 800f098:	454d      	cmp	r5, r9
 800f09a:	d11b      	bne.n	800f0d4 <_printf_common+0xd8>
 800f09c:	2000      	movs	r0, #0
 800f09e:	e8bd 87f0 	ldmia.w	sp!, {r4, r5, r6, r7, r8, r9, sl, pc}
 800f0a2:	2301      	movs	r3, #1
 800f0a4:	4652      	mov	r2, sl
 800f0a6:	4639      	mov	r1, r7
 800f0a8:	4630      	mov	r0, r6
 800f0aa:	47c0      	blx	r8
 800f0ac:	3001      	adds	r0, #1
 800f0ae:	d103      	bne.n	800f0b8 <_printf_common+0xbc>
 800f0b0:	f04f 30ff 	mov.w	r0, #4294967295
 800f0b4:	e8bd 87f0 	ldmia.w	sp!, {r4, r5, r6, r7, r8, r9, sl, pc}
 800f0b8:	3501      	adds	r5, #1
 800f0ba:	e7c2      	b.n	800f042 <_printf_common+0x46>
 800f0bc:	18e1      	adds	r1, r4, r3
 800f0be:	1c5a      	adds	r2, r3, #1
 800f0c0:	2030      	movs	r0, #48	; 0x30
 800f0c2:	f881 0043 	strb.w	r0, [r1, #67]	; 0x43
 800f0c6:	4422      	add	r2, r4
 800f0c8:	f894 1045 	ldrb.w	r1, [r4, #69]	; 0x45
 800f0cc:	f882 1043 	strb.w	r1, [r2, #67]	; 0x43
 800f0d0:	3302      	adds	r3, #2
 800f0d2:	e7c4      	b.n	800f05e <_printf_common+0x62>
 800f0d4:	2301      	movs	r3, #1
 800f0d6:	4622      	mov	r2, r4
 800f0d8:	4639      	mov	r1, r7
 800f0da:	4630      	mov	r0, r6
 800f0dc:	47c0      	blx	r8
 800f0de:	3001      	adds	r0, #1
 800f0e0:	d0e6      	beq.n	800f0b0 <_printf_common+0xb4>
 800f0e2:	f109 0901 	add.w	r9, r9, #1
 800f0e6:	e7d7      	b.n	800f098 <_printf_common+0x9c>

0800f0e8 <_printf_i>:
 800f0e8:	e92d 43f0 	stmdb	sp!, {r4, r5, r6, r7, r8, r9, lr}
 800f0ec:	4617      	mov	r7, r2
 800f0ee:	7e0a      	ldrb	r2, [r1, #24]
 800f0f0:	b085      	sub	sp, #20
 800f0f2:	2a6e      	cmp	r2, #110	; 0x6e
 800f0f4:	4698      	mov	r8, r3
 800f0f6:	4606      	mov	r6, r0
 800f0f8:	460c      	mov	r4, r1
 800f0fa:	9b0c      	ldr	r3, [sp, #48]	; 0x30
 800f0fc:	f101 0e43 	add.w	lr, r1, #67	; 0x43
 800f100:	f000 80bc 	beq.w	800f27c <_printf_i+0x194>
 800f104:	d81a      	bhi.n	800f13c <_printf_i+0x54>
 800f106:	2a63      	cmp	r2, #99	; 0x63
 800f108:	d02e      	beq.n	800f168 <_printf_i+0x80>
 800f10a:	d80a      	bhi.n	800f122 <_printf_i+0x3a>
 800f10c:	2a00      	cmp	r2, #0
 800f10e:	f000 80c8 	beq.w	800f2a2 <_printf_i+0x1ba>
 800f112:	2a58      	cmp	r2, #88	; 0x58
 800f114:	f000 808a 	beq.w	800f22c <_printf_i+0x144>
 800f118:	f104 0542 	add.w	r5, r4, #66	; 0x42
 800f11c:	f884 2042 	strb.w	r2, [r4, #66]	; 0x42
 800f120:	e02a      	b.n	800f178 <_printf_i+0x90>
 800f122:	2a64      	cmp	r2, #100	; 0x64
 800f124:	d001      	beq.n	800f12a <_printf_i+0x42>
 800f126:	2a69      	cmp	r2, #105	; 0x69
 800f128:	d1f6      	bne.n	800f118 <_printf_i+0x30>
 800f12a:	6821      	ldr	r1, [r4, #0]
 800f12c:	681a      	ldr	r2, [r3, #0]
 800f12e:	f011 0f80 	tst.w	r1, #128	; 0x80
 800f132:	d023      	beq.n	800f17c <_printf_i+0x94>
 800f134:	1d11      	adds	r1, r2, #4
 800f136:	6019      	str	r1, [r3, #0]
 800f138:	6813      	ldr	r3, [r2, #0]
 800f13a:	e027      	b.n	800f18c <_printf_i+0xa4>
 800f13c:	2a73      	cmp	r2, #115	; 0x73
 800f13e:	f000 80b4 	beq.w	800f2aa <_printf_i+0x1c2>
 800f142:	d808      	bhi.n	800f156 <_printf_i+0x6e>
 800f144:	2a6f      	cmp	r2, #111	; 0x6f
 800f146:	d02a      	beq.n	800f19e <_printf_i+0xb6>
 800f148:	2a70      	cmp	r2, #112	; 0x70
 800f14a:	d1e5      	bne.n	800f118 <_printf_i+0x30>
 800f14c:	680a      	ldr	r2, [r1, #0]
 800f14e:	f042 0220 	orr.w	r2, r2, #32
 800f152:	600a      	str	r2, [r1, #0]
 800f154:	e003      	b.n	800f15e <_printf_i+0x76>
 800f156:	2a75      	cmp	r2, #117	; 0x75
 800f158:	d021      	beq.n	800f19e <_printf_i+0xb6>
 800f15a:	2a78      	cmp	r2, #120	; 0x78
 800f15c:	d1dc      	bne.n	800f118 <_printf_i+0x30>
 800f15e:	2278      	movs	r2, #120	; 0x78
 800f160:	f884 2045 	strb.w	r2, [r4, #69]	; 0x45
 800f164:	496e      	ldr	r1, [pc, #440]	; (800f320 <_printf_i+0x238>)
 800f166:	e064      	b.n	800f232 <_printf_i+0x14a>
 800f168:	681a      	ldr	r2, [r3, #0]
 800f16a:	f101 0542 	add.w	r5, r1, #66	; 0x42
 800f16e:	1d11      	adds	r1, r2, #4
 800f170:	6019      	str	r1, [r3, #0]
 800f172:	6813      	ldr	r3, [r2, #0]
 800f174:	f884 3042 	strb.w	r3, [r4, #66]	; 0x42
 800f178:	2301      	movs	r3, #1
 800f17a:	e0a3      	b.n	800f2c4 <_printf_i+0x1dc>
 800f17c:	f011 0f40 	tst.w	r1, #64	; 0x40
 800f180:	f102 0104 	add.w	r1, r2, #4
 800f184:	6019      	str	r1, [r3, #0]
 800f186:	d0d7      	beq.n	800f138 <_printf_i+0x50>
 800f188:	f9b2 3000 	ldrsh.w	r3, [r2]
 800f18c:	2b00      	cmp	r3, #0
 800f18e:	da03      	bge.n	800f198 <_printf_i+0xb0>
 800f190:	222d      	movs	r2, #45	; 0x2d
 800f192:	425b      	negs	r3, r3
 800f194:	f884 2043 	strb.w	r2, [r4, #67]	; 0x43
 800f198:	4962      	ldr	r1, [pc, #392]	; (800f324 <_printf_i+0x23c>)
 800f19a:	220a      	movs	r2, #10
 800f19c:	e017      	b.n	800f1ce <_printf_i+0xe6>
 800f19e:	6820      	ldr	r0, [r4, #0]
 800f1a0:	6819      	ldr	r1, [r3, #0]
 800f1a2:	f010 0f80 	tst.w	r0, #128	; 0x80
 800f1a6:	d003      	beq.n	800f1b0 <_printf_i+0xc8>
 800f1a8:	1d08      	adds	r0, r1, #4
 800f1aa:	6018      	str	r0, [r3, #0]
 800f1ac:	680b      	ldr	r3, [r1, #0]
 800f1ae:	e006      	b.n	800f1be <_printf_i+0xd6>
 800f1b0:	f010 0f40 	tst.w	r0, #64	; 0x40
 800f1b4:	f101 0004 	add.w	r0, r1, #4
 800f1b8:	6018      	str	r0, [r3, #0]
 800f1ba:	d0f7      	beq.n	800f1ac <_printf_i+0xc4>
 800f1bc:	880b      	ldrh	r3, [r1, #0]
 800f1be:	4959      	ldr	r1, [pc, #356]	; (800f324 <_printf_i+0x23c>)
 800f1c0:	2a6f      	cmp	r2, #111	; 0x6f
 800f1c2:	bf14      	ite	ne
 800f1c4:	220a      	movne	r2, #10
 800f1c6:	2208      	moveq	r2, #8
 800f1c8:	2000      	movs	r0, #0
 800f1ca:	f884 0043 	strb.w	r0, [r4, #67]	; 0x43
 800f1ce:	6865      	ldr	r5, [r4, #4]
 800f1d0:	60a5      	str	r5, [r4, #8]
 800f1d2:	2d00      	cmp	r5, #0
 800f1d4:	f2c0 809c 	blt.w	800f310 <_printf_i+0x228>
 800f1d8:	6820      	ldr	r0, [r4, #0]
 800f1da:	f020 0004 	bic.w	r0, r0, #4
 800f1de:	6020      	str	r0, [r4, #0]
 800f1e0:	2b00      	cmp	r3, #0
 800f1e2:	d13f      	bne.n	800f264 <_printf_i+0x17c>
 800f1e4:	2d00      	cmp	r5, #0
 800f1e6:	f040 8095 	bne.w	800f314 <_printf_i+0x22c>
 800f1ea:	4675      	mov	r5, lr
 800f1ec:	2a08      	cmp	r2, #8
 800f1ee:	d10b      	bne.n	800f208 <_printf_i+0x120>
 800f1f0:	6823      	ldr	r3, [r4, #0]
 800f1f2:	07da      	lsls	r2, r3, #31
 800f1f4:	d508      	bpl.n	800f208 <_printf_i+0x120>
 800f1f6:	6923      	ldr	r3, [r4, #16]
 800f1f8:	6862      	ldr	r2, [r4, #4]
 800f1fa:	429a      	cmp	r2, r3
 800f1fc:	bfde      	ittt	le
 800f1fe:	2330      	movle	r3, #48	; 0x30
 800f200:	f805 3c01 	strble.w	r3, [r5, #-1]
 800f204:	f105 35ff 	addle.w	r5, r5, #4294967295
 800f208:	ebae 0305 	sub.w	r3, lr, r5
 800f20c:	6123      	str	r3, [r4, #16]
 800f20e:	f8cd 8000 	str.w	r8, [sp]
 800f212:	463b      	mov	r3, r7
 800f214:	aa03      	add	r2, sp, #12
 800f216:	4621      	mov	r1, r4
 800f218:	4630      	mov	r0, r6
 800f21a:	f7ff feef 	bl	800effc <_printf_common>
 800f21e:	3001      	adds	r0, #1
 800f220:	d155      	bne.n	800f2ce <_printf_i+0x1e6>
 800f222:	f04f 30ff 	mov.w	r0, #4294967295
 800f226:	b005      	add	sp, #20
 800f228:	e8bd 83f0 	ldmia.w	sp!, {r4, r5, r6, r7, r8, r9, pc}
 800f22c:	f881 2045 	strb.w	r2, [r1, #69]	; 0x45
 800f230:	493c      	ldr	r1, [pc, #240]	; (800f324 <_printf_i+0x23c>)
 800f232:	6822      	ldr	r2, [r4, #0]
 800f234:	6818      	ldr	r0, [r3, #0]
 800f236:	f012 0f80 	tst.w	r2, #128	; 0x80
 800f23a:	f100 0504 	add.w	r5, r0, #4
 800f23e:	601d      	str	r5, [r3, #0]
 800f240:	d001      	beq.n	800f246 <_printf_i+0x15e>
 800f242:	6803      	ldr	r3, [r0, #0]
 800f244:	e002      	b.n	800f24c <_printf_i+0x164>
 800f246:	0655      	lsls	r5, r2, #25
 800f248:	d5fb      	bpl.n	800f242 <_printf_i+0x15a>
 800f24a:	8803      	ldrh	r3, [r0, #0]
 800f24c:	07d0      	lsls	r0, r2, #31
 800f24e:	bf44      	itt	mi
 800f250:	f042 0220 	orrmi.w	r2, r2, #32
 800f254:	6022      	strmi	r2, [r4, #0]
 800f256:	b91b      	cbnz	r3, 800f260 <_printf_i+0x178>
 800f258:	6822      	ldr	r2, [r4, #0]
 800f25a:	f022 0220 	bic.w	r2, r2, #32
 800f25e:	6022      	str	r2, [r4, #0]
 800f260:	2210      	movs	r2, #16
 800f262:	e7b1      	b.n	800f1c8 <_printf_i+0xe0>
 800f264:	4675      	mov	r5, lr
 800f266:	fbb3 f0f2 	udiv	r0, r3, r2
 800f26a:	fb02 3310 	mls	r3, r2, r0, r3
 800f26e:	5ccb      	ldrb	r3, [r1, r3]
 800f270:	f805 3d01 	strb.w	r3, [r5, #-1]!
 800f274:	4603      	mov	r3, r0
 800f276:	2800      	cmp	r0, #0
 800f278:	d1f5      	bne.n	800f266 <_printf_i+0x17e>
 800f27a:	e7b7      	b.n	800f1ec <_printf_i+0x104>
 800f27c:	6808      	ldr	r0, [r1, #0]
 800f27e:	681a      	ldr	r2, [r3, #0]
 800f280:	6949      	ldr	r1, [r1, #20]
 800f282:	f010 0f80 	tst.w	r0, #128	; 0x80
 800f286:	d004      	beq.n	800f292 <_printf_i+0x1aa>
 800f288:	1d10      	adds	r0, r2, #4
 800f28a:	6018      	str	r0, [r3, #0]
 800f28c:	6813      	ldr	r3, [r2, #0]
 800f28e:	6019      	str	r1, [r3, #0]
 800f290:	e007      	b.n	800f2a2 <_printf_i+0x1ba>
 800f292:	f010 0f40 	tst.w	r0, #64	; 0x40
 800f296:	f102 0004 	add.w	r0, r2, #4
 800f29a:	6018      	str	r0, [r3, #0]
 800f29c:	6813      	ldr	r3, [r2, #0]
 800f29e:	d0f6      	beq.n	800f28e <_printf_i+0x1a6>
 800f2a0:	8019      	strh	r1, [r3, #0]
 800f2a2:	2300      	movs	r3, #0
 800f2a4:	6123      	str	r3, [r4, #16]
 800f2a6:	4675      	mov	r5, lr
 800f2a8:	e7b1      	b.n	800f20e <_printf_i+0x126>
 800f2aa:	681a      	ldr	r2, [r3, #0]
 800f2ac:	1d11      	adds	r1, r2, #4
 800f2ae:	6019      	str	r1, [r3, #0]
 800f2b0:	6815      	ldr	r5, [r2, #0]
 800f2b2:	6862      	ldr	r2, [r4, #4]
 800f2b4:	2100      	movs	r1, #0
 800f2b6:	4628      	mov	r0, r5
 800f2b8:	f7f8 ff9a 	bl	80081f0 <memchr>
 800f2bc:	b108      	cbz	r0, 800f2c2 <_printf_i+0x1da>
 800f2be:	1b40      	subs	r0, r0, r5
 800f2c0:	6060      	str	r0, [r4, #4]
 800f2c2:	6863      	ldr	r3, [r4, #4]
 800f2c4:	6123      	str	r3, [r4, #16]
 800f2c6:	2300      	movs	r3, #0
 800f2c8:	f884 3043 	strb.w	r3, [r4, #67]	; 0x43
 800f2cc:	e79f      	b.n	800f20e <_printf_i+0x126>
 800f2ce:	6923      	ldr	r3, [r4, #16]
 800f2d0:	462a      	mov	r2, r5
 800f2d2:	4639      	mov	r1, r7
 800f2d4:	4630      	mov	r0, r6
 800f2d6:	47c0      	blx	r8
 800f2d8:	3001      	adds	r0, #1
 800f2da:	d0a2      	beq.n	800f222 <_printf_i+0x13a>
 800f2dc:	6823      	ldr	r3, [r4, #0]
 800f2de:	079b      	lsls	r3, r3, #30
 800f2e0:	d507      	bpl.n	800f2f2 <_printf_i+0x20a>
 800f2e2:	2500      	movs	r5, #0
 800f2e4:	f104 0919 	add.w	r9, r4, #25
 800f2e8:	68e3      	ldr	r3, [r4, #12]
 800f2ea:	9a03      	ldr	r2, [sp, #12]
 800f2ec:	1a9b      	subs	r3, r3, r2
 800f2ee:	429d      	cmp	r5, r3
 800f2f0:	db05      	blt.n	800f2fe <_printf_i+0x216>
 800f2f2:	68e0      	ldr	r0, [r4, #12]
 800f2f4:	9b03      	ldr	r3, [sp, #12]
 800f2f6:	4298      	cmp	r0, r3
 800f2f8:	bfb8      	it	lt
 800f2fa:	4618      	movlt	r0, r3
 800f2fc:	e793      	b.n	800f226 <_printf_i+0x13e>
 800f2fe:	2301      	movs	r3, #1
 800f300:	464a      	mov	r2, r9
 800f302:	4639      	mov	r1, r7
 800f304:	4630      	mov	r0, r6
 800f306:	47c0      	blx	r8
 800f308:	3001      	adds	r0, #1
 800f30a:	d08a      	beq.n	800f222 <_printf_i+0x13a>
 800f30c:	3501      	adds	r5, #1
 800f30e:	e7eb      	b.n	800f2e8 <_printf_i+0x200>
 800f310:	2b00      	cmp	r3, #0
 800f312:	d1a7      	bne.n	800f264 <_printf_i+0x17c>
 800f314:	780b      	ldrb	r3, [r1, #0]
 800f316:	f884 3042 	strb.w	r3, [r4, #66]	; 0x42
 800f31a:	f104 0542 	add.w	r5, r4, #66	; 0x42
 800f31e:	e765      	b.n	800f1ec <_printf_i+0x104>
 800f320:	080126c5 	.word	0x080126c5
 800f324:	080126b4 	.word	0x080126b4

0800f328 <iprintf>:
 800f328:	b40f      	push	{r0, r1, r2, r3}
 800f32a:	4b0a      	ldr	r3, [pc, #40]	; (800f354 <iprintf+0x2c>)
 800f32c:	b513      	push	{r0, r1, r4, lr}
 800f32e:	681c      	ldr	r4, [r3, #0]
 800f330:	b124      	cbz	r4, 800f33c <iprintf+0x14>
 800f332:	69a3      	ldr	r3, [r4, #24]
 800f334:	b913      	cbnz	r3, 800f33c <iprintf+0x14>
 800f336:	4620      	mov	r0, r4
 800f338:	f001 f972 	bl	8010620 <__sinit>
 800f33c:	ab05      	add	r3, sp, #20
 800f33e:	9a04      	ldr	r2, [sp, #16]
 800f340:	68a1      	ldr	r1, [r4, #8]
 800f342:	9301      	str	r3, [sp, #4]
 800f344:	4620      	mov	r0, r4
 800f346:	f001 ff7f 	bl	8011248 <_vfiprintf_r>
 800f34a:	b002      	add	sp, #8
 800f34c:	e8bd 4010 	ldmia.w	sp!, {r4, lr}
 800f350:	b004      	add	sp, #16
 800f352:	4770      	bx	lr
 800f354:	200015b0 	.word	0x200015b0

0800f358 <_puts_r>:
 800f358:	b570      	push	{r4, r5, r6, lr}
 800f35a:	460e      	mov	r6, r1
 800f35c:	4605      	mov	r5, r0
 800f35e:	b118      	cbz	r0, 800f368 <_puts_r+0x10>
 800f360:	6983      	ldr	r3, [r0, #24]
 800f362:	b90b      	cbnz	r3, 800f368 <_puts_r+0x10>
 800f364:	f001 f95c 	bl	8010620 <__sinit>
 800f368:	69ab      	ldr	r3, [r5, #24]
 800f36a:	68ac      	ldr	r4, [r5, #8]
 800f36c:	b913      	cbnz	r3, 800f374 <_puts_r+0x1c>
 800f36e:	4628      	mov	r0, r5
 800f370:	f001 f956 	bl	8010620 <__sinit>
 800f374:	4b23      	ldr	r3, [pc, #140]	; (800f404 <_puts_r+0xac>)
 800f376:	429c      	cmp	r4, r3
 800f378:	d117      	bne.n	800f3aa <_puts_r+0x52>
 800f37a:	686c      	ldr	r4, [r5, #4]
 800f37c:	89a3      	ldrh	r3, [r4, #12]
 800f37e:	071b      	lsls	r3, r3, #28
 800f380:	d51d      	bpl.n	800f3be <_puts_r+0x66>
 800f382:	6923      	ldr	r3, [r4, #16]
 800f384:	b1db      	cbz	r3, 800f3be <_puts_r+0x66>
 800f386:	3e01      	subs	r6, #1
 800f388:	68a3      	ldr	r3, [r4, #8]
 800f38a:	f816 1f01 	ldrb.w	r1, [r6, #1]!
 800f38e:	3b01      	subs	r3, #1
 800f390:	60a3      	str	r3, [r4, #8]
 800f392:	b9e9      	cbnz	r1, 800f3d0 <_puts_r+0x78>
 800f394:	2b00      	cmp	r3, #0
 800f396:	da2e      	bge.n	800f3f6 <_puts_r+0x9e>
 800f398:	4622      	mov	r2, r4
 800f39a:	210a      	movs	r1, #10
 800f39c:	4628      	mov	r0, r5
 800f39e:	f000 f931 	bl	800f604 <__swbuf_r>
 800f3a2:	3001      	adds	r0, #1
 800f3a4:	d011      	beq.n	800f3ca <_puts_r+0x72>
 800f3a6:	200a      	movs	r0, #10
 800f3a8:	bd70      	pop	{r4, r5, r6, pc}
 800f3aa:	4b17      	ldr	r3, [pc, #92]	; (800f408 <_puts_r+0xb0>)
 800f3ac:	429c      	cmp	r4, r3
 800f3ae:	d101      	bne.n	800f3b4 <_puts_r+0x5c>
 800f3b0:	68ac      	ldr	r4, [r5, #8]
 800f3b2:	e7e3      	b.n	800f37c <_puts_r+0x24>
 800f3b4:	4b15      	ldr	r3, [pc, #84]	; (800f40c <_puts_r+0xb4>)
 800f3b6:	429c      	cmp	r4, r3
 800f3b8:	bf08      	it	eq
 800f3ba:	68ec      	ldreq	r4, [r5, #12]
 800f3bc:	e7de      	b.n	800f37c <_puts_r+0x24>
 800f3be:	4621      	mov	r1, r4
 800f3c0:	4628      	mov	r0, r5
 800f3c2:	f000 f971 	bl	800f6a8 <__swsetup_r>
 800f3c6:	2800      	cmp	r0, #0
 800f3c8:	d0dd      	beq.n	800f386 <_puts_r+0x2e>
 800f3ca:	f04f 30ff 	mov.w	r0, #4294967295
 800f3ce:	bd70      	pop	{r4, r5, r6, pc}
 800f3d0:	2b00      	cmp	r3, #0
 800f3d2:	da04      	bge.n	800f3de <_puts_r+0x86>
 800f3d4:	69a2      	ldr	r2, [r4, #24]
 800f3d6:	4293      	cmp	r3, r2
 800f3d8:	db06      	blt.n	800f3e8 <_puts_r+0x90>
 800f3da:	290a      	cmp	r1, #10
 800f3dc:	d004      	beq.n	800f3e8 <_puts_r+0x90>
 800f3de:	6823      	ldr	r3, [r4, #0]
 800f3e0:	1c5a      	adds	r2, r3, #1
 800f3e2:	6022      	str	r2, [r4, #0]
 800f3e4:	7019      	strb	r1, [r3, #0]
 800f3e6:	e7cf      	b.n	800f388 <_puts_r+0x30>
 800f3e8:	4622      	mov	r2, r4
 800f3ea:	4628      	mov	r0, r5
 800f3ec:	f000 f90a 	bl	800f604 <__swbuf_r>
 800f3f0:	3001      	adds	r0, #1
 800f3f2:	d1c9      	bne.n	800f388 <_puts_r+0x30>
 800f3f4:	e7e9      	b.n	800f3ca <_puts_r+0x72>
 800f3f6:	6823      	ldr	r3, [r4, #0]
 800f3f8:	200a      	movs	r0, #10
 800f3fa:	1c5a      	adds	r2, r3, #1
 800f3fc:	6022      	str	r2, [r4, #0]
 800f3fe:	7018      	strb	r0, [r3, #0]
 800f400:	bd70      	pop	{r4, r5, r6, pc}
 800f402:	bf00      	nop
 800f404:	08012704 	.word	0x08012704
 800f408:	08012724 	.word	0x08012724
 800f40c:	080126e4 	.word	0x080126e4

0800f410 <puts>:
 800f410:	4b02      	ldr	r3, [pc, #8]	; (800f41c <puts+0xc>)
 800f412:	4601      	mov	r1, r0
 800f414:	6818      	ldr	r0, [r3, #0]
 800f416:	f7ff bf9f 	b.w	800f358 <_puts_r>
 800f41a:	bf00      	nop
 800f41c:	200015b0 	.word	0x200015b0

0800f420 <setbuf>:
 800f420:	2900      	cmp	r1, #0
 800f422:	f44f 6380 	mov.w	r3, #1024	; 0x400
 800f426:	bf0c      	ite	eq
 800f428:	2202      	moveq	r2, #2
 800f42a:	2200      	movne	r2, #0
 800f42c:	f000 b800 	b.w	800f430 <setvbuf>

0800f430 <setvbuf>:
 800f430:	e92d 43f7 	stmdb	sp!, {r0, r1, r2, r4, r5, r6, r7, r8, r9, lr}
 800f434:	461d      	mov	r5, r3
 800f436:	4b51      	ldr	r3, [pc, #324]	; (800f57c <setvbuf+0x14c>)
 800f438:	681e      	ldr	r6, [r3, #0]
 800f43a:	4604      	mov	r4, r0
 800f43c:	460f      	mov	r7, r1
 800f43e:	4690      	mov	r8, r2
 800f440:	b126      	cbz	r6, 800f44c <setvbuf+0x1c>
 800f442:	69b3      	ldr	r3, [r6, #24]
 800f444:	b913      	cbnz	r3, 800f44c <setvbuf+0x1c>
 800f446:	4630      	mov	r0, r6
 800f448:	f001 f8ea 	bl	8010620 <__sinit>
 800f44c:	4b4c      	ldr	r3, [pc, #304]	; (800f580 <setvbuf+0x150>)
 800f44e:	429c      	cmp	r4, r3
 800f450:	d152      	bne.n	800f4f8 <setvbuf+0xc8>
 800f452:	6874      	ldr	r4, [r6, #4]
 800f454:	f1b8 0f02 	cmp.w	r8, #2
 800f458:	d006      	beq.n	800f468 <setvbuf+0x38>
 800f45a:	f1b8 0f01 	cmp.w	r8, #1
 800f45e:	f200 8089 	bhi.w	800f574 <setvbuf+0x144>
 800f462:	2d00      	cmp	r5, #0
 800f464:	f2c0 8086 	blt.w	800f574 <setvbuf+0x144>
 800f468:	4621      	mov	r1, r4
 800f46a:	4630      	mov	r0, r6
 800f46c:	f001 f86e 	bl	801054c <_fflush_r>
 800f470:	6b61      	ldr	r1, [r4, #52]	; 0x34
 800f472:	b141      	cbz	r1, 800f486 <setvbuf+0x56>
 800f474:	f104 0344 	add.w	r3, r4, #68	; 0x44
 800f478:	4299      	cmp	r1, r3
 800f47a:	d002      	beq.n	800f482 <setvbuf+0x52>
 800f47c:	4630      	mov	r0, r6
 800f47e:	f001 fcbd 	bl	8010dfc <_free_r>
 800f482:	2300      	movs	r3, #0
 800f484:	6363      	str	r3, [r4, #52]	; 0x34
 800f486:	2300      	movs	r3, #0
 800f488:	61a3      	str	r3, [r4, #24]
 800f48a:	6063      	str	r3, [r4, #4]
 800f48c:	89a3      	ldrh	r3, [r4, #12]
 800f48e:	061b      	lsls	r3, r3, #24
 800f490:	d503      	bpl.n	800f49a <setvbuf+0x6a>
 800f492:	6921      	ldr	r1, [r4, #16]
 800f494:	4630      	mov	r0, r6
 800f496:	f001 fcb1 	bl	8010dfc <_free_r>
 800f49a:	89a3      	ldrh	r3, [r4, #12]
 800f49c:	f423 634a 	bic.w	r3, r3, #3232	; 0xca0
 800f4a0:	f023 0303 	bic.w	r3, r3, #3
 800f4a4:	f1b8 0f02 	cmp.w	r8, #2
 800f4a8:	81a3      	strh	r3, [r4, #12]
 800f4aa:	d05d      	beq.n	800f568 <setvbuf+0x138>
 800f4ac:	ab01      	add	r3, sp, #4
 800f4ae:	466a      	mov	r2, sp
 800f4b0:	4621      	mov	r1, r4
 800f4b2:	4630      	mov	r0, r6
 800f4b4:	f001 f94c 	bl	8010750 <__swhatbuf_r>
 800f4b8:	89a3      	ldrh	r3, [r4, #12]
 800f4ba:	4318      	orrs	r0, r3
 800f4bc:	81a0      	strh	r0, [r4, #12]
 800f4be:	bb2d      	cbnz	r5, 800f50c <setvbuf+0xdc>
 800f4c0:	9d00      	ldr	r5, [sp, #0]
 800f4c2:	4628      	mov	r0, r5
 800f4c4:	f001 f9a8 	bl	8010818 <malloc>
 800f4c8:	4607      	mov	r7, r0
 800f4ca:	2800      	cmp	r0, #0
 800f4cc:	d14e      	bne.n	800f56c <setvbuf+0x13c>
 800f4ce:	f8dd 9000 	ldr.w	r9, [sp]
 800f4d2:	45a9      	cmp	r9, r5
 800f4d4:	d13c      	bne.n	800f550 <setvbuf+0x120>
 800f4d6:	f04f 30ff 	mov.w	r0, #4294967295
 800f4da:	89a3      	ldrh	r3, [r4, #12]
 800f4dc:	f043 0302 	orr.w	r3, r3, #2
 800f4e0:	81a3      	strh	r3, [r4, #12]
 800f4e2:	2300      	movs	r3, #0
 800f4e4:	60a3      	str	r3, [r4, #8]
 800f4e6:	f104 0347 	add.w	r3, r4, #71	; 0x47
 800f4ea:	6023      	str	r3, [r4, #0]
 800f4ec:	6123      	str	r3, [r4, #16]
 800f4ee:	2301      	movs	r3, #1
 800f4f0:	6163      	str	r3, [r4, #20]
 800f4f2:	b003      	add	sp, #12
 800f4f4:	e8bd 83f0 	ldmia.w	sp!, {r4, r5, r6, r7, r8, r9, pc}
 800f4f8:	4b22      	ldr	r3, [pc, #136]	; (800f584 <setvbuf+0x154>)
 800f4fa:	429c      	cmp	r4, r3
 800f4fc:	d101      	bne.n	800f502 <setvbuf+0xd2>
 800f4fe:	68b4      	ldr	r4, [r6, #8]
 800f500:	e7a8      	b.n	800f454 <setvbuf+0x24>
 800f502:	4b21      	ldr	r3, [pc, #132]	; (800f588 <setvbuf+0x158>)
 800f504:	429c      	cmp	r4, r3
 800f506:	bf08      	it	eq
 800f508:	68f4      	ldreq	r4, [r6, #12]
 800f50a:	e7a3      	b.n	800f454 <setvbuf+0x24>
 800f50c:	2f00      	cmp	r7, #0
 800f50e:	d0d8      	beq.n	800f4c2 <setvbuf+0x92>
 800f510:	69b3      	ldr	r3, [r6, #24]
 800f512:	b913      	cbnz	r3, 800f51a <setvbuf+0xea>
 800f514:	4630      	mov	r0, r6
 800f516:	f001 f883 	bl	8010620 <__sinit>
 800f51a:	f1b8 0f01 	cmp.w	r8, #1
 800f51e:	bf08      	it	eq
 800f520:	89a3      	ldrheq	r3, [r4, #12]
 800f522:	6027      	str	r7, [r4, #0]
 800f524:	bf04      	itt	eq
 800f526:	f043 0301 	orreq.w	r3, r3, #1
 800f52a:	81a3      	strheq	r3, [r4, #12]
 800f52c:	89a3      	ldrh	r3, [r4, #12]
 800f52e:	6127      	str	r7, [r4, #16]
 800f530:	f013 0008 	ands.w	r0, r3, #8
 800f534:	6165      	str	r5, [r4, #20]
 800f536:	d01b      	beq.n	800f570 <setvbuf+0x140>
 800f538:	f013 0001 	ands.w	r0, r3, #1
 800f53c:	bf18      	it	ne
 800f53e:	426d      	negne	r5, r5
 800f540:	f04f 0300 	mov.w	r3, #0
 800f544:	bf1d      	ittte	ne
 800f546:	60a3      	strne	r3, [r4, #8]
 800f548:	61a5      	strne	r5, [r4, #24]
 800f54a:	4618      	movne	r0, r3
 800f54c:	60a5      	streq	r5, [r4, #8]
 800f54e:	e7d0      	b.n	800f4f2 <setvbuf+0xc2>
 800f550:	4648      	mov	r0, r9
 800f552:	f001 f961 	bl	8010818 <malloc>
 800f556:	4607      	mov	r7, r0
 800f558:	2800      	cmp	r0, #0
 800f55a:	d0bc      	beq.n	800f4d6 <setvbuf+0xa6>
 800f55c:	89a3      	ldrh	r3, [r4, #12]
 800f55e:	f043 0380 	orr.w	r3, r3, #128	; 0x80
 800f562:	81a3      	strh	r3, [r4, #12]
 800f564:	464d      	mov	r5, r9
 800f566:	e7d3      	b.n	800f510 <setvbuf+0xe0>
 800f568:	2000      	movs	r0, #0
 800f56a:	e7b6      	b.n	800f4da <setvbuf+0xaa>
 800f56c:	46a9      	mov	r9, r5
 800f56e:	e7f5      	b.n	800f55c <setvbuf+0x12c>
 800f570:	60a0      	str	r0, [r4, #8]
 800f572:	e7be      	b.n	800f4f2 <setvbuf+0xc2>
 800f574:	f04f 30ff 	mov.w	r0, #4294967295
 800f578:	e7bb      	b.n	800f4f2 <setvbuf+0xc2>
 800f57a:	bf00      	nop
 800f57c:	200015b0 	.word	0x200015b0
 800f580:	08012704 	.word	0x08012704
 800f584:	08012724 	.word	0x08012724
 800f588:	080126e4 	.word	0x080126e4

0800f58c <siprintf>:
 800f58c:	b40e      	push	{r1, r2, r3}
 800f58e:	b500      	push	{lr}
 800f590:	b09c      	sub	sp, #112	; 0x70
 800f592:	f44f 7102 	mov.w	r1, #520	; 0x208
 800f596:	ab1d      	add	r3, sp, #116	; 0x74
 800f598:	f8ad 1014 	strh.w	r1, [sp, #20]
 800f59c:	9002      	str	r0, [sp, #8]
 800f59e:	9006      	str	r0, [sp, #24]
 800f5a0:	f06f 4100 	mvn.w	r1, #2147483648	; 0x80000000
 800f5a4:	480a      	ldr	r0, [pc, #40]	; (800f5d0 <siprintf+0x44>)
 800f5a6:	9104      	str	r1, [sp, #16]
 800f5a8:	9107      	str	r1, [sp, #28]
 800f5aa:	f64f 71ff 	movw	r1, #65535	; 0xffff
 800f5ae:	f853 2b04 	ldr.w	r2, [r3], #4
 800f5b2:	f8ad 1016 	strh.w	r1, [sp, #22]
 800f5b6:	6800      	ldr	r0, [r0, #0]
 800f5b8:	9301      	str	r3, [sp, #4]
 800f5ba:	a902      	add	r1, sp, #8
 800f5bc:	f001 fd26 	bl	801100c <_svfiprintf_r>
 800f5c0:	9b02      	ldr	r3, [sp, #8]
 800f5c2:	2200      	movs	r2, #0
 800f5c4:	701a      	strb	r2, [r3, #0]
 800f5c6:	b01c      	add	sp, #112	; 0x70
 800f5c8:	f85d eb04 	ldr.w	lr, [sp], #4
 800f5cc:	b003      	add	sp, #12
 800f5ce:	4770      	bx	lr
 800f5d0:	200015b0 	.word	0x200015b0

0800f5d4 <strcat>:
 800f5d4:	b510      	push	{r4, lr}
 800f5d6:	4602      	mov	r2, r0
 800f5d8:	4613      	mov	r3, r2
 800f5da:	3201      	adds	r2, #1
 800f5dc:	781c      	ldrb	r4, [r3, #0]
 800f5de:	2c00      	cmp	r4, #0
 800f5e0:	d1fa      	bne.n	800f5d8 <strcat+0x4>
 800f5e2:	3b01      	subs	r3, #1
 800f5e4:	f811 2b01 	ldrb.w	r2, [r1], #1
 800f5e8:	f803 2f01 	strb.w	r2, [r3, #1]!
 800f5ec:	2a00      	cmp	r2, #0
 800f5ee:	d1f9      	bne.n	800f5e4 <strcat+0x10>
 800f5f0:	bd10      	pop	{r4, pc}

0800f5f2 <strcpy>:
 800f5f2:	4603      	mov	r3, r0
 800f5f4:	f811 2b01 	ldrb.w	r2, [r1], #1
 800f5f8:	f803 2b01 	strb.w	r2, [r3], #1
 800f5fc:	2a00      	cmp	r2, #0
 800f5fe:	d1f9      	bne.n	800f5f4 <strcpy+0x2>
 800f600:	4770      	bx	lr
	...

0800f604 <__swbuf_r>:
 800f604:	b5f8      	push	{r3, r4, r5, r6, r7, lr}
 800f606:	460e      	mov	r6, r1
 800f608:	4614      	mov	r4, r2
 800f60a:	4605      	mov	r5, r0
 800f60c:	b118      	cbz	r0, 800f616 <__swbuf_r+0x12>
 800f60e:	6983      	ldr	r3, [r0, #24]
 800f610:	b90b      	cbnz	r3, 800f616 <__swbuf_r+0x12>
 800f612:	f001 f805 	bl	8010620 <__sinit>
 800f616:	4b21      	ldr	r3, [pc, #132]	; (800f69c <__swbuf_r+0x98>)
 800f618:	429c      	cmp	r4, r3
 800f61a:	d12a      	bne.n	800f672 <__swbuf_r+0x6e>
 800f61c:	686c      	ldr	r4, [r5, #4]
 800f61e:	69a3      	ldr	r3, [r4, #24]
 800f620:	60a3      	str	r3, [r4, #8]
 800f622:	89a3      	ldrh	r3, [r4, #12]
 800f624:	071a      	lsls	r2, r3, #28
 800f626:	d52e      	bpl.n	800f686 <__swbuf_r+0x82>
 800f628:	6923      	ldr	r3, [r4, #16]
 800f62a:	b363      	cbz	r3, 800f686 <__swbuf_r+0x82>
 800f62c:	6923      	ldr	r3, [r4, #16]
 800f62e:	6820      	ldr	r0, [r4, #0]
 800f630:	1ac0      	subs	r0, r0, r3
 800f632:	6963      	ldr	r3, [r4, #20]
 800f634:	b2f6      	uxtb	r6, r6
 800f636:	4298      	cmp	r0, r3
 800f638:	4637      	mov	r7, r6
 800f63a:	db04      	blt.n	800f646 <__swbuf_r+0x42>
 800f63c:	4621      	mov	r1, r4
 800f63e:	4628      	mov	r0, r5
 800f640:	f000 ff84 	bl	801054c <_fflush_r>
 800f644:	bb28      	cbnz	r0, 800f692 <__swbuf_r+0x8e>
 800f646:	68a3      	ldr	r3, [r4, #8]
 800f648:	3b01      	subs	r3, #1
 800f64a:	60a3      	str	r3, [r4, #8]
 800f64c:	6823      	ldr	r3, [r4, #0]
 800f64e:	1c5a      	adds	r2, r3, #1
 800f650:	6022      	str	r2, [r4, #0]
 800f652:	701e      	strb	r6, [r3, #0]
 800f654:	6963      	ldr	r3, [r4, #20]
 800f656:	3001      	adds	r0, #1
 800f658:	4298      	cmp	r0, r3
 800f65a:	d004      	beq.n	800f666 <__swbuf_r+0x62>
 800f65c:	89a3      	ldrh	r3, [r4, #12]
 800f65e:	07db      	lsls	r3, r3, #31
 800f660:	d519      	bpl.n	800f696 <__swbuf_r+0x92>
 800f662:	2e0a      	cmp	r6, #10
 800f664:	d117      	bne.n	800f696 <__swbuf_r+0x92>
 800f666:	4621      	mov	r1, r4
 800f668:	4628      	mov	r0, r5
 800f66a:	f000 ff6f 	bl	801054c <_fflush_r>
 800f66e:	b190      	cbz	r0, 800f696 <__swbuf_r+0x92>
 800f670:	e00f      	b.n	800f692 <__swbuf_r+0x8e>
 800f672:	4b0b      	ldr	r3, [pc, #44]	; (800f6a0 <__swbuf_r+0x9c>)
 800f674:	429c      	cmp	r4, r3
 800f676:	d101      	bne.n	800f67c <__swbuf_r+0x78>
 800f678:	68ac      	ldr	r4, [r5, #8]
 800f67a:	e7d0      	b.n	800f61e <__swbuf_r+0x1a>
 800f67c:	4b09      	ldr	r3, [pc, #36]	; (800f6a4 <__swbuf_r+0xa0>)
 800f67e:	429c      	cmp	r4, r3
 800f680:	bf08      	it	eq
 800f682:	68ec      	ldreq	r4, [r5, #12]
 800f684:	e7cb      	b.n	800f61e <__swbuf_r+0x1a>
 800f686:	4621      	mov	r1, r4
 800f688:	4628      	mov	r0, r5
 800f68a:	f000 f80d 	bl	800f6a8 <__swsetup_r>
 800f68e:	2800      	cmp	r0, #0
 800f690:	d0cc      	beq.n	800f62c <__swbuf_r+0x28>
 800f692:	f04f 37ff 	mov.w	r7, #4294967295
 800f696:	4638      	mov	r0, r7
 800f698:	bdf8      	pop	{r3, r4, r5, r6, r7, pc}
 800f69a:	bf00      	nop
 800f69c:	08012704 	.word	0x08012704
 800f6a0:	08012724 	.word	0x08012724
 800f6a4:	080126e4 	.word	0x080126e4

0800f6a8 <__swsetup_r>:
 800f6a8:	4b32      	ldr	r3, [pc, #200]	; (800f774 <__swsetup_r+0xcc>)
 800f6aa:	b570      	push	{r4, r5, r6, lr}
 800f6ac:	681d      	ldr	r5, [r3, #0]
 800f6ae:	4606      	mov	r6, r0
 800f6b0:	460c      	mov	r4, r1
 800f6b2:	b125      	cbz	r5, 800f6be <__swsetup_r+0x16>
 800f6b4:	69ab      	ldr	r3, [r5, #24]
 800f6b6:	b913      	cbnz	r3, 800f6be <__swsetup_r+0x16>
 800f6b8:	4628      	mov	r0, r5
 800f6ba:	f000 ffb1 	bl	8010620 <__sinit>
 800f6be:	4b2e      	ldr	r3, [pc, #184]	; (800f778 <__swsetup_r+0xd0>)
 800f6c0:	429c      	cmp	r4, r3
 800f6c2:	d10f      	bne.n	800f6e4 <__swsetup_r+0x3c>
 800f6c4:	686c      	ldr	r4, [r5, #4]
 800f6c6:	f9b4 300c 	ldrsh.w	r3, [r4, #12]
 800f6ca:	b29a      	uxth	r2, r3
 800f6cc:	0715      	lsls	r5, r2, #28
 800f6ce:	d42c      	bmi.n	800f72a <__swsetup_r+0x82>
 800f6d0:	06d0      	lsls	r0, r2, #27
 800f6d2:	d411      	bmi.n	800f6f8 <__swsetup_r+0x50>
 800f6d4:	2209      	movs	r2, #9
 800f6d6:	6032      	str	r2, [r6, #0]
 800f6d8:	f043 0340 	orr.w	r3, r3, #64	; 0x40
 800f6dc:	81a3      	strh	r3, [r4, #12]
 800f6de:	f04f 30ff 	mov.w	r0, #4294967295
 800f6e2:	bd70      	pop	{r4, r5, r6, pc}
 800f6e4:	4b25      	ldr	r3, [pc, #148]	; (800f77c <__swsetup_r+0xd4>)
 800f6e6:	429c      	cmp	r4, r3
 800f6e8:	d101      	bne.n	800f6ee <__swsetup_r+0x46>
 800f6ea:	68ac      	ldr	r4, [r5, #8]
 800f6ec:	e7eb      	b.n	800f6c6 <__swsetup_r+0x1e>
 800f6ee:	4b24      	ldr	r3, [pc, #144]	; (800f780 <__swsetup_r+0xd8>)
 800f6f0:	429c      	cmp	r4, r3
 800f6f2:	bf08      	it	eq
 800f6f4:	68ec      	ldreq	r4, [r5, #12]
 800f6f6:	e7e6      	b.n	800f6c6 <__swsetup_r+0x1e>
 800f6f8:	0751      	lsls	r1, r2, #29
 800f6fa:	d512      	bpl.n	800f722 <__swsetup_r+0x7a>
 800f6fc:	6b61      	ldr	r1, [r4, #52]	; 0x34
 800f6fe:	b141      	cbz	r1, 800f712 <__swsetup_r+0x6a>
 800f700:	f104 0344 	add.w	r3, r4, #68	; 0x44
 800f704:	4299      	cmp	r1, r3
 800f706:	d002      	beq.n	800f70e <__swsetup_r+0x66>
 800f708:	4630      	mov	r0, r6
 800f70a:	f001 fb77 	bl	8010dfc <_free_r>
 800f70e:	2300      	movs	r3, #0
 800f710:	6363      	str	r3, [r4, #52]	; 0x34
 800f712:	89a3      	ldrh	r3, [r4, #12]
 800f714:	f023 0324 	bic.w	r3, r3, #36	; 0x24
 800f718:	81a3      	strh	r3, [r4, #12]
 800f71a:	2300      	movs	r3, #0
 800f71c:	6063      	str	r3, [r4, #4]
 800f71e:	6923      	ldr	r3, [r4, #16]
 800f720:	6023      	str	r3, [r4, #0]
 800f722:	89a3      	ldrh	r3, [r4, #12]
 800f724:	f043 0308 	orr.w	r3, r3, #8
 800f728:	81a3      	strh	r3, [r4, #12]
 800f72a:	6923      	ldr	r3, [r4, #16]
 800f72c:	b94b      	cbnz	r3, 800f742 <__swsetup_r+0x9a>
 800f72e:	89a3      	ldrh	r3, [r4, #12]
 800f730:	f403 7320 	and.w	r3, r3, #640	; 0x280
 800f734:	f5b3 7f00 	cmp.w	r3, #512	; 0x200
 800f738:	d003      	beq.n	800f742 <__swsetup_r+0x9a>
 800f73a:	4621      	mov	r1, r4
 800f73c:	4630      	mov	r0, r6
 800f73e:	f001 f82b 	bl	8010798 <__smakebuf_r>
 800f742:	89a2      	ldrh	r2, [r4, #12]
 800f744:	f012 0301 	ands.w	r3, r2, #1
 800f748:	d00c      	beq.n	800f764 <__swsetup_r+0xbc>
 800f74a:	2300      	movs	r3, #0
 800f74c:	60a3      	str	r3, [r4, #8]
 800f74e:	6963      	ldr	r3, [r4, #20]
 800f750:	425b      	negs	r3, r3
 800f752:	61a3      	str	r3, [r4, #24]
 800f754:	6923      	ldr	r3, [r4, #16]
 800f756:	b953      	cbnz	r3, 800f76e <__swsetup_r+0xc6>
 800f758:	f9b4 300c 	ldrsh.w	r3, [r4, #12]
 800f75c:	f013 0080 	ands.w	r0, r3, #128	; 0x80
 800f760:	d1ba      	bne.n	800f6d8 <__swsetup_r+0x30>
 800f762:	bd70      	pop	{r4, r5, r6, pc}
 800f764:	0792      	lsls	r2, r2, #30
 800f766:	bf58      	it	pl
 800f768:	6963      	ldrpl	r3, [r4, #20]
 800f76a:	60a3      	str	r3, [r4, #8]
 800f76c:	e7f2      	b.n	800f754 <__swsetup_r+0xac>
 800f76e:	2000      	movs	r0, #0
 800f770:	e7f7      	b.n	800f762 <__swsetup_r+0xba>
 800f772:	bf00      	nop
 800f774:	200015b0 	.word	0x200015b0
 800f778:	08012704 	.word	0x08012704
 800f77c:	08012724 	.word	0x08012724
 800f780:	080126e4 	.word	0x080126e4

0800f784 <quorem>:
 800f784:	e92d 4ff7 	stmdb	sp!, {r0, r1, r2, r4, r5, r6, r7, r8, r9, sl, fp, lr}
 800f788:	6903      	ldr	r3, [r0, #16]
 800f78a:	690c      	ldr	r4, [r1, #16]
 800f78c:	429c      	cmp	r4, r3
 800f78e:	4680      	mov	r8, r0
 800f790:	f300 8082 	bgt.w	800f898 <quorem+0x114>
 800f794:	3c01      	subs	r4, #1
 800f796:	f101 0714 	add.w	r7, r1, #20
 800f79a:	ea4f 0e84 	mov.w	lr, r4, lsl #2
 800f79e:	f100 0614 	add.w	r6, r0, #20
 800f7a2:	f857 5024 	ldr.w	r5, [r7, r4, lsl #2]
 800f7a6:	f856 0024 	ldr.w	r0, [r6, r4, lsl #2]
 800f7aa:	eb06 030e 	add.w	r3, r6, lr
 800f7ae:	3501      	adds	r5, #1
 800f7b0:	eb07 090e 	add.w	r9, r7, lr
 800f7b4:	9301      	str	r3, [sp, #4]
 800f7b6:	fbb0 f5f5 	udiv	r5, r0, r5
 800f7ba:	b395      	cbz	r5, 800f822 <quorem+0x9e>
 800f7bc:	f04f 0a00 	mov.w	sl, #0
 800f7c0:	4638      	mov	r0, r7
 800f7c2:	46b4      	mov	ip, r6
 800f7c4:	46d3      	mov	fp, sl
 800f7c6:	f850 2b04 	ldr.w	r2, [r0], #4
 800f7ca:	b293      	uxth	r3, r2
 800f7cc:	fb05 a303 	mla	r3, r5, r3, sl
 800f7d0:	ea4f 4a13 	mov.w	sl, r3, lsr #16
 800f7d4:	b29b      	uxth	r3, r3
 800f7d6:	ebab 0303 	sub.w	r3, fp, r3
 800f7da:	0c12      	lsrs	r2, r2, #16
 800f7dc:	f8bc b000 	ldrh.w	fp, [ip]
 800f7e0:	fb05 a202 	mla	r2, r5, r2, sl
 800f7e4:	fa13 f38b 	uxtah	r3, r3, fp
 800f7e8:	ea4f 4a12 	mov.w	sl, r2, lsr #16
 800f7ec:	fa1f fb82 	uxth.w	fp, r2
 800f7f0:	f8dc 2000 	ldr.w	r2, [ip]
 800f7f4:	ebcb 4212 	rsb	r2, fp, r2, lsr #16
 800f7f8:	eb02 4223 	add.w	r2, r2, r3, asr #16
 800f7fc:	b29b      	uxth	r3, r3
 800f7fe:	ea43 4302 	orr.w	r3, r3, r2, lsl #16
 800f802:	4581      	cmp	r9, r0
 800f804:	ea4f 4b22 	mov.w	fp, r2, asr #16
 800f808:	f84c 3b04 	str.w	r3, [ip], #4
 800f80c:	d2db      	bcs.n	800f7c6 <quorem+0x42>
 800f80e:	f856 300e 	ldr.w	r3, [r6, lr]
 800f812:	b933      	cbnz	r3, 800f822 <quorem+0x9e>
 800f814:	9b01      	ldr	r3, [sp, #4]
 800f816:	3b04      	subs	r3, #4
 800f818:	429e      	cmp	r6, r3
 800f81a:	461a      	mov	r2, r3
 800f81c:	d330      	bcc.n	800f880 <quorem+0xfc>
 800f81e:	f8c8 4010 	str.w	r4, [r8, #16]
 800f822:	4640      	mov	r0, r8
 800f824:	f001 fa15 	bl	8010c52 <__mcmp>
 800f828:	2800      	cmp	r0, #0
 800f82a:	db25      	blt.n	800f878 <quorem+0xf4>
 800f82c:	3501      	adds	r5, #1
 800f82e:	4630      	mov	r0, r6
 800f830:	f04f 0e00 	mov.w	lr, #0
 800f834:	f857 2b04 	ldr.w	r2, [r7], #4
 800f838:	f8d0 c000 	ldr.w	ip, [r0]
 800f83c:	b293      	uxth	r3, r2
 800f83e:	ebae 0303 	sub.w	r3, lr, r3
 800f842:	0c12      	lsrs	r2, r2, #16
 800f844:	fa13 f38c 	uxtah	r3, r3, ip
 800f848:	ebc2 421c 	rsb	r2, r2, ip, lsr #16
 800f84c:	eb02 4223 	add.w	r2, r2, r3, asr #16
 800f850:	b29b      	uxth	r3, r3
 800f852:	ea43 4302 	orr.w	r3, r3, r2, lsl #16
 800f856:	45b9      	cmp	r9, r7
 800f858:	ea4f 4e22 	mov.w	lr, r2, asr #16
 800f85c:	f840 3b04 	str.w	r3, [r0], #4
 800f860:	d2e8      	bcs.n	800f834 <quorem+0xb0>
 800f862:	f856 2024 	ldr.w	r2, [r6, r4, lsl #2]
 800f866:	eb06 0384 	add.w	r3, r6, r4, lsl #2
 800f86a:	b92a      	cbnz	r2, 800f878 <quorem+0xf4>
 800f86c:	3b04      	subs	r3, #4
 800f86e:	429e      	cmp	r6, r3
 800f870:	461a      	mov	r2, r3
 800f872:	d30b      	bcc.n	800f88c <quorem+0x108>
 800f874:	f8c8 4010 	str.w	r4, [r8, #16]
 800f878:	4628      	mov	r0, r5
 800f87a:	b003      	add	sp, #12
 800f87c:	e8bd 8ff0 	ldmia.w	sp!, {r4, r5, r6, r7, r8, r9, sl, fp, pc}
 800f880:	6812      	ldr	r2, [r2, #0]
 800f882:	3b04      	subs	r3, #4
 800f884:	2a00      	cmp	r2, #0
 800f886:	d1ca      	bne.n	800f81e <quorem+0x9a>
 800f888:	3c01      	subs	r4, #1
 800f88a:	e7c5      	b.n	800f818 <quorem+0x94>
 800f88c:	6812      	ldr	r2, [r2, #0]
 800f88e:	3b04      	subs	r3, #4
 800f890:	2a00      	cmp	r2, #0
 800f892:	d1ef      	bne.n	800f874 <quorem+0xf0>
 800f894:	3c01      	subs	r4, #1
 800f896:	e7ea      	b.n	800f86e <quorem+0xea>
 800f898:	2000      	movs	r0, #0
 800f89a:	e7ee      	b.n	800f87a <quorem+0xf6>
 800f89c:	0000      	movs	r0, r0
	...

0800f8a0 <_dtoa_r>:
 800f8a0:	e92d 4ff0 	stmdb	sp!, {r4, r5, r6, r7, r8, r9, sl, fp, lr}
 800f8a4:	ec57 6b10 	vmov	r6, r7, d0
 800f8a8:	b097      	sub	sp, #92	; 0x5c
 800f8aa:	e9cd 6700 	strd	r6, r7, [sp]
 800f8ae:	6a46      	ldr	r6, [r0, #36]	; 0x24
 800f8b0:	9107      	str	r1, [sp, #28]
 800f8b2:	4604      	mov	r4, r0
 800f8b4:	920a      	str	r2, [sp, #40]	; 0x28
 800f8b6:	930f      	str	r3, [sp, #60]	; 0x3c
 800f8b8:	9d20      	ldr	r5, [sp, #128]	; 0x80
 800f8ba:	b93e      	cbnz	r6, 800f8cc <_dtoa_r+0x2c>
 800f8bc:	2010      	movs	r0, #16
 800f8be:	f000 ffab 	bl	8010818 <malloc>
 800f8c2:	6260      	str	r0, [r4, #36]	; 0x24
 800f8c4:	6046      	str	r6, [r0, #4]
 800f8c6:	6086      	str	r6, [r0, #8]
 800f8c8:	6006      	str	r6, [r0, #0]
 800f8ca:	60c6      	str	r6, [r0, #12]
 800f8cc:	6a63      	ldr	r3, [r4, #36]	; 0x24
 800f8ce:	6819      	ldr	r1, [r3, #0]
 800f8d0:	b151      	cbz	r1, 800f8e8 <_dtoa_r+0x48>
 800f8d2:	685a      	ldr	r2, [r3, #4]
 800f8d4:	604a      	str	r2, [r1, #4]
 800f8d6:	2301      	movs	r3, #1
 800f8d8:	4093      	lsls	r3, r2
 800f8da:	608b      	str	r3, [r1, #8]
 800f8dc:	4620      	mov	r0, r4
 800f8de:	f000 ffe2 	bl	80108a6 <_Bfree>
 800f8e2:	6a63      	ldr	r3, [r4, #36]	; 0x24
 800f8e4:	2200      	movs	r2, #0
 800f8e6:	601a      	str	r2, [r3, #0]
 800f8e8:	9b01      	ldr	r3, [sp, #4]
 800f8ea:	2b00      	cmp	r3, #0
 800f8ec:	bfbf      	itttt	lt
 800f8ee:	2301      	movlt	r3, #1
 800f8f0:	602b      	strlt	r3, [r5, #0]
 800f8f2:	9b01      	ldrlt	r3, [sp, #4]
 800f8f4:	f023 4300 	biclt.w	r3, r3, #2147483648	; 0x80000000
 800f8f8:	bfb2      	itee	lt
 800f8fa:	9301      	strlt	r3, [sp, #4]
 800f8fc:	2300      	movge	r3, #0
 800f8fe:	602b      	strge	r3, [r5, #0]
 800f900:	f8dd 8004 	ldr.w	r8, [sp, #4]
 800f904:	4ba8      	ldr	r3, [pc, #672]	; (800fba8 <_dtoa_r+0x308>)
 800f906:	ea33 0308 	bics.w	r3, r3, r8
 800f90a:	d11b      	bne.n	800f944 <_dtoa_r+0xa4>
 800f90c:	9a0f      	ldr	r2, [sp, #60]	; 0x3c
 800f90e:	f242 730f 	movw	r3, #9999	; 0x270f
 800f912:	6013      	str	r3, [r2, #0]
 800f914:	9b00      	ldr	r3, [sp, #0]
 800f916:	b923      	cbnz	r3, 800f922 <_dtoa_r+0x82>
 800f918:	f3c8 0013 	ubfx	r0, r8, #0, #20
 800f91c:	2800      	cmp	r0, #0
 800f91e:	f000 8578 	beq.w	8010412 <_dtoa_r+0xb72>
 800f922:	9b21      	ldr	r3, [sp, #132]	; 0x84
 800f924:	b953      	cbnz	r3, 800f93c <_dtoa_r+0x9c>
 800f926:	4ba1      	ldr	r3, [pc, #644]	; (800fbac <_dtoa_r+0x30c>)
 800f928:	e021      	b.n	800f96e <_dtoa_r+0xce>
 800f92a:	4ba1      	ldr	r3, [pc, #644]	; (800fbb0 <_dtoa_r+0x310>)
 800f92c:	9302      	str	r3, [sp, #8]
 800f92e:	3308      	adds	r3, #8
 800f930:	9a21      	ldr	r2, [sp, #132]	; 0x84
 800f932:	6013      	str	r3, [r2, #0]
 800f934:	9802      	ldr	r0, [sp, #8]
 800f936:	b017      	add	sp, #92	; 0x5c
 800f938:	e8bd 8ff0 	ldmia.w	sp!, {r4, r5, r6, r7, r8, r9, sl, fp, pc}
 800f93c:	4b9b      	ldr	r3, [pc, #620]	; (800fbac <_dtoa_r+0x30c>)
 800f93e:	9302      	str	r3, [sp, #8]
 800f940:	3303      	adds	r3, #3
 800f942:	e7f5      	b.n	800f930 <_dtoa_r+0x90>
 800f944:	e9dd 6700 	ldrd	r6, r7, [sp]
 800f948:	2200      	movs	r2, #0
 800f94a:	2300      	movs	r3, #0
 800f94c:	4630      	mov	r0, r6
 800f94e:	4639      	mov	r1, r7
 800f950:	f7f9 f8be 	bl	8008ad0 <__aeabi_dcmpeq>
 800f954:	4681      	mov	r9, r0
 800f956:	b160      	cbz	r0, 800f972 <_dtoa_r+0xd2>
 800f958:	9a0f      	ldr	r2, [sp, #60]	; 0x3c
 800f95a:	2301      	movs	r3, #1
 800f95c:	6013      	str	r3, [r2, #0]
 800f95e:	9b21      	ldr	r3, [sp, #132]	; 0x84
 800f960:	2b00      	cmp	r3, #0
 800f962:	f000 8553 	beq.w	801040c <_dtoa_r+0xb6c>
 800f966:	4b93      	ldr	r3, [pc, #588]	; (800fbb4 <_dtoa_r+0x314>)
 800f968:	9a21      	ldr	r2, [sp, #132]	; 0x84
 800f96a:	6013      	str	r3, [r2, #0]
 800f96c:	3b01      	subs	r3, #1
 800f96e:	9302      	str	r3, [sp, #8]
 800f970:	e7e0      	b.n	800f934 <_dtoa_r+0x94>
 800f972:	aa14      	add	r2, sp, #80	; 0x50
 800f974:	a915      	add	r1, sp, #84	; 0x54
 800f976:	ec47 6b10 	vmov	d0, r6, r7
 800f97a:	4620      	mov	r0, r4
 800f97c:	f001 f9e1 	bl	8010d42 <__d2b>
 800f980:	f3c8 550a 	ubfx	r5, r8, #20, #11
 800f984:	4682      	mov	sl, r0
 800f986:	2d00      	cmp	r5, #0
 800f988:	d07e      	beq.n	800fa88 <_dtoa_r+0x1e8>
 800f98a:	f3c7 0313 	ubfx	r3, r7, #0, #20
 800f98e:	f043 517f 	orr.w	r1, r3, #1069547520	; 0x3fc00000
 800f992:	4630      	mov	r0, r6
 800f994:	f441 1140 	orr.w	r1, r1, #3145728	; 0x300000
 800f998:	f2a5 35ff 	subw	r5, r5, #1023	; 0x3ff
 800f99c:	f8cd 9048 	str.w	r9, [sp, #72]	; 0x48
 800f9a0:	2200      	movs	r2, #0
 800f9a2:	4b85      	ldr	r3, [pc, #532]	; (800fbb8 <_dtoa_r+0x318>)
 800f9a4:	f7f8 fc78 	bl	8008298 <__aeabi_dsub>
 800f9a8:	a379      	add	r3, pc, #484	; (adr r3, 800fb90 <_dtoa_r+0x2f0>)
 800f9aa:	e9d3 2300 	ldrd	r2, r3, [r3]
 800f9ae:	f7f8 fe27 	bl	8008600 <__aeabi_dmul>
 800f9b2:	a379      	add	r3, pc, #484	; (adr r3, 800fb98 <_dtoa_r+0x2f8>)
 800f9b4:	e9d3 2300 	ldrd	r2, r3, [r3]
 800f9b8:	f7f8 fc70 	bl	800829c <__adddf3>
 800f9bc:	4606      	mov	r6, r0
 800f9be:	4628      	mov	r0, r5
 800f9c0:	460f      	mov	r7, r1
 800f9c2:	f7f8 fdb7 	bl	8008534 <__aeabi_i2d>
 800f9c6:	a376      	add	r3, pc, #472	; (adr r3, 800fba0 <_dtoa_r+0x300>)
 800f9c8:	e9d3 2300 	ldrd	r2, r3, [r3]
 800f9cc:	f7f8 fe18 	bl	8008600 <__aeabi_dmul>
 800f9d0:	4602      	mov	r2, r0
 800f9d2:	460b      	mov	r3, r1
 800f9d4:	4630      	mov	r0, r6
 800f9d6:	4639      	mov	r1, r7
 800f9d8:	f7f8 fc60 	bl	800829c <__adddf3>
 800f9dc:	4606      	mov	r6, r0
 800f9de:	460f      	mov	r7, r1
 800f9e0:	f7f9 f8be 	bl	8008b60 <__aeabi_d2iz>
 800f9e4:	2200      	movs	r2, #0
 800f9e6:	4683      	mov	fp, r0
 800f9e8:	2300      	movs	r3, #0
 800f9ea:	4630      	mov	r0, r6
 800f9ec:	4639      	mov	r1, r7
 800f9ee:	f7f9 f879 	bl	8008ae4 <__aeabi_dcmplt>
 800f9f2:	b158      	cbz	r0, 800fa0c <_dtoa_r+0x16c>
 800f9f4:	4658      	mov	r0, fp
 800f9f6:	f7f8 fd9d 	bl	8008534 <__aeabi_i2d>
 800f9fa:	4602      	mov	r2, r0
 800f9fc:	460b      	mov	r3, r1
 800f9fe:	4630      	mov	r0, r6
 800fa00:	4639      	mov	r1, r7
 800fa02:	f7f9 f865 	bl	8008ad0 <__aeabi_dcmpeq>
 800fa06:	b908      	cbnz	r0, 800fa0c <_dtoa_r+0x16c>
 800fa08:	f10b 3bff 	add.w	fp, fp, #4294967295
 800fa0c:	f1bb 0f16 	cmp.w	fp, #22
 800fa10:	d859      	bhi.n	800fac6 <_dtoa_r+0x226>
 800fa12:	496a      	ldr	r1, [pc, #424]	; (800fbbc <_dtoa_r+0x31c>)
 800fa14:	eb01 01cb 	add.w	r1, r1, fp, lsl #3
 800fa18:	e9dd 2300 	ldrd	r2, r3, [sp]
 800fa1c:	e9d1 0100 	ldrd	r0, r1, [r1]
 800fa20:	f7f9 f87e 	bl	8008b20 <__aeabi_dcmpgt>
 800fa24:	2800      	cmp	r0, #0
 800fa26:	d050      	beq.n	800faca <_dtoa_r+0x22a>
 800fa28:	f10b 3bff 	add.w	fp, fp, #4294967295
 800fa2c:	2300      	movs	r3, #0
 800fa2e:	930e      	str	r3, [sp, #56]	; 0x38
 800fa30:	9b14      	ldr	r3, [sp, #80]	; 0x50
 800fa32:	1b5d      	subs	r5, r3, r5
 800fa34:	1e6b      	subs	r3, r5, #1
 800fa36:	9306      	str	r3, [sp, #24]
 800fa38:	bf45      	ittet	mi
 800fa3a:	f1c5 0301 	rsbmi	r3, r5, #1
 800fa3e:	9305      	strmi	r3, [sp, #20]
 800fa40:	2300      	movpl	r3, #0
 800fa42:	2300      	movmi	r3, #0
 800fa44:	bf4c      	ite	mi
 800fa46:	9306      	strmi	r3, [sp, #24]
 800fa48:	9305      	strpl	r3, [sp, #20]
 800fa4a:	f1bb 0f00 	cmp.w	fp, #0
 800fa4e:	db3e      	blt.n	800face <_dtoa_r+0x22e>
 800fa50:	9b06      	ldr	r3, [sp, #24]
 800fa52:	f8cd b02c 	str.w	fp, [sp, #44]	; 0x2c
 800fa56:	445b      	add	r3, fp
 800fa58:	9306      	str	r3, [sp, #24]
 800fa5a:	2300      	movs	r3, #0
 800fa5c:	9308      	str	r3, [sp, #32]
 800fa5e:	9b07      	ldr	r3, [sp, #28]
 800fa60:	2b09      	cmp	r3, #9
 800fa62:	f200 80af 	bhi.w	800fbc4 <_dtoa_r+0x324>
 800fa66:	2b05      	cmp	r3, #5
 800fa68:	bfc4      	itt	gt
 800fa6a:	3b04      	subgt	r3, #4
 800fa6c:	9307      	strgt	r3, [sp, #28]
 800fa6e:	9b07      	ldr	r3, [sp, #28]
 800fa70:	f1a3 0302 	sub.w	r3, r3, #2
 800fa74:	bfcc      	ite	gt
 800fa76:	2600      	movgt	r6, #0
 800fa78:	2601      	movle	r6, #1
 800fa7a:	2b03      	cmp	r3, #3
 800fa7c:	f200 80ae 	bhi.w	800fbdc <_dtoa_r+0x33c>
 800fa80:	e8df f003 	tbb	[pc, r3]
 800fa84:	772f8482 	.word	0x772f8482
 800fa88:	9b15      	ldr	r3, [sp, #84]	; 0x54
 800fa8a:	9d14      	ldr	r5, [sp, #80]	; 0x50
 800fa8c:	441d      	add	r5, r3
 800fa8e:	f205 4332 	addw	r3, r5, #1074	; 0x432
 800fa92:	2b20      	cmp	r3, #32
 800fa94:	dd11      	ble.n	800faba <_dtoa_r+0x21a>
 800fa96:	9a00      	ldr	r2, [sp, #0]
 800fa98:	f205 4012 	addw	r0, r5, #1042	; 0x412
 800fa9c:	f1c3 0340 	rsb	r3, r3, #64	; 0x40
 800faa0:	fa22 f000 	lsr.w	r0, r2, r0
 800faa4:	fa08 f303 	lsl.w	r3, r8, r3
 800faa8:	4318      	orrs	r0, r3
 800faaa:	f7f8 fd33 	bl	8008514 <__aeabi_ui2d>
 800faae:	2301      	movs	r3, #1
 800fab0:	f1a1 71f8 	sub.w	r1, r1, #32505856	; 0x1f00000
 800fab4:	3d01      	subs	r5, #1
 800fab6:	9312      	str	r3, [sp, #72]	; 0x48
 800fab8:	e772      	b.n	800f9a0 <_dtoa_r+0x100>
 800faba:	f1c3 0020 	rsb	r0, r3, #32
 800fabe:	9b00      	ldr	r3, [sp, #0]
 800fac0:	fa03 f000 	lsl.w	r0, r3, r0
 800fac4:	e7f1      	b.n	800faaa <_dtoa_r+0x20a>
 800fac6:	2301      	movs	r3, #1
 800fac8:	e7b1      	b.n	800fa2e <_dtoa_r+0x18e>
 800faca:	900e      	str	r0, [sp, #56]	; 0x38
 800facc:	e7b0      	b.n	800fa30 <_dtoa_r+0x190>
 800face:	9b05      	ldr	r3, [sp, #20]
 800fad0:	eba3 030b 	sub.w	r3, r3, fp
 800fad4:	9305      	str	r3, [sp, #20]
 800fad6:	f1cb 0300 	rsb	r3, fp, #0
 800fada:	9308      	str	r3, [sp, #32]
 800fadc:	2300      	movs	r3, #0
 800fade:	930b      	str	r3, [sp, #44]	; 0x2c
 800fae0:	e7bd      	b.n	800fa5e <_dtoa_r+0x1be>
 800fae2:	2301      	movs	r3, #1
 800fae4:	9309      	str	r3, [sp, #36]	; 0x24
 800fae6:	9b0a      	ldr	r3, [sp, #40]	; 0x28
 800fae8:	2b00      	cmp	r3, #0
 800faea:	dd7a      	ble.n	800fbe2 <_dtoa_r+0x342>
 800faec:	9304      	str	r3, [sp, #16]
 800faee:	9303      	str	r3, [sp, #12]
 800faf0:	6a65      	ldr	r5, [r4, #36]	; 0x24
 800faf2:	2200      	movs	r2, #0
 800faf4:	606a      	str	r2, [r5, #4]
 800faf6:	2104      	movs	r1, #4
 800faf8:	f101 0214 	add.w	r2, r1, #20
 800fafc:	429a      	cmp	r2, r3
 800fafe:	d975      	bls.n	800fbec <_dtoa_r+0x34c>
 800fb00:	6869      	ldr	r1, [r5, #4]
 800fb02:	4620      	mov	r0, r4
 800fb04:	f000 fe9b 	bl	801083e <_Balloc>
 800fb08:	6a63      	ldr	r3, [r4, #36]	; 0x24
 800fb0a:	6028      	str	r0, [r5, #0]
 800fb0c:	681b      	ldr	r3, [r3, #0]
 800fb0e:	9302      	str	r3, [sp, #8]
 800fb10:	9b03      	ldr	r3, [sp, #12]
 800fb12:	2b0e      	cmp	r3, #14
 800fb14:	f200 80e5 	bhi.w	800fce2 <_dtoa_r+0x442>
 800fb18:	2e00      	cmp	r6, #0
 800fb1a:	f000 80e2 	beq.w	800fce2 <_dtoa_r+0x442>
 800fb1e:	ed9d 7b00 	vldr	d7, [sp]
 800fb22:	f1bb 0f00 	cmp.w	fp, #0
 800fb26:	ed8d 7b0c 	vstr	d7, [sp, #48]	; 0x30
 800fb2a:	dd74      	ble.n	800fc16 <_dtoa_r+0x376>
 800fb2c:	4a23      	ldr	r2, [pc, #140]	; (800fbbc <_dtoa_r+0x31c>)
 800fb2e:	f00b 030f 	and.w	r3, fp, #15
 800fb32:	ea4f 162b 	mov.w	r6, fp, asr #4
 800fb36:	eb02 03c3 	add.w	r3, r2, r3, lsl #3
 800fb3a:	06f0      	lsls	r0, r6, #27
 800fb3c:	e9d3 8900 	ldrd	r8, r9, [r3]
 800fb40:	d559      	bpl.n	800fbf6 <_dtoa_r+0x356>
 800fb42:	4b1f      	ldr	r3, [pc, #124]	; (800fbc0 <_dtoa_r+0x320>)
 800fb44:	ec51 0b17 	vmov	r0, r1, d7
 800fb48:	e9d3 2308 	ldrd	r2, r3, [r3, #32]
 800fb4c:	f7f8 fe82 	bl	8008854 <__aeabi_ddiv>
 800fb50:	e9cd 0100 	strd	r0, r1, [sp]
 800fb54:	f006 060f 	and.w	r6, r6, #15
 800fb58:	2503      	movs	r5, #3
 800fb5a:	4f19      	ldr	r7, [pc, #100]	; (800fbc0 <_dtoa_r+0x320>)
 800fb5c:	2e00      	cmp	r6, #0
 800fb5e:	d14c      	bne.n	800fbfa <_dtoa_r+0x35a>
 800fb60:	4642      	mov	r2, r8
 800fb62:	464b      	mov	r3, r9
 800fb64:	e9dd 0100 	ldrd	r0, r1, [sp]
 800fb68:	f7f8 fe74 	bl	8008854 <__aeabi_ddiv>
 800fb6c:	e9cd 0100 	strd	r0, r1, [sp]
 800fb70:	e06a      	b.n	800fc48 <_dtoa_r+0x3a8>
 800fb72:	2301      	movs	r3, #1
 800fb74:	9309      	str	r3, [sp, #36]	; 0x24
 800fb76:	9b0a      	ldr	r3, [sp, #40]	; 0x28
 800fb78:	445b      	add	r3, fp
 800fb7a:	9304      	str	r3, [sp, #16]
 800fb7c:	3301      	adds	r3, #1
 800fb7e:	2b01      	cmp	r3, #1
 800fb80:	9303      	str	r3, [sp, #12]
 800fb82:	bfb8      	it	lt
 800fb84:	2301      	movlt	r3, #1
 800fb86:	e7b3      	b.n	800faf0 <_dtoa_r+0x250>
 800fb88:	2300      	movs	r3, #0
 800fb8a:	e7ab      	b.n	800fae4 <_dtoa_r+0x244>
 800fb8c:	2300      	movs	r3, #0
 800fb8e:	e7f1      	b.n	800fb74 <_dtoa_r+0x2d4>
 800fb90:	636f4361 	.word	0x636f4361
 800fb94:	3fd287a7 	.word	0x3fd287a7
 800fb98:	8b60c8b3 	.word	0x8b60c8b3
 800fb9c:	3fc68a28 	.word	0x3fc68a28
 800fba0:	509f79fb 	.word	0x509f79fb
 800fba4:	3fd34413 	.word	0x3fd34413
 800fba8:	7ff00000 	.word	0x7ff00000
 800fbac:	080126df 	.word	0x080126df
 800fbb0:	080126d6 	.word	0x080126d6
 800fbb4:	080121a9 	.word	0x080121a9
 800fbb8:	3ff80000 	.word	0x3ff80000
 800fbbc:	08012770 	.word	0x08012770
 800fbc0:	08012748 	.word	0x08012748
 800fbc4:	2601      	movs	r6, #1
 800fbc6:	2300      	movs	r3, #0
 800fbc8:	9307      	str	r3, [sp, #28]
 800fbca:	9609      	str	r6, [sp, #36]	; 0x24
 800fbcc:	f04f 33ff 	mov.w	r3, #4294967295
 800fbd0:	9304      	str	r3, [sp, #16]
 800fbd2:	9303      	str	r3, [sp, #12]
 800fbd4:	2200      	movs	r2, #0
 800fbd6:	2312      	movs	r3, #18
 800fbd8:	920a      	str	r2, [sp, #40]	; 0x28
 800fbda:	e789      	b.n	800faf0 <_dtoa_r+0x250>
 800fbdc:	2301      	movs	r3, #1
 800fbde:	9309      	str	r3, [sp, #36]	; 0x24
 800fbe0:	e7f4      	b.n	800fbcc <_dtoa_r+0x32c>
 800fbe2:	2301      	movs	r3, #1
 800fbe4:	9304      	str	r3, [sp, #16]
 800fbe6:	9303      	str	r3, [sp, #12]
 800fbe8:	461a      	mov	r2, r3
 800fbea:	e7f5      	b.n	800fbd8 <_dtoa_r+0x338>
 800fbec:	686a      	ldr	r2, [r5, #4]
 800fbee:	3201      	adds	r2, #1
 800fbf0:	606a      	str	r2, [r5, #4]
 800fbf2:	0049      	lsls	r1, r1, #1
 800fbf4:	e780      	b.n	800faf8 <_dtoa_r+0x258>
 800fbf6:	2502      	movs	r5, #2
 800fbf8:	e7af      	b.n	800fb5a <_dtoa_r+0x2ba>
 800fbfa:	07f1      	lsls	r1, r6, #31
 800fbfc:	d508      	bpl.n	800fc10 <_dtoa_r+0x370>
 800fbfe:	4640      	mov	r0, r8
 800fc00:	4649      	mov	r1, r9
 800fc02:	e9d7 2300 	ldrd	r2, r3, [r7]
 800fc06:	f7f8 fcfb 	bl	8008600 <__aeabi_dmul>
 800fc0a:	3501      	adds	r5, #1
 800fc0c:	4680      	mov	r8, r0
 800fc0e:	4689      	mov	r9, r1
 800fc10:	1076      	asrs	r6, r6, #1
 800fc12:	3708      	adds	r7, #8
 800fc14:	e7a2      	b.n	800fb5c <_dtoa_r+0x2bc>
 800fc16:	f000 809d 	beq.w	800fd54 <_dtoa_r+0x4b4>
 800fc1a:	f1cb 0600 	rsb	r6, fp, #0
 800fc1e:	4b9f      	ldr	r3, [pc, #636]	; (800fe9c <_dtoa_r+0x5fc>)
 800fc20:	4f9f      	ldr	r7, [pc, #636]	; (800fea0 <_dtoa_r+0x600>)
 800fc22:	f006 020f 	and.w	r2, r6, #15
 800fc26:	eb03 03c2 	add.w	r3, r3, r2, lsl #3
 800fc2a:	e9d3 2300 	ldrd	r2, r3, [r3]
 800fc2e:	e9dd 010c 	ldrd	r0, r1, [sp, #48]	; 0x30
 800fc32:	f7f8 fce5 	bl	8008600 <__aeabi_dmul>
 800fc36:	e9cd 0100 	strd	r0, r1, [sp]
 800fc3a:	1136      	asrs	r6, r6, #4
 800fc3c:	2300      	movs	r3, #0
 800fc3e:	2502      	movs	r5, #2
 800fc40:	2e00      	cmp	r6, #0
 800fc42:	d17c      	bne.n	800fd3e <_dtoa_r+0x49e>
 800fc44:	2b00      	cmp	r3, #0
 800fc46:	d191      	bne.n	800fb6c <_dtoa_r+0x2cc>
 800fc48:	9b0e      	ldr	r3, [sp, #56]	; 0x38
 800fc4a:	2b00      	cmp	r3, #0
 800fc4c:	f000 8084 	beq.w	800fd58 <_dtoa_r+0x4b8>
 800fc50:	e9dd 8900 	ldrd	r8, r9, [sp]
 800fc54:	2200      	movs	r2, #0
 800fc56:	4b93      	ldr	r3, [pc, #588]	; (800fea4 <_dtoa_r+0x604>)
 800fc58:	4640      	mov	r0, r8
 800fc5a:	4649      	mov	r1, r9
 800fc5c:	f7f8 ff42 	bl	8008ae4 <__aeabi_dcmplt>
 800fc60:	2800      	cmp	r0, #0
 800fc62:	d079      	beq.n	800fd58 <_dtoa_r+0x4b8>
 800fc64:	9b03      	ldr	r3, [sp, #12]
 800fc66:	2b00      	cmp	r3, #0
 800fc68:	d076      	beq.n	800fd58 <_dtoa_r+0x4b8>
 800fc6a:	9b04      	ldr	r3, [sp, #16]
 800fc6c:	2b00      	cmp	r3, #0
 800fc6e:	dd34      	ble.n	800fcda <_dtoa_r+0x43a>
 800fc70:	2200      	movs	r2, #0
 800fc72:	4b8d      	ldr	r3, [pc, #564]	; (800fea8 <_dtoa_r+0x608>)
 800fc74:	4640      	mov	r0, r8
 800fc76:	4649      	mov	r1, r9
 800fc78:	f7f8 fcc2 	bl	8008600 <__aeabi_dmul>
 800fc7c:	e9cd 0100 	strd	r0, r1, [sp]
 800fc80:	9e04      	ldr	r6, [sp, #16]
 800fc82:	f10b 37ff 	add.w	r7, fp, #4294967295
 800fc86:	3501      	adds	r5, #1
 800fc88:	4628      	mov	r0, r5
 800fc8a:	f7f8 fc53 	bl	8008534 <__aeabi_i2d>
 800fc8e:	e9dd 2300 	ldrd	r2, r3, [sp]
 800fc92:	f7f8 fcb5 	bl	8008600 <__aeabi_dmul>
 800fc96:	2200      	movs	r2, #0
 800fc98:	4b84      	ldr	r3, [pc, #528]	; (800feac <_dtoa_r+0x60c>)
 800fc9a:	f7f8 faff 	bl	800829c <__adddf3>
 800fc9e:	4680      	mov	r8, r0
 800fca0:	f1a1 7950 	sub.w	r9, r1, #54525952	; 0x3400000
 800fca4:	2e00      	cmp	r6, #0
 800fca6:	d15a      	bne.n	800fd5e <_dtoa_r+0x4be>
 800fca8:	2200      	movs	r2, #0
 800fcaa:	4b81      	ldr	r3, [pc, #516]	; (800feb0 <_dtoa_r+0x610>)
 800fcac:	e9dd 0100 	ldrd	r0, r1, [sp]
 800fcb0:	f7f8 faf2 	bl	8008298 <__aeabi_dsub>
 800fcb4:	4642      	mov	r2, r8
 800fcb6:	464b      	mov	r3, r9
 800fcb8:	e9cd 0100 	strd	r0, r1, [sp]
 800fcbc:	f7f8 ff30 	bl	8008b20 <__aeabi_dcmpgt>
 800fcc0:	2800      	cmp	r0, #0
 800fcc2:	f040 829b 	bne.w	80101fc <_dtoa_r+0x95c>
 800fcc6:	4642      	mov	r2, r8
 800fcc8:	f109 4300 	add.w	r3, r9, #2147483648	; 0x80000000
 800fccc:	e9dd 0100 	ldrd	r0, r1, [sp]
 800fcd0:	f7f8 ff08 	bl	8008ae4 <__aeabi_dcmplt>
 800fcd4:	2800      	cmp	r0, #0
 800fcd6:	f040 828f 	bne.w	80101f8 <_dtoa_r+0x958>
 800fcda:	e9dd 230c 	ldrd	r2, r3, [sp, #48]	; 0x30
 800fcde:	e9cd 2300 	strd	r2, r3, [sp]
 800fce2:	9b15      	ldr	r3, [sp, #84]	; 0x54
 800fce4:	2b00      	cmp	r3, #0
 800fce6:	f2c0 8150 	blt.w	800ff8a <_dtoa_r+0x6ea>
 800fcea:	f1bb 0f0e 	cmp.w	fp, #14
 800fcee:	f300 814c 	bgt.w	800ff8a <_dtoa_r+0x6ea>
 800fcf2:	4b6a      	ldr	r3, [pc, #424]	; (800fe9c <_dtoa_r+0x5fc>)
 800fcf4:	eb03 03cb 	add.w	r3, r3, fp, lsl #3
 800fcf8:	e9d3 8900 	ldrd	r8, r9, [r3]
 800fcfc:	9b0a      	ldr	r3, [sp, #40]	; 0x28
 800fcfe:	2b00      	cmp	r3, #0
 800fd00:	f280 80da 	bge.w	800feb8 <_dtoa_r+0x618>
 800fd04:	9b03      	ldr	r3, [sp, #12]
 800fd06:	2b00      	cmp	r3, #0
 800fd08:	f300 80d6 	bgt.w	800feb8 <_dtoa_r+0x618>
 800fd0c:	f040 8273 	bne.w	80101f6 <_dtoa_r+0x956>
 800fd10:	2200      	movs	r2, #0
 800fd12:	4b67      	ldr	r3, [pc, #412]	; (800feb0 <_dtoa_r+0x610>)
 800fd14:	4640      	mov	r0, r8
 800fd16:	4649      	mov	r1, r9
 800fd18:	f7f8 fc72 	bl	8008600 <__aeabi_dmul>
 800fd1c:	e9dd 2300 	ldrd	r2, r3, [sp]
 800fd20:	f7f8 fef4 	bl	8008b0c <__aeabi_dcmpge>
 800fd24:	9e03      	ldr	r6, [sp, #12]
 800fd26:	4637      	mov	r7, r6
 800fd28:	2800      	cmp	r0, #0
 800fd2a:	f040 824a 	bne.w	80101c2 <_dtoa_r+0x922>
 800fd2e:	9b02      	ldr	r3, [sp, #8]
 800fd30:	9a02      	ldr	r2, [sp, #8]
 800fd32:	1c5d      	adds	r5, r3, #1
 800fd34:	2331      	movs	r3, #49	; 0x31
 800fd36:	7013      	strb	r3, [r2, #0]
 800fd38:	f10b 0b01 	add.w	fp, fp, #1
 800fd3c:	e245      	b.n	80101ca <_dtoa_r+0x92a>
 800fd3e:	07f2      	lsls	r2, r6, #31
 800fd40:	d505      	bpl.n	800fd4e <_dtoa_r+0x4ae>
 800fd42:	e9d7 2300 	ldrd	r2, r3, [r7]
 800fd46:	f7f8 fc5b 	bl	8008600 <__aeabi_dmul>
 800fd4a:	3501      	adds	r5, #1
 800fd4c:	2301      	movs	r3, #1
 800fd4e:	1076      	asrs	r6, r6, #1
 800fd50:	3708      	adds	r7, #8
 800fd52:	e775      	b.n	800fc40 <_dtoa_r+0x3a0>
 800fd54:	2502      	movs	r5, #2
 800fd56:	e777      	b.n	800fc48 <_dtoa_r+0x3a8>
 800fd58:	465f      	mov	r7, fp
 800fd5a:	9e03      	ldr	r6, [sp, #12]
 800fd5c:	e794      	b.n	800fc88 <_dtoa_r+0x3e8>
 800fd5e:	9a02      	ldr	r2, [sp, #8]
 800fd60:	4b4e      	ldr	r3, [pc, #312]	; (800fe9c <_dtoa_r+0x5fc>)
 800fd62:	4432      	add	r2, r6
 800fd64:	9213      	str	r2, [sp, #76]	; 0x4c
 800fd66:	9a09      	ldr	r2, [sp, #36]	; 0x24
 800fd68:	1e71      	subs	r1, r6, #1
 800fd6a:	2a00      	cmp	r2, #0
 800fd6c:	d048      	beq.n	800fe00 <_dtoa_r+0x560>
 800fd6e:	eb03 03c1 	add.w	r3, r3, r1, lsl #3
 800fd72:	e9d3 2300 	ldrd	r2, r3, [r3]
 800fd76:	2000      	movs	r0, #0
 800fd78:	494e      	ldr	r1, [pc, #312]	; (800feb4 <_dtoa_r+0x614>)
 800fd7a:	f7f8 fd6b 	bl	8008854 <__aeabi_ddiv>
 800fd7e:	4642      	mov	r2, r8
 800fd80:	464b      	mov	r3, r9
 800fd82:	f7f8 fa89 	bl	8008298 <__aeabi_dsub>
 800fd86:	9d02      	ldr	r5, [sp, #8]
 800fd88:	4680      	mov	r8, r0
 800fd8a:	4689      	mov	r9, r1
 800fd8c:	e9dd 0100 	ldrd	r0, r1, [sp]
 800fd90:	f7f8 fee6 	bl	8008b60 <__aeabi_d2iz>
 800fd94:	4606      	mov	r6, r0
 800fd96:	f7f8 fbcd 	bl	8008534 <__aeabi_i2d>
 800fd9a:	4602      	mov	r2, r0
 800fd9c:	460b      	mov	r3, r1
 800fd9e:	e9dd 0100 	ldrd	r0, r1, [sp]
 800fda2:	f7f8 fa79 	bl	8008298 <__aeabi_dsub>
 800fda6:	3630      	adds	r6, #48	; 0x30
 800fda8:	f805 6b01 	strb.w	r6, [r5], #1
 800fdac:	4642      	mov	r2, r8
 800fdae:	464b      	mov	r3, r9
 800fdb0:	e9cd 0100 	strd	r0, r1, [sp]
 800fdb4:	f7f8 fe96 	bl	8008ae4 <__aeabi_dcmplt>
 800fdb8:	2800      	cmp	r0, #0
 800fdba:	d165      	bne.n	800fe88 <_dtoa_r+0x5e8>
 800fdbc:	e9dd 2300 	ldrd	r2, r3, [sp]
 800fdc0:	2000      	movs	r0, #0
 800fdc2:	4938      	ldr	r1, [pc, #224]	; (800fea4 <_dtoa_r+0x604>)
 800fdc4:	f7f8 fa68 	bl	8008298 <__aeabi_dsub>
 800fdc8:	4642      	mov	r2, r8
 800fdca:	464b      	mov	r3, r9
 800fdcc:	f7f8 fe8a 	bl	8008ae4 <__aeabi_dcmplt>
 800fdd0:	2800      	cmp	r0, #0
 800fdd2:	f040 80ba 	bne.w	800ff4a <_dtoa_r+0x6aa>
 800fdd6:	9b13      	ldr	r3, [sp, #76]	; 0x4c
 800fdd8:	429d      	cmp	r5, r3
 800fdda:	f43f af7e 	beq.w	800fcda <_dtoa_r+0x43a>
 800fdde:	2200      	movs	r2, #0
 800fde0:	4b31      	ldr	r3, [pc, #196]	; (800fea8 <_dtoa_r+0x608>)
 800fde2:	4640      	mov	r0, r8
 800fde4:	4649      	mov	r1, r9
 800fde6:	f7f8 fc0b 	bl	8008600 <__aeabi_dmul>
 800fdea:	2200      	movs	r2, #0
 800fdec:	4680      	mov	r8, r0
 800fdee:	4689      	mov	r9, r1
 800fdf0:	4b2d      	ldr	r3, [pc, #180]	; (800fea8 <_dtoa_r+0x608>)
 800fdf2:	e9dd 0100 	ldrd	r0, r1, [sp]
 800fdf6:	f7f8 fc03 	bl	8008600 <__aeabi_dmul>
 800fdfa:	e9cd 0100 	strd	r0, r1, [sp]
 800fdfe:	e7c5      	b.n	800fd8c <_dtoa_r+0x4ec>
 800fe00:	eb03 01c1 	add.w	r1, r3, r1, lsl #3
 800fe04:	4642      	mov	r2, r8
 800fe06:	464b      	mov	r3, r9
 800fe08:	e9d1 0100 	ldrd	r0, r1, [r1]
 800fe0c:	f7f8 fbf8 	bl	8008600 <__aeabi_dmul>
 800fe10:	e9cd 0110 	strd	r0, r1, [sp, #64]	; 0x40
 800fe14:	9d02      	ldr	r5, [sp, #8]
 800fe16:	e9dd 0100 	ldrd	r0, r1, [sp]
 800fe1a:	f7f8 fea1 	bl	8008b60 <__aeabi_d2iz>
 800fe1e:	4606      	mov	r6, r0
 800fe20:	f7f8 fb88 	bl	8008534 <__aeabi_i2d>
 800fe24:	3630      	adds	r6, #48	; 0x30
 800fe26:	4602      	mov	r2, r0
 800fe28:	460b      	mov	r3, r1
 800fe2a:	e9dd 0100 	ldrd	r0, r1, [sp]
 800fe2e:	f7f8 fa33 	bl	8008298 <__aeabi_dsub>
 800fe32:	f805 6b01 	strb.w	r6, [r5], #1
 800fe36:	9b13      	ldr	r3, [sp, #76]	; 0x4c
 800fe38:	42ab      	cmp	r3, r5
 800fe3a:	4680      	mov	r8, r0
 800fe3c:	4689      	mov	r9, r1
 800fe3e:	f04f 0200 	mov.w	r2, #0
 800fe42:	d125      	bne.n	800fe90 <_dtoa_r+0x5f0>
 800fe44:	4b1b      	ldr	r3, [pc, #108]	; (800feb4 <_dtoa_r+0x614>)
 800fe46:	e9dd 0110 	ldrd	r0, r1, [sp, #64]	; 0x40
 800fe4a:	f7f8 fa27 	bl	800829c <__adddf3>
 800fe4e:	4602      	mov	r2, r0
 800fe50:	460b      	mov	r3, r1
 800fe52:	4640      	mov	r0, r8
 800fe54:	4649      	mov	r1, r9
 800fe56:	f7f8 fe63 	bl	8008b20 <__aeabi_dcmpgt>
 800fe5a:	2800      	cmp	r0, #0
 800fe5c:	d175      	bne.n	800ff4a <_dtoa_r+0x6aa>
 800fe5e:	e9dd 2310 	ldrd	r2, r3, [sp, #64]	; 0x40
 800fe62:	2000      	movs	r0, #0
 800fe64:	4913      	ldr	r1, [pc, #76]	; (800feb4 <_dtoa_r+0x614>)
 800fe66:	f7f8 fa17 	bl	8008298 <__aeabi_dsub>
 800fe6a:	4602      	mov	r2, r0
 800fe6c:	460b      	mov	r3, r1
 800fe6e:	4640      	mov	r0, r8
 800fe70:	4649      	mov	r1, r9
 800fe72:	f7f8 fe37 	bl	8008ae4 <__aeabi_dcmplt>
 800fe76:	2800      	cmp	r0, #0
 800fe78:	f43f af2f 	beq.w	800fcda <_dtoa_r+0x43a>
 800fe7c:	f815 3c01 	ldrb.w	r3, [r5, #-1]
 800fe80:	2b30      	cmp	r3, #48	; 0x30
 800fe82:	f105 32ff 	add.w	r2, r5, #4294967295
 800fe86:	d001      	beq.n	800fe8c <_dtoa_r+0x5ec>
 800fe88:	46bb      	mov	fp, r7
 800fe8a:	e04d      	b.n	800ff28 <_dtoa_r+0x688>
 800fe8c:	4615      	mov	r5, r2
 800fe8e:	e7f5      	b.n	800fe7c <_dtoa_r+0x5dc>
 800fe90:	4b05      	ldr	r3, [pc, #20]	; (800fea8 <_dtoa_r+0x608>)
 800fe92:	f7f8 fbb5 	bl	8008600 <__aeabi_dmul>
 800fe96:	e9cd 0100 	strd	r0, r1, [sp]
 800fe9a:	e7bc      	b.n	800fe16 <_dtoa_r+0x576>
 800fe9c:	08012770 	.word	0x08012770
 800fea0:	08012748 	.word	0x08012748
 800fea4:	3ff00000 	.word	0x3ff00000
 800fea8:	40240000 	.word	0x40240000
 800feac:	401c0000 	.word	0x401c0000
 800feb0:	40140000 	.word	0x40140000
 800feb4:	3fe00000 	.word	0x3fe00000
 800feb8:	e9dd 6700 	ldrd	r6, r7, [sp]
 800febc:	9d02      	ldr	r5, [sp, #8]
 800febe:	4642      	mov	r2, r8
 800fec0:	464b      	mov	r3, r9
 800fec2:	4630      	mov	r0, r6
 800fec4:	4639      	mov	r1, r7
 800fec6:	f7f8 fcc5 	bl	8008854 <__aeabi_ddiv>
 800feca:	f7f8 fe49 	bl	8008b60 <__aeabi_d2iz>
 800fece:	9000      	str	r0, [sp, #0]
 800fed0:	f7f8 fb30 	bl	8008534 <__aeabi_i2d>
 800fed4:	4642      	mov	r2, r8
 800fed6:	464b      	mov	r3, r9
 800fed8:	f7f8 fb92 	bl	8008600 <__aeabi_dmul>
 800fedc:	4602      	mov	r2, r0
 800fede:	460b      	mov	r3, r1
 800fee0:	4630      	mov	r0, r6
 800fee2:	4639      	mov	r1, r7
 800fee4:	f7f8 f9d8 	bl	8008298 <__aeabi_dsub>
 800fee8:	9e00      	ldr	r6, [sp, #0]
 800feea:	9f03      	ldr	r7, [sp, #12]
 800feec:	3630      	adds	r6, #48	; 0x30
 800feee:	f805 6b01 	strb.w	r6, [r5], #1
 800fef2:	9e02      	ldr	r6, [sp, #8]
 800fef4:	1bae      	subs	r6, r5, r6
 800fef6:	42b7      	cmp	r7, r6
 800fef8:	4602      	mov	r2, r0
 800fefa:	460b      	mov	r3, r1
 800fefc:	d138      	bne.n	800ff70 <_dtoa_r+0x6d0>
 800fefe:	f7f8 f9cd 	bl	800829c <__adddf3>
 800ff02:	4606      	mov	r6, r0
 800ff04:	460f      	mov	r7, r1
 800ff06:	4602      	mov	r2, r0
 800ff08:	460b      	mov	r3, r1
 800ff0a:	4640      	mov	r0, r8
 800ff0c:	4649      	mov	r1, r9
 800ff0e:	f7f8 fde9 	bl	8008ae4 <__aeabi_dcmplt>
 800ff12:	b9c8      	cbnz	r0, 800ff48 <_dtoa_r+0x6a8>
 800ff14:	4632      	mov	r2, r6
 800ff16:	463b      	mov	r3, r7
 800ff18:	4640      	mov	r0, r8
 800ff1a:	4649      	mov	r1, r9
 800ff1c:	f7f8 fdd8 	bl	8008ad0 <__aeabi_dcmpeq>
 800ff20:	b110      	cbz	r0, 800ff28 <_dtoa_r+0x688>
 800ff22:	9b00      	ldr	r3, [sp, #0]
 800ff24:	07db      	lsls	r3, r3, #31
 800ff26:	d40f      	bmi.n	800ff48 <_dtoa_r+0x6a8>
 800ff28:	4651      	mov	r1, sl
 800ff2a:	4620      	mov	r0, r4
 800ff2c:	f000 fcbb 	bl	80108a6 <_Bfree>
 800ff30:	2300      	movs	r3, #0
 800ff32:	9a0f      	ldr	r2, [sp, #60]	; 0x3c
 800ff34:	702b      	strb	r3, [r5, #0]
 800ff36:	f10b 0301 	add.w	r3, fp, #1
 800ff3a:	6013      	str	r3, [r2, #0]
 800ff3c:	9b21      	ldr	r3, [sp, #132]	; 0x84
 800ff3e:	2b00      	cmp	r3, #0
 800ff40:	f43f acf8 	beq.w	800f934 <_dtoa_r+0x94>
 800ff44:	601d      	str	r5, [r3, #0]
 800ff46:	e4f5      	b.n	800f934 <_dtoa_r+0x94>
 800ff48:	465f      	mov	r7, fp
 800ff4a:	f815 2c01 	ldrb.w	r2, [r5, #-1]
 800ff4e:	2a39      	cmp	r2, #57	; 0x39
 800ff50:	f105 33ff 	add.w	r3, r5, #4294967295
 800ff54:	d106      	bne.n	800ff64 <_dtoa_r+0x6c4>
 800ff56:	9a02      	ldr	r2, [sp, #8]
 800ff58:	429a      	cmp	r2, r3
 800ff5a:	d107      	bne.n	800ff6c <_dtoa_r+0x6cc>
 800ff5c:	2330      	movs	r3, #48	; 0x30
 800ff5e:	7013      	strb	r3, [r2, #0]
 800ff60:	3701      	adds	r7, #1
 800ff62:	4613      	mov	r3, r2
 800ff64:	781a      	ldrb	r2, [r3, #0]
 800ff66:	3201      	adds	r2, #1
 800ff68:	701a      	strb	r2, [r3, #0]
 800ff6a:	e78d      	b.n	800fe88 <_dtoa_r+0x5e8>
 800ff6c:	461d      	mov	r5, r3
 800ff6e:	e7ec      	b.n	800ff4a <_dtoa_r+0x6aa>
 800ff70:	2200      	movs	r2, #0
 800ff72:	4ba4      	ldr	r3, [pc, #656]	; (8010204 <_dtoa_r+0x964>)
 800ff74:	f7f8 fb44 	bl	8008600 <__aeabi_dmul>
 800ff78:	2200      	movs	r2, #0
 800ff7a:	2300      	movs	r3, #0
 800ff7c:	4606      	mov	r6, r0
 800ff7e:	460f      	mov	r7, r1
 800ff80:	f7f8 fda6 	bl	8008ad0 <__aeabi_dcmpeq>
 800ff84:	2800      	cmp	r0, #0
 800ff86:	d09a      	beq.n	800febe <_dtoa_r+0x61e>
 800ff88:	e7ce      	b.n	800ff28 <_dtoa_r+0x688>
 800ff8a:	9a09      	ldr	r2, [sp, #36]	; 0x24
 800ff8c:	2a00      	cmp	r2, #0
 800ff8e:	f000 80cd 	beq.w	801012c <_dtoa_r+0x88c>
 800ff92:	9a07      	ldr	r2, [sp, #28]
 800ff94:	2a01      	cmp	r2, #1
 800ff96:	f300 80af 	bgt.w	80100f8 <_dtoa_r+0x858>
 800ff9a:	9a12      	ldr	r2, [sp, #72]	; 0x48
 800ff9c:	2a00      	cmp	r2, #0
 800ff9e:	f000 80a7 	beq.w	80100f0 <_dtoa_r+0x850>
 800ffa2:	f203 4333 	addw	r3, r3, #1075	; 0x433
 800ffa6:	9e08      	ldr	r6, [sp, #32]
 800ffa8:	9d05      	ldr	r5, [sp, #20]
 800ffaa:	9a05      	ldr	r2, [sp, #20]
 800ffac:	441a      	add	r2, r3
 800ffae:	9205      	str	r2, [sp, #20]
 800ffb0:	9a06      	ldr	r2, [sp, #24]
 800ffb2:	2101      	movs	r1, #1
 800ffb4:	441a      	add	r2, r3
 800ffb6:	4620      	mov	r0, r4
 800ffb8:	9206      	str	r2, [sp, #24]
 800ffba:	f000 fd14 	bl	80109e6 <__i2b>
 800ffbe:	4607      	mov	r7, r0
 800ffc0:	2d00      	cmp	r5, #0
 800ffc2:	dd0c      	ble.n	800ffde <_dtoa_r+0x73e>
 800ffc4:	9b06      	ldr	r3, [sp, #24]
 800ffc6:	2b00      	cmp	r3, #0
 800ffc8:	dd09      	ble.n	800ffde <_dtoa_r+0x73e>
 800ffca:	42ab      	cmp	r3, r5
 800ffcc:	9a05      	ldr	r2, [sp, #20]
 800ffce:	bfa8      	it	ge
 800ffd0:	462b      	movge	r3, r5
 800ffd2:	1ad2      	subs	r2, r2, r3
 800ffd4:	9205      	str	r2, [sp, #20]
 800ffd6:	9a06      	ldr	r2, [sp, #24]
 800ffd8:	1aed      	subs	r5, r5, r3
 800ffda:	1ad3      	subs	r3, r2, r3
 800ffdc:	9306      	str	r3, [sp, #24]
 800ffde:	9b08      	ldr	r3, [sp, #32]
 800ffe0:	b1f3      	cbz	r3, 8010020 <_dtoa_r+0x780>
 800ffe2:	9b09      	ldr	r3, [sp, #36]	; 0x24
 800ffe4:	2b00      	cmp	r3, #0
 800ffe6:	f000 80a5 	beq.w	8010134 <_dtoa_r+0x894>
 800ffea:	2e00      	cmp	r6, #0
 800ffec:	dd10      	ble.n	8010010 <_dtoa_r+0x770>
 800ffee:	4639      	mov	r1, r7
 800fff0:	4632      	mov	r2, r6
 800fff2:	4620      	mov	r0, r4
 800fff4:	f000 fd8e 	bl	8010b14 <__pow5mult>
 800fff8:	4652      	mov	r2, sl
 800fffa:	4601      	mov	r1, r0
 800fffc:	4607      	mov	r7, r0
 800fffe:	4620      	mov	r0, r4
 8010000:	f000 fcfa 	bl	80109f8 <__multiply>
 8010004:	4651      	mov	r1, sl
 8010006:	4680      	mov	r8, r0
 8010008:	4620      	mov	r0, r4
 801000a:	f000 fc4c 	bl	80108a6 <_Bfree>
 801000e:	46c2      	mov	sl, r8
 8010010:	9b08      	ldr	r3, [sp, #32]
 8010012:	1b9a      	subs	r2, r3, r6
 8010014:	d004      	beq.n	8010020 <_dtoa_r+0x780>
 8010016:	4651      	mov	r1, sl
 8010018:	4620      	mov	r0, r4
 801001a:	f000 fd7b 	bl	8010b14 <__pow5mult>
 801001e:	4682      	mov	sl, r0
 8010020:	2101      	movs	r1, #1
 8010022:	4620      	mov	r0, r4
 8010024:	f000 fcdf 	bl	80109e6 <__i2b>
 8010028:	9b0b      	ldr	r3, [sp, #44]	; 0x2c
 801002a:	2b00      	cmp	r3, #0
 801002c:	4606      	mov	r6, r0
 801002e:	f340 8083 	ble.w	8010138 <_dtoa_r+0x898>
 8010032:	461a      	mov	r2, r3
 8010034:	4601      	mov	r1, r0
 8010036:	4620      	mov	r0, r4
 8010038:	f000 fd6c 	bl	8010b14 <__pow5mult>
 801003c:	9b07      	ldr	r3, [sp, #28]
 801003e:	2b01      	cmp	r3, #1
 8010040:	4606      	mov	r6, r0
 8010042:	dd7c      	ble.n	801013e <_dtoa_r+0x89e>
 8010044:	f04f 0800 	mov.w	r8, #0
 8010048:	6933      	ldr	r3, [r6, #16]
 801004a:	eb06 0383 	add.w	r3, r6, r3, lsl #2
 801004e:	6918      	ldr	r0, [r3, #16]
 8010050:	f000 fc7b 	bl	801094a <__hi0bits>
 8010054:	f1c0 0020 	rsb	r0, r0, #32
 8010058:	9b06      	ldr	r3, [sp, #24]
 801005a:	4418      	add	r0, r3
 801005c:	f010 001f 	ands.w	r0, r0, #31
 8010060:	f000 8096 	beq.w	8010190 <_dtoa_r+0x8f0>
 8010064:	f1c0 0320 	rsb	r3, r0, #32
 8010068:	2b04      	cmp	r3, #4
 801006a:	f340 8087 	ble.w	801017c <_dtoa_r+0x8dc>
 801006e:	9b05      	ldr	r3, [sp, #20]
 8010070:	f1c0 001c 	rsb	r0, r0, #28
 8010074:	4403      	add	r3, r0
 8010076:	9305      	str	r3, [sp, #20]
 8010078:	9b06      	ldr	r3, [sp, #24]
 801007a:	4405      	add	r5, r0
 801007c:	4403      	add	r3, r0
 801007e:	9306      	str	r3, [sp, #24]
 8010080:	9b05      	ldr	r3, [sp, #20]
 8010082:	2b00      	cmp	r3, #0
 8010084:	dd05      	ble.n	8010092 <_dtoa_r+0x7f2>
 8010086:	4651      	mov	r1, sl
 8010088:	461a      	mov	r2, r3
 801008a:	4620      	mov	r0, r4
 801008c:	f000 fd90 	bl	8010bb0 <__lshift>
 8010090:	4682      	mov	sl, r0
 8010092:	9b06      	ldr	r3, [sp, #24]
 8010094:	2b00      	cmp	r3, #0
 8010096:	dd05      	ble.n	80100a4 <_dtoa_r+0x804>
 8010098:	4631      	mov	r1, r6
 801009a:	461a      	mov	r2, r3
 801009c:	4620      	mov	r0, r4
 801009e:	f000 fd87 	bl	8010bb0 <__lshift>
 80100a2:	4606      	mov	r6, r0
 80100a4:	9b0e      	ldr	r3, [sp, #56]	; 0x38
 80100a6:	2b00      	cmp	r3, #0
 80100a8:	d074      	beq.n	8010194 <_dtoa_r+0x8f4>
 80100aa:	4631      	mov	r1, r6
 80100ac:	4650      	mov	r0, sl
 80100ae:	f000 fdd0 	bl	8010c52 <__mcmp>
 80100b2:	2800      	cmp	r0, #0
 80100b4:	da6e      	bge.n	8010194 <_dtoa_r+0x8f4>
 80100b6:	2300      	movs	r3, #0
 80100b8:	4651      	mov	r1, sl
 80100ba:	220a      	movs	r2, #10
 80100bc:	4620      	mov	r0, r4
 80100be:	f000 fc09 	bl	80108d4 <__multadd>
 80100c2:	9b09      	ldr	r3, [sp, #36]	; 0x24
 80100c4:	f10b 3bff 	add.w	fp, fp, #4294967295
 80100c8:	4682      	mov	sl, r0
 80100ca:	2b00      	cmp	r3, #0
 80100cc:	f000 81a8 	beq.w	8010420 <_dtoa_r+0xb80>
 80100d0:	2300      	movs	r3, #0
 80100d2:	4639      	mov	r1, r7
 80100d4:	220a      	movs	r2, #10
 80100d6:	4620      	mov	r0, r4
 80100d8:	f000 fbfc 	bl	80108d4 <__multadd>
 80100dc:	9b04      	ldr	r3, [sp, #16]
 80100de:	2b00      	cmp	r3, #0
 80100e0:	4607      	mov	r7, r0
 80100e2:	f300 80c8 	bgt.w	8010276 <_dtoa_r+0x9d6>
 80100e6:	9b07      	ldr	r3, [sp, #28]
 80100e8:	2b02      	cmp	r3, #2
 80100ea:	f340 80c4 	ble.w	8010276 <_dtoa_r+0x9d6>
 80100ee:	e059      	b.n	80101a4 <_dtoa_r+0x904>
 80100f0:	9b14      	ldr	r3, [sp, #80]	; 0x50
 80100f2:	f1c3 0336 	rsb	r3, r3, #54	; 0x36
 80100f6:	e756      	b.n	800ffa6 <_dtoa_r+0x706>
 80100f8:	9b03      	ldr	r3, [sp, #12]
 80100fa:	1e5e      	subs	r6, r3, #1
 80100fc:	9b08      	ldr	r3, [sp, #32]
 80100fe:	42b3      	cmp	r3, r6
 8010100:	bfbf      	itttt	lt
 8010102:	9b08      	ldrlt	r3, [sp, #32]
 8010104:	9608      	strlt	r6, [sp, #32]
 8010106:	1af2      	sublt	r2, r6, r3
 8010108:	9b0b      	ldrlt	r3, [sp, #44]	; 0x2c
 801010a:	bfb6      	itet	lt
 801010c:	189b      	addlt	r3, r3, r2
 801010e:	1b9e      	subge	r6, r3, r6
 8010110:	930b      	strlt	r3, [sp, #44]	; 0x2c
 8010112:	9b03      	ldr	r3, [sp, #12]
 8010114:	bfb8      	it	lt
 8010116:	2600      	movlt	r6, #0
 8010118:	2b00      	cmp	r3, #0
 801011a:	bfb9      	ittee	lt
 801011c:	9b05      	ldrlt	r3, [sp, #20]
 801011e:	9a03      	ldrlt	r2, [sp, #12]
 8010120:	9d05      	ldrge	r5, [sp, #20]
 8010122:	9b03      	ldrge	r3, [sp, #12]
 8010124:	bfbc      	itt	lt
 8010126:	1a9d      	sublt	r5, r3, r2
 8010128:	2300      	movlt	r3, #0
 801012a:	e73e      	b.n	800ffaa <_dtoa_r+0x70a>
 801012c:	9e08      	ldr	r6, [sp, #32]
 801012e:	9d05      	ldr	r5, [sp, #20]
 8010130:	9f09      	ldr	r7, [sp, #36]	; 0x24
 8010132:	e745      	b.n	800ffc0 <_dtoa_r+0x720>
 8010134:	9a08      	ldr	r2, [sp, #32]
 8010136:	e76e      	b.n	8010016 <_dtoa_r+0x776>
 8010138:	9b07      	ldr	r3, [sp, #28]
 801013a:	2b01      	cmp	r3, #1
 801013c:	dc19      	bgt.n	8010172 <_dtoa_r+0x8d2>
 801013e:	9b00      	ldr	r3, [sp, #0]
 8010140:	b9bb      	cbnz	r3, 8010172 <_dtoa_r+0x8d2>
 8010142:	9b01      	ldr	r3, [sp, #4]
 8010144:	f3c3 0313 	ubfx	r3, r3, #0, #20
 8010148:	b99b      	cbnz	r3, 8010172 <_dtoa_r+0x8d2>
 801014a:	9b01      	ldr	r3, [sp, #4]
 801014c:	f023 4300 	bic.w	r3, r3, #2147483648	; 0x80000000
 8010150:	0d1b      	lsrs	r3, r3, #20
 8010152:	051b      	lsls	r3, r3, #20
 8010154:	b183      	cbz	r3, 8010178 <_dtoa_r+0x8d8>
 8010156:	9b05      	ldr	r3, [sp, #20]
 8010158:	3301      	adds	r3, #1
 801015a:	9305      	str	r3, [sp, #20]
 801015c:	9b06      	ldr	r3, [sp, #24]
 801015e:	3301      	adds	r3, #1
 8010160:	9306      	str	r3, [sp, #24]
 8010162:	f04f 0801 	mov.w	r8, #1
 8010166:	9b0b      	ldr	r3, [sp, #44]	; 0x2c
 8010168:	2b00      	cmp	r3, #0
 801016a:	f47f af6d 	bne.w	8010048 <_dtoa_r+0x7a8>
 801016e:	2001      	movs	r0, #1
 8010170:	e772      	b.n	8010058 <_dtoa_r+0x7b8>
 8010172:	f04f 0800 	mov.w	r8, #0
 8010176:	e7f6      	b.n	8010166 <_dtoa_r+0x8c6>
 8010178:	4698      	mov	r8, r3
 801017a:	e7f4      	b.n	8010166 <_dtoa_r+0x8c6>
 801017c:	d080      	beq.n	8010080 <_dtoa_r+0x7e0>
 801017e:	9a05      	ldr	r2, [sp, #20]
 8010180:	331c      	adds	r3, #28
 8010182:	441a      	add	r2, r3
 8010184:	9205      	str	r2, [sp, #20]
 8010186:	9a06      	ldr	r2, [sp, #24]
 8010188:	441a      	add	r2, r3
 801018a:	441d      	add	r5, r3
 801018c:	4613      	mov	r3, r2
 801018e:	e776      	b.n	801007e <_dtoa_r+0x7de>
 8010190:	4603      	mov	r3, r0
 8010192:	e7f4      	b.n	801017e <_dtoa_r+0x8de>
 8010194:	9b03      	ldr	r3, [sp, #12]
 8010196:	2b00      	cmp	r3, #0
 8010198:	dc36      	bgt.n	8010208 <_dtoa_r+0x968>
 801019a:	9b07      	ldr	r3, [sp, #28]
 801019c:	2b02      	cmp	r3, #2
 801019e:	dd33      	ble.n	8010208 <_dtoa_r+0x968>
 80101a0:	9b03      	ldr	r3, [sp, #12]
 80101a2:	9304      	str	r3, [sp, #16]
 80101a4:	9b04      	ldr	r3, [sp, #16]
 80101a6:	b963      	cbnz	r3, 80101c2 <_dtoa_r+0x922>
 80101a8:	4631      	mov	r1, r6
 80101aa:	2205      	movs	r2, #5
 80101ac:	4620      	mov	r0, r4
 80101ae:	f000 fb91 	bl	80108d4 <__multadd>
 80101b2:	4601      	mov	r1, r0
 80101b4:	4606      	mov	r6, r0
 80101b6:	4650      	mov	r0, sl
 80101b8:	f000 fd4b 	bl	8010c52 <__mcmp>
 80101bc:	2800      	cmp	r0, #0
 80101be:	f73f adb6 	bgt.w	800fd2e <_dtoa_r+0x48e>
 80101c2:	9b0a      	ldr	r3, [sp, #40]	; 0x28
 80101c4:	9d02      	ldr	r5, [sp, #8]
 80101c6:	ea6f 0b03 	mvn.w	fp, r3
 80101ca:	2300      	movs	r3, #0
 80101cc:	9303      	str	r3, [sp, #12]
 80101ce:	4631      	mov	r1, r6
 80101d0:	4620      	mov	r0, r4
 80101d2:	f000 fb68 	bl	80108a6 <_Bfree>
 80101d6:	2f00      	cmp	r7, #0
 80101d8:	f43f aea6 	beq.w	800ff28 <_dtoa_r+0x688>
 80101dc:	9b03      	ldr	r3, [sp, #12]
 80101de:	b12b      	cbz	r3, 80101ec <_dtoa_r+0x94c>
 80101e0:	42bb      	cmp	r3, r7
 80101e2:	d003      	beq.n	80101ec <_dtoa_r+0x94c>
 80101e4:	4619      	mov	r1, r3
 80101e6:	4620      	mov	r0, r4
 80101e8:	f000 fb5d 	bl	80108a6 <_Bfree>
 80101ec:	4639      	mov	r1, r7
 80101ee:	4620      	mov	r0, r4
 80101f0:	f000 fb59 	bl	80108a6 <_Bfree>
 80101f4:	e698      	b.n	800ff28 <_dtoa_r+0x688>
 80101f6:	2600      	movs	r6, #0
 80101f8:	4637      	mov	r7, r6
 80101fa:	e7e2      	b.n	80101c2 <_dtoa_r+0x922>
 80101fc:	46bb      	mov	fp, r7
 80101fe:	4637      	mov	r7, r6
 8010200:	e595      	b.n	800fd2e <_dtoa_r+0x48e>
 8010202:	bf00      	nop
 8010204:	40240000 	.word	0x40240000
 8010208:	9b09      	ldr	r3, [sp, #36]	; 0x24
 801020a:	bb93      	cbnz	r3, 8010272 <_dtoa_r+0x9d2>
 801020c:	9b03      	ldr	r3, [sp, #12]
 801020e:	9304      	str	r3, [sp, #16]
 8010210:	9d02      	ldr	r5, [sp, #8]
 8010212:	4631      	mov	r1, r6
 8010214:	4650      	mov	r0, sl
 8010216:	f7ff fab5 	bl	800f784 <quorem>
 801021a:	f100 0930 	add.w	r9, r0, #48	; 0x30
 801021e:	f805 9b01 	strb.w	r9, [r5], #1
 8010222:	9b02      	ldr	r3, [sp, #8]
 8010224:	9a04      	ldr	r2, [sp, #16]
 8010226:	1aeb      	subs	r3, r5, r3
 8010228:	429a      	cmp	r2, r3
 801022a:	f300 80dc 	bgt.w	80103e6 <_dtoa_r+0xb46>
 801022e:	9b02      	ldr	r3, [sp, #8]
 8010230:	2a01      	cmp	r2, #1
 8010232:	bfac      	ite	ge
 8010234:	189b      	addge	r3, r3, r2
 8010236:	3301      	addlt	r3, #1
 8010238:	4698      	mov	r8, r3
 801023a:	2300      	movs	r3, #0
 801023c:	9303      	str	r3, [sp, #12]
 801023e:	4651      	mov	r1, sl
 8010240:	2201      	movs	r2, #1
 8010242:	4620      	mov	r0, r4
 8010244:	f000 fcb4 	bl	8010bb0 <__lshift>
 8010248:	4631      	mov	r1, r6
 801024a:	4682      	mov	sl, r0
 801024c:	f000 fd01 	bl	8010c52 <__mcmp>
 8010250:	2800      	cmp	r0, #0
 8010252:	f300 808d 	bgt.w	8010370 <_dtoa_r+0xad0>
 8010256:	d103      	bne.n	8010260 <_dtoa_r+0x9c0>
 8010258:	f019 0f01 	tst.w	r9, #1
 801025c:	f040 8088 	bne.w	8010370 <_dtoa_r+0xad0>
 8010260:	4645      	mov	r5, r8
 8010262:	f815 3c01 	ldrb.w	r3, [r5, #-1]
 8010266:	2b30      	cmp	r3, #48	; 0x30
 8010268:	f105 32ff 	add.w	r2, r5, #4294967295
 801026c:	d1af      	bne.n	80101ce <_dtoa_r+0x92e>
 801026e:	4615      	mov	r5, r2
 8010270:	e7f7      	b.n	8010262 <_dtoa_r+0x9c2>
 8010272:	9b03      	ldr	r3, [sp, #12]
 8010274:	9304      	str	r3, [sp, #16]
 8010276:	2d00      	cmp	r5, #0
 8010278:	dd05      	ble.n	8010286 <_dtoa_r+0x9e6>
 801027a:	4639      	mov	r1, r7
 801027c:	462a      	mov	r2, r5
 801027e:	4620      	mov	r0, r4
 8010280:	f000 fc96 	bl	8010bb0 <__lshift>
 8010284:	4607      	mov	r7, r0
 8010286:	f1b8 0f00 	cmp.w	r8, #0
 801028a:	d04c      	beq.n	8010326 <_dtoa_r+0xa86>
 801028c:	6879      	ldr	r1, [r7, #4]
 801028e:	4620      	mov	r0, r4
 8010290:	f000 fad5 	bl	801083e <_Balloc>
 8010294:	693a      	ldr	r2, [r7, #16]
 8010296:	3202      	adds	r2, #2
 8010298:	4605      	mov	r5, r0
 801029a:	0092      	lsls	r2, r2, #2
 801029c:	f107 010c 	add.w	r1, r7, #12
 80102a0:	300c      	adds	r0, #12
 80102a2:	f000 fac1 	bl	8010828 <memcpy>
 80102a6:	2201      	movs	r2, #1
 80102a8:	4629      	mov	r1, r5
 80102aa:	4620      	mov	r0, r4
 80102ac:	f000 fc80 	bl	8010bb0 <__lshift>
 80102b0:	9b00      	ldr	r3, [sp, #0]
 80102b2:	f8dd 8008 	ldr.w	r8, [sp, #8]
 80102b6:	9703      	str	r7, [sp, #12]
 80102b8:	f003 0301 	and.w	r3, r3, #1
 80102bc:	4607      	mov	r7, r0
 80102be:	9305      	str	r3, [sp, #20]
 80102c0:	4631      	mov	r1, r6
 80102c2:	4650      	mov	r0, sl
 80102c4:	f7ff fa5e 	bl	800f784 <quorem>
 80102c8:	9903      	ldr	r1, [sp, #12]
 80102ca:	4605      	mov	r5, r0
 80102cc:	f100 0930 	add.w	r9, r0, #48	; 0x30
 80102d0:	4650      	mov	r0, sl
 80102d2:	f000 fcbe 	bl	8010c52 <__mcmp>
 80102d6:	463a      	mov	r2, r7
 80102d8:	9000      	str	r0, [sp, #0]
 80102da:	4631      	mov	r1, r6
 80102dc:	4620      	mov	r0, r4
 80102de:	f000 fcd2 	bl	8010c86 <__mdiff>
 80102e2:	68c3      	ldr	r3, [r0, #12]
 80102e4:	4602      	mov	r2, r0
 80102e6:	bb03      	cbnz	r3, 801032a <_dtoa_r+0xa8a>
 80102e8:	4601      	mov	r1, r0
 80102ea:	9006      	str	r0, [sp, #24]
 80102ec:	4650      	mov	r0, sl
 80102ee:	f000 fcb0 	bl	8010c52 <__mcmp>
 80102f2:	9a06      	ldr	r2, [sp, #24]
 80102f4:	4603      	mov	r3, r0
 80102f6:	4611      	mov	r1, r2
 80102f8:	4620      	mov	r0, r4
 80102fa:	9306      	str	r3, [sp, #24]
 80102fc:	f000 fad3 	bl	80108a6 <_Bfree>
 8010300:	9b06      	ldr	r3, [sp, #24]
 8010302:	b9a3      	cbnz	r3, 801032e <_dtoa_r+0xa8e>
 8010304:	9a07      	ldr	r2, [sp, #28]
 8010306:	b992      	cbnz	r2, 801032e <_dtoa_r+0xa8e>
 8010308:	9a05      	ldr	r2, [sp, #20]
 801030a:	b982      	cbnz	r2, 801032e <_dtoa_r+0xa8e>
 801030c:	f1b9 0f39 	cmp.w	r9, #57	; 0x39
 8010310:	d029      	beq.n	8010366 <_dtoa_r+0xac6>
 8010312:	9b00      	ldr	r3, [sp, #0]
 8010314:	2b00      	cmp	r3, #0
 8010316:	dd01      	ble.n	801031c <_dtoa_r+0xa7c>
 8010318:	f105 0931 	add.w	r9, r5, #49	; 0x31
 801031c:	f108 0501 	add.w	r5, r8, #1
 8010320:	f888 9000 	strb.w	r9, [r8]
 8010324:	e753      	b.n	80101ce <_dtoa_r+0x92e>
 8010326:	4638      	mov	r0, r7
 8010328:	e7c2      	b.n	80102b0 <_dtoa_r+0xa10>
 801032a:	2301      	movs	r3, #1
 801032c:	e7e3      	b.n	80102f6 <_dtoa_r+0xa56>
 801032e:	9a00      	ldr	r2, [sp, #0]
 8010330:	2a00      	cmp	r2, #0
 8010332:	db04      	blt.n	801033e <_dtoa_r+0xa9e>
 8010334:	d125      	bne.n	8010382 <_dtoa_r+0xae2>
 8010336:	9a07      	ldr	r2, [sp, #28]
 8010338:	bb1a      	cbnz	r2, 8010382 <_dtoa_r+0xae2>
 801033a:	9a05      	ldr	r2, [sp, #20]
 801033c:	bb0a      	cbnz	r2, 8010382 <_dtoa_r+0xae2>
 801033e:	2b00      	cmp	r3, #0
 8010340:	ddec      	ble.n	801031c <_dtoa_r+0xa7c>
 8010342:	4651      	mov	r1, sl
 8010344:	2201      	movs	r2, #1
 8010346:	4620      	mov	r0, r4
 8010348:	f000 fc32 	bl	8010bb0 <__lshift>
 801034c:	4631      	mov	r1, r6
 801034e:	4682      	mov	sl, r0
 8010350:	f000 fc7f 	bl	8010c52 <__mcmp>
 8010354:	2800      	cmp	r0, #0
 8010356:	dc03      	bgt.n	8010360 <_dtoa_r+0xac0>
 8010358:	d1e0      	bne.n	801031c <_dtoa_r+0xa7c>
 801035a:	f019 0f01 	tst.w	r9, #1
 801035e:	d0dd      	beq.n	801031c <_dtoa_r+0xa7c>
 8010360:	f1b9 0f39 	cmp.w	r9, #57	; 0x39
 8010364:	d1d8      	bne.n	8010318 <_dtoa_r+0xa78>
 8010366:	2339      	movs	r3, #57	; 0x39
 8010368:	f888 3000 	strb.w	r3, [r8]
 801036c:	f108 0801 	add.w	r8, r8, #1
 8010370:	4645      	mov	r5, r8
 8010372:	f815 3c01 	ldrb.w	r3, [r5, #-1]
 8010376:	2b39      	cmp	r3, #57	; 0x39
 8010378:	f105 32ff 	add.w	r2, r5, #4294967295
 801037c:	d03b      	beq.n	80103f6 <_dtoa_r+0xb56>
 801037e:	3301      	adds	r3, #1
 8010380:	e040      	b.n	8010404 <_dtoa_r+0xb64>
 8010382:	2b00      	cmp	r3, #0
 8010384:	f108 0501 	add.w	r5, r8, #1
 8010388:	dd05      	ble.n	8010396 <_dtoa_r+0xaf6>
 801038a:	f1b9 0f39 	cmp.w	r9, #57	; 0x39
 801038e:	d0ea      	beq.n	8010366 <_dtoa_r+0xac6>
 8010390:	f109 0901 	add.w	r9, r9, #1
 8010394:	e7c4      	b.n	8010320 <_dtoa_r+0xa80>
 8010396:	9b02      	ldr	r3, [sp, #8]
 8010398:	9a04      	ldr	r2, [sp, #16]
 801039a:	f805 9c01 	strb.w	r9, [r5, #-1]
 801039e:	1aeb      	subs	r3, r5, r3
 80103a0:	4293      	cmp	r3, r2
 80103a2:	46a8      	mov	r8, r5
 80103a4:	f43f af4b 	beq.w	801023e <_dtoa_r+0x99e>
 80103a8:	4651      	mov	r1, sl
 80103aa:	2300      	movs	r3, #0
 80103ac:	220a      	movs	r2, #10
 80103ae:	4620      	mov	r0, r4
 80103b0:	f000 fa90 	bl	80108d4 <__multadd>
 80103b4:	9b03      	ldr	r3, [sp, #12]
 80103b6:	9903      	ldr	r1, [sp, #12]
 80103b8:	42bb      	cmp	r3, r7
 80103ba:	4682      	mov	sl, r0
 80103bc:	f04f 0300 	mov.w	r3, #0
 80103c0:	f04f 020a 	mov.w	r2, #10
 80103c4:	4620      	mov	r0, r4
 80103c6:	d104      	bne.n	80103d2 <_dtoa_r+0xb32>
 80103c8:	f000 fa84 	bl	80108d4 <__multadd>
 80103cc:	9003      	str	r0, [sp, #12]
 80103ce:	4607      	mov	r7, r0
 80103d0:	e776      	b.n	80102c0 <_dtoa_r+0xa20>
 80103d2:	f000 fa7f 	bl	80108d4 <__multadd>
 80103d6:	2300      	movs	r3, #0
 80103d8:	9003      	str	r0, [sp, #12]
 80103da:	220a      	movs	r2, #10
 80103dc:	4639      	mov	r1, r7
 80103de:	4620      	mov	r0, r4
 80103e0:	f000 fa78 	bl	80108d4 <__multadd>
 80103e4:	e7f3      	b.n	80103ce <_dtoa_r+0xb2e>
 80103e6:	4651      	mov	r1, sl
 80103e8:	2300      	movs	r3, #0
 80103ea:	220a      	movs	r2, #10
 80103ec:	4620      	mov	r0, r4
 80103ee:	f000 fa71 	bl	80108d4 <__multadd>
 80103f2:	4682      	mov	sl, r0
 80103f4:	e70d      	b.n	8010212 <_dtoa_r+0x972>
 80103f6:	9b02      	ldr	r3, [sp, #8]
 80103f8:	4293      	cmp	r3, r2
 80103fa:	d105      	bne.n	8010408 <_dtoa_r+0xb68>
 80103fc:	9a02      	ldr	r2, [sp, #8]
 80103fe:	f10b 0b01 	add.w	fp, fp, #1
 8010402:	2331      	movs	r3, #49	; 0x31
 8010404:	7013      	strb	r3, [r2, #0]
 8010406:	e6e2      	b.n	80101ce <_dtoa_r+0x92e>
 8010408:	4615      	mov	r5, r2
 801040a:	e7b2      	b.n	8010372 <_dtoa_r+0xad2>
 801040c:	4b09      	ldr	r3, [pc, #36]	; (8010434 <_dtoa_r+0xb94>)
 801040e:	f7ff baae 	b.w	800f96e <_dtoa_r+0xce>
 8010412:	9b21      	ldr	r3, [sp, #132]	; 0x84
 8010414:	2b00      	cmp	r3, #0
 8010416:	f47f aa88 	bne.w	800f92a <_dtoa_r+0x8a>
 801041a:	4b07      	ldr	r3, [pc, #28]	; (8010438 <_dtoa_r+0xb98>)
 801041c:	f7ff baa7 	b.w	800f96e <_dtoa_r+0xce>
 8010420:	9b04      	ldr	r3, [sp, #16]
 8010422:	2b00      	cmp	r3, #0
 8010424:	f73f aef4 	bgt.w	8010210 <_dtoa_r+0x970>
 8010428:	9b07      	ldr	r3, [sp, #28]
 801042a:	2b02      	cmp	r3, #2
 801042c:	f77f aef0 	ble.w	8010210 <_dtoa_r+0x970>
 8010430:	e6b8      	b.n	80101a4 <_dtoa_r+0x904>
 8010432:	bf00      	nop
 8010434:	080121a8 	.word	0x080121a8
 8010438:	080126d6 	.word	0x080126d6

0801043c <__sflush_r>:
 801043c:	898a      	ldrh	r2, [r1, #12]
 801043e:	e92d 41f0 	stmdb	sp!, {r4, r5, r6, r7, r8, lr}
 8010442:	4605      	mov	r5, r0
 8010444:	0710      	lsls	r0, r2, #28
 8010446:	460c      	mov	r4, r1
 8010448:	d45a      	bmi.n	8010500 <__sflush_r+0xc4>
 801044a:	684b      	ldr	r3, [r1, #4]
 801044c:	2b00      	cmp	r3, #0
 801044e:	dc05      	bgt.n	801045c <__sflush_r+0x20>
 8010450:	6c0b      	ldr	r3, [r1, #64]	; 0x40
 8010452:	2b00      	cmp	r3, #0
 8010454:	dc02      	bgt.n	801045c <__sflush_r+0x20>
 8010456:	2000      	movs	r0, #0
 8010458:	e8bd 81f0 	ldmia.w	sp!, {r4, r5, r6, r7, r8, pc}
 801045c:	6ae6      	ldr	r6, [r4, #44]	; 0x2c
 801045e:	2e00      	cmp	r6, #0
 8010460:	d0f9      	beq.n	8010456 <__sflush_r+0x1a>
 8010462:	2300      	movs	r3, #0
 8010464:	f412 5280 	ands.w	r2, r2, #4096	; 0x1000
 8010468:	682f      	ldr	r7, [r5, #0]
 801046a:	602b      	str	r3, [r5, #0]
 801046c:	d033      	beq.n	80104d6 <__sflush_r+0x9a>
 801046e:	6d60      	ldr	r0, [r4, #84]	; 0x54
 8010470:	89a3      	ldrh	r3, [r4, #12]
 8010472:	075a      	lsls	r2, r3, #29
 8010474:	d505      	bpl.n	8010482 <__sflush_r+0x46>
 8010476:	6863      	ldr	r3, [r4, #4]
 8010478:	1ac0      	subs	r0, r0, r3
 801047a:	6b63      	ldr	r3, [r4, #52]	; 0x34
 801047c:	b10b      	cbz	r3, 8010482 <__sflush_r+0x46>
 801047e:	6c23      	ldr	r3, [r4, #64]	; 0x40
 8010480:	1ac0      	subs	r0, r0, r3
 8010482:	2300      	movs	r3, #0
 8010484:	4602      	mov	r2, r0
 8010486:	6ae6      	ldr	r6, [r4, #44]	; 0x2c
 8010488:	6a21      	ldr	r1, [r4, #32]
 801048a:	4628      	mov	r0, r5
 801048c:	47b0      	blx	r6
 801048e:	1c43      	adds	r3, r0, #1
 8010490:	89a3      	ldrh	r3, [r4, #12]
 8010492:	d106      	bne.n	80104a2 <__sflush_r+0x66>
 8010494:	6829      	ldr	r1, [r5, #0]
 8010496:	291d      	cmp	r1, #29
 8010498:	d84b      	bhi.n	8010532 <__sflush_r+0xf6>
 801049a:	4a2b      	ldr	r2, [pc, #172]	; (8010548 <__sflush_r+0x10c>)
 801049c:	40ca      	lsrs	r2, r1
 801049e:	07d6      	lsls	r6, r2, #31
 80104a0:	d547      	bpl.n	8010532 <__sflush_r+0xf6>
 80104a2:	2200      	movs	r2, #0
 80104a4:	6062      	str	r2, [r4, #4]
 80104a6:	04d9      	lsls	r1, r3, #19
 80104a8:	6922      	ldr	r2, [r4, #16]
 80104aa:	6022      	str	r2, [r4, #0]
 80104ac:	d504      	bpl.n	80104b8 <__sflush_r+0x7c>
 80104ae:	1c42      	adds	r2, r0, #1
 80104b0:	d101      	bne.n	80104b6 <__sflush_r+0x7a>
 80104b2:	682b      	ldr	r3, [r5, #0]
 80104b4:	b903      	cbnz	r3, 80104b8 <__sflush_r+0x7c>
 80104b6:	6560      	str	r0, [r4, #84]	; 0x54
 80104b8:	6b61      	ldr	r1, [r4, #52]	; 0x34
 80104ba:	602f      	str	r7, [r5, #0]
 80104bc:	2900      	cmp	r1, #0
 80104be:	d0ca      	beq.n	8010456 <__sflush_r+0x1a>
 80104c0:	f104 0344 	add.w	r3, r4, #68	; 0x44
 80104c4:	4299      	cmp	r1, r3
 80104c6:	d002      	beq.n	80104ce <__sflush_r+0x92>
 80104c8:	4628      	mov	r0, r5
 80104ca:	f000 fc97 	bl	8010dfc <_free_r>
 80104ce:	2000      	movs	r0, #0
 80104d0:	6360      	str	r0, [r4, #52]	; 0x34
 80104d2:	e8bd 81f0 	ldmia.w	sp!, {r4, r5, r6, r7, r8, pc}
 80104d6:	6a21      	ldr	r1, [r4, #32]
 80104d8:	2301      	movs	r3, #1
 80104da:	4628      	mov	r0, r5
 80104dc:	47b0      	blx	r6
 80104de:	1c41      	adds	r1, r0, #1
 80104e0:	d1c6      	bne.n	8010470 <__sflush_r+0x34>
 80104e2:	682b      	ldr	r3, [r5, #0]
 80104e4:	2b00      	cmp	r3, #0
 80104e6:	d0c3      	beq.n	8010470 <__sflush_r+0x34>
 80104e8:	2b1d      	cmp	r3, #29
 80104ea:	d001      	beq.n	80104f0 <__sflush_r+0xb4>
 80104ec:	2b16      	cmp	r3, #22
 80104ee:	d101      	bne.n	80104f4 <__sflush_r+0xb8>
 80104f0:	602f      	str	r7, [r5, #0]
 80104f2:	e7b0      	b.n	8010456 <__sflush_r+0x1a>
 80104f4:	89a3      	ldrh	r3, [r4, #12]
 80104f6:	f043 0340 	orr.w	r3, r3, #64	; 0x40
 80104fa:	81a3      	strh	r3, [r4, #12]
 80104fc:	e8bd 81f0 	ldmia.w	sp!, {r4, r5, r6, r7, r8, pc}
 8010500:	690f      	ldr	r7, [r1, #16]
 8010502:	2f00      	cmp	r7, #0
 8010504:	d0a7      	beq.n	8010456 <__sflush_r+0x1a>
 8010506:	0793      	lsls	r3, r2, #30
 8010508:	680e      	ldr	r6, [r1, #0]
 801050a:	bf08      	it	eq
 801050c:	694b      	ldreq	r3, [r1, #20]
 801050e:	600f      	str	r7, [r1, #0]
 8010510:	bf18      	it	ne
 8010512:	2300      	movne	r3, #0
 8010514:	eba6 0807 	sub.w	r8, r6, r7
 8010518:	608b      	str	r3, [r1, #8]
 801051a:	f1b8 0f00 	cmp.w	r8, #0
 801051e:	dd9a      	ble.n	8010456 <__sflush_r+0x1a>
 8010520:	4643      	mov	r3, r8
 8010522:	463a      	mov	r2, r7
 8010524:	6a21      	ldr	r1, [r4, #32]
 8010526:	6aa6      	ldr	r6, [r4, #40]	; 0x28
 8010528:	4628      	mov	r0, r5
 801052a:	47b0      	blx	r6
 801052c:	2800      	cmp	r0, #0
 801052e:	dc07      	bgt.n	8010540 <__sflush_r+0x104>
 8010530:	89a3      	ldrh	r3, [r4, #12]
 8010532:	f043 0340 	orr.w	r3, r3, #64	; 0x40
 8010536:	81a3      	strh	r3, [r4, #12]
 8010538:	f04f 30ff 	mov.w	r0, #4294967295
 801053c:	e8bd 81f0 	ldmia.w	sp!, {r4, r5, r6, r7, r8, pc}
 8010540:	4407      	add	r7, r0
 8010542:	eba8 0800 	sub.w	r8, r8, r0
 8010546:	e7e8      	b.n	801051a <__sflush_r+0xde>
 8010548:	20400001 	.word	0x20400001

0801054c <_fflush_r>:
 801054c:	b538      	push	{r3, r4, r5, lr}
 801054e:	690b      	ldr	r3, [r1, #16]
 8010550:	4605      	mov	r5, r0
 8010552:	460c      	mov	r4, r1
 8010554:	b1db      	cbz	r3, 801058e <_fflush_r+0x42>
 8010556:	b118      	cbz	r0, 8010560 <_fflush_r+0x14>
 8010558:	6983      	ldr	r3, [r0, #24]
 801055a:	b90b      	cbnz	r3, 8010560 <_fflush_r+0x14>
 801055c:	f000 f860 	bl	8010620 <__sinit>
 8010560:	4b0c      	ldr	r3, [pc, #48]	; (8010594 <_fflush_r+0x48>)
 8010562:	429c      	cmp	r4, r3
 8010564:	d109      	bne.n	801057a <_fflush_r+0x2e>
 8010566:	686c      	ldr	r4, [r5, #4]
 8010568:	f9b4 300c 	ldrsh.w	r3, [r4, #12]
 801056c:	b17b      	cbz	r3, 801058e <_fflush_r+0x42>
 801056e:	4621      	mov	r1, r4
 8010570:	4628      	mov	r0, r5
 8010572:	e8bd 4038 	ldmia.w	sp!, {r3, r4, r5, lr}
 8010576:	f7ff bf61 	b.w	801043c <__sflush_r>
 801057a:	4b07      	ldr	r3, [pc, #28]	; (8010598 <_fflush_r+0x4c>)
 801057c:	429c      	cmp	r4, r3
 801057e:	d101      	bne.n	8010584 <_fflush_r+0x38>
 8010580:	68ac      	ldr	r4, [r5, #8]
 8010582:	e7f1      	b.n	8010568 <_fflush_r+0x1c>
 8010584:	4b05      	ldr	r3, [pc, #20]	; (801059c <_fflush_r+0x50>)
 8010586:	429c      	cmp	r4, r3
 8010588:	bf08      	it	eq
 801058a:	68ec      	ldreq	r4, [r5, #12]
 801058c:	e7ec      	b.n	8010568 <_fflush_r+0x1c>
 801058e:	2000      	movs	r0, #0
 8010590:	bd38      	pop	{r3, r4, r5, pc}
 8010592:	bf00      	nop
 8010594:	08012704 	.word	0x08012704
 8010598:	08012724 	.word	0x08012724
 801059c:	080126e4 	.word	0x080126e4

080105a0 <_cleanup_r>:
 80105a0:	4901      	ldr	r1, [pc, #4]	; (80105a8 <_cleanup_r+0x8>)
 80105a2:	f000 b8a9 	b.w	80106f8 <_fwalk_reent>
 80105a6:	bf00      	nop
 80105a8:	0801054d 	.word	0x0801054d

080105ac <std.isra.0>:
 80105ac:	2300      	movs	r3, #0
 80105ae:	b510      	push	{r4, lr}
 80105b0:	4604      	mov	r4, r0
 80105b2:	6003      	str	r3, [r0, #0]
 80105b4:	6043      	str	r3, [r0, #4]
 80105b6:	6083      	str	r3, [r0, #8]
 80105b8:	8181      	strh	r1, [r0, #12]
 80105ba:	6643      	str	r3, [r0, #100]	; 0x64
 80105bc:	81c2      	strh	r2, [r0, #14]
 80105be:	6103      	str	r3, [r0, #16]
 80105c0:	6143      	str	r3, [r0, #20]
 80105c2:	6183      	str	r3, [r0, #24]
 80105c4:	4619      	mov	r1, r3
 80105c6:	2208      	movs	r2, #8
 80105c8:	305c      	adds	r0, #92	; 0x5c
 80105ca:	f7fe fa39 	bl	800ea40 <memset>
 80105ce:	4b05      	ldr	r3, [pc, #20]	; (80105e4 <std.isra.0+0x38>)
 80105d0:	6263      	str	r3, [r4, #36]	; 0x24
 80105d2:	4b05      	ldr	r3, [pc, #20]	; (80105e8 <std.isra.0+0x3c>)
 80105d4:	62a3      	str	r3, [r4, #40]	; 0x28
 80105d6:	4b05      	ldr	r3, [pc, #20]	; (80105ec <std.isra.0+0x40>)
 80105d8:	62e3      	str	r3, [r4, #44]	; 0x2c
 80105da:	4b05      	ldr	r3, [pc, #20]	; (80105f0 <std.isra.0+0x44>)
 80105dc:	6224      	str	r4, [r4, #32]
 80105de:	6323      	str	r3, [r4, #48]	; 0x30
 80105e0:	bd10      	pop	{r4, pc}
 80105e2:	bf00      	nop
 80105e4:	08011495 	.word	0x08011495
 80105e8:	080114b7 	.word	0x080114b7
 80105ec:	080114ef 	.word	0x080114ef
 80105f0:	08011513 	.word	0x08011513

080105f4 <__sfmoreglue>:
 80105f4:	b570      	push	{r4, r5, r6, lr}
 80105f6:	1e4a      	subs	r2, r1, #1
 80105f8:	2568      	movs	r5, #104	; 0x68
 80105fa:	4355      	muls	r5, r2
 80105fc:	460e      	mov	r6, r1
 80105fe:	f105 0174 	add.w	r1, r5, #116	; 0x74
 8010602:	f000 fc49 	bl	8010e98 <_malloc_r>
 8010606:	4604      	mov	r4, r0
 8010608:	b140      	cbz	r0, 801061c <__sfmoreglue+0x28>
 801060a:	2100      	movs	r1, #0
 801060c:	e880 0042 	stmia.w	r0, {r1, r6}
 8010610:	300c      	adds	r0, #12
 8010612:	60a0      	str	r0, [r4, #8]
 8010614:	f105 0268 	add.w	r2, r5, #104	; 0x68
 8010618:	f7fe fa12 	bl	800ea40 <memset>
 801061c:	4620      	mov	r0, r4
 801061e:	bd70      	pop	{r4, r5, r6, pc}

08010620 <__sinit>:
 8010620:	6983      	ldr	r3, [r0, #24]
 8010622:	b510      	push	{r4, lr}
 8010624:	4604      	mov	r4, r0
 8010626:	bb33      	cbnz	r3, 8010676 <__sinit+0x56>
 8010628:	6483      	str	r3, [r0, #72]	; 0x48
 801062a:	64c3      	str	r3, [r0, #76]	; 0x4c
 801062c:	6503      	str	r3, [r0, #80]	; 0x50
 801062e:	4b12      	ldr	r3, [pc, #72]	; (8010678 <__sinit+0x58>)
 8010630:	4a12      	ldr	r2, [pc, #72]	; (801067c <__sinit+0x5c>)
 8010632:	681b      	ldr	r3, [r3, #0]
 8010634:	6282      	str	r2, [r0, #40]	; 0x28
 8010636:	4298      	cmp	r0, r3
 8010638:	bf04      	itt	eq
 801063a:	2301      	moveq	r3, #1
 801063c:	6183      	streq	r3, [r0, #24]
 801063e:	f000 f81f 	bl	8010680 <__sfp>
 8010642:	6060      	str	r0, [r4, #4]
 8010644:	4620      	mov	r0, r4
 8010646:	f000 f81b 	bl	8010680 <__sfp>
 801064a:	60a0      	str	r0, [r4, #8]
 801064c:	4620      	mov	r0, r4
 801064e:	f000 f817 	bl	8010680 <__sfp>
 8010652:	2200      	movs	r2, #0
 8010654:	60e0      	str	r0, [r4, #12]
 8010656:	2104      	movs	r1, #4
 8010658:	6860      	ldr	r0, [r4, #4]
 801065a:	f7ff ffa7 	bl	80105ac <std.isra.0>
 801065e:	2201      	movs	r2, #1
 8010660:	2109      	movs	r1, #9
 8010662:	68a0      	ldr	r0, [r4, #8]
 8010664:	f7ff ffa2 	bl	80105ac <std.isra.0>
 8010668:	2202      	movs	r2, #2
 801066a:	2112      	movs	r1, #18
 801066c:	68e0      	ldr	r0, [r4, #12]
 801066e:	f7ff ff9d 	bl	80105ac <std.isra.0>
 8010672:	2301      	movs	r3, #1
 8010674:	61a3      	str	r3, [r4, #24]
 8010676:	bd10      	pop	{r4, pc}
 8010678:	080126a0 	.word	0x080126a0
 801067c:	080105a1 	.word	0x080105a1

08010680 <__sfp>:
 8010680:	b5f8      	push	{r3, r4, r5, r6, r7, lr}
 8010682:	4b1c      	ldr	r3, [pc, #112]	; (80106f4 <__sfp+0x74>)
 8010684:	681e      	ldr	r6, [r3, #0]
 8010686:	69b3      	ldr	r3, [r6, #24]
 8010688:	4607      	mov	r7, r0
 801068a:	b913      	cbnz	r3, 8010692 <__sfp+0x12>
 801068c:	4630      	mov	r0, r6
 801068e:	f7ff ffc7 	bl	8010620 <__sinit>
 8010692:	3648      	adds	r6, #72	; 0x48
 8010694:	68b4      	ldr	r4, [r6, #8]
 8010696:	6873      	ldr	r3, [r6, #4]
 8010698:	3b01      	subs	r3, #1
 801069a:	d503      	bpl.n	80106a4 <__sfp+0x24>
 801069c:	6833      	ldr	r3, [r6, #0]
 801069e:	b133      	cbz	r3, 80106ae <__sfp+0x2e>
 80106a0:	6836      	ldr	r6, [r6, #0]
 80106a2:	e7f7      	b.n	8010694 <__sfp+0x14>
 80106a4:	f9b4 500c 	ldrsh.w	r5, [r4, #12]
 80106a8:	b16d      	cbz	r5, 80106c6 <__sfp+0x46>
 80106aa:	3468      	adds	r4, #104	; 0x68
 80106ac:	e7f4      	b.n	8010698 <__sfp+0x18>
 80106ae:	2104      	movs	r1, #4
 80106b0:	4638      	mov	r0, r7
 80106b2:	f7ff ff9f 	bl	80105f4 <__sfmoreglue>
 80106b6:	6030      	str	r0, [r6, #0]
 80106b8:	2800      	cmp	r0, #0
 80106ba:	d1f1      	bne.n	80106a0 <__sfp+0x20>
 80106bc:	230c      	movs	r3, #12
 80106be:	603b      	str	r3, [r7, #0]
 80106c0:	4604      	mov	r4, r0
 80106c2:	4620      	mov	r0, r4
 80106c4:	bdf8      	pop	{r3, r4, r5, r6, r7, pc}
 80106c6:	f64f 73ff 	movw	r3, #65535	; 0xffff
 80106ca:	81e3      	strh	r3, [r4, #14]
 80106cc:	2301      	movs	r3, #1
 80106ce:	81a3      	strh	r3, [r4, #12]
 80106d0:	6665      	str	r5, [r4, #100]	; 0x64
 80106d2:	6025      	str	r5, [r4, #0]
 80106d4:	60a5      	str	r5, [r4, #8]
 80106d6:	6065      	str	r5, [r4, #4]
 80106d8:	6125      	str	r5, [r4, #16]
 80106da:	6165      	str	r5, [r4, #20]
 80106dc:	61a5      	str	r5, [r4, #24]
 80106de:	2208      	movs	r2, #8
 80106e0:	4629      	mov	r1, r5
 80106e2:	f104 005c 	add.w	r0, r4, #92	; 0x5c
 80106e6:	f7fe f9ab 	bl	800ea40 <memset>
 80106ea:	6365      	str	r5, [r4, #52]	; 0x34
 80106ec:	63a5      	str	r5, [r4, #56]	; 0x38
 80106ee:	64a5      	str	r5, [r4, #72]	; 0x48
 80106f0:	64e5      	str	r5, [r4, #76]	; 0x4c
 80106f2:	e7e6      	b.n	80106c2 <__sfp+0x42>
 80106f4:	080126a0 	.word	0x080126a0

080106f8 <_fwalk_reent>:
 80106f8:	e92d 43f8 	stmdb	sp!, {r3, r4, r5, r6, r7, r8, r9, lr}
 80106fc:	4680      	mov	r8, r0
 80106fe:	4689      	mov	r9, r1
 8010700:	f100 0448 	add.w	r4, r0, #72	; 0x48
 8010704:	2600      	movs	r6, #0
 8010706:	b914      	cbnz	r4, 801070e <_fwalk_reent+0x16>
 8010708:	4630      	mov	r0, r6
 801070a:	e8bd 83f8 	ldmia.w	sp!, {r3, r4, r5, r6, r7, r8, r9, pc}
 801070e:	68a5      	ldr	r5, [r4, #8]
 8010710:	6867      	ldr	r7, [r4, #4]
 8010712:	3f01      	subs	r7, #1
 8010714:	d501      	bpl.n	801071a <_fwalk_reent+0x22>
 8010716:	6824      	ldr	r4, [r4, #0]
 8010718:	e7f5      	b.n	8010706 <_fwalk_reent+0xe>
 801071a:	89ab      	ldrh	r3, [r5, #12]
 801071c:	2b01      	cmp	r3, #1
 801071e:	d907      	bls.n	8010730 <_fwalk_reent+0x38>
 8010720:	f9b5 300e 	ldrsh.w	r3, [r5, #14]
 8010724:	3301      	adds	r3, #1
 8010726:	d003      	beq.n	8010730 <_fwalk_reent+0x38>
 8010728:	4629      	mov	r1, r5
 801072a:	4640      	mov	r0, r8
 801072c:	47c8      	blx	r9
 801072e:	4306      	orrs	r6, r0
 8010730:	3568      	adds	r5, #104	; 0x68
 8010732:	e7ee      	b.n	8010712 <_fwalk_reent+0x1a>

08010734 <_localeconv_r>:
 8010734:	4b04      	ldr	r3, [pc, #16]	; (8010748 <_localeconv_r+0x14>)
 8010736:	681b      	ldr	r3, [r3, #0]
 8010738:	6a18      	ldr	r0, [r3, #32]
 801073a:	4b04      	ldr	r3, [pc, #16]	; (801074c <_localeconv_r+0x18>)
 801073c:	2800      	cmp	r0, #0
 801073e:	bf08      	it	eq
 8010740:	4618      	moveq	r0, r3
 8010742:	30f0      	adds	r0, #240	; 0xf0
 8010744:	4770      	bx	lr
 8010746:	bf00      	nop
 8010748:	200015b0 	.word	0x200015b0
 801074c:	20001614 	.word	0x20001614

08010750 <__swhatbuf_r>:
 8010750:	b570      	push	{r4, r5, r6, lr}
 8010752:	460e      	mov	r6, r1
 8010754:	f9b1 100e 	ldrsh.w	r1, [r1, #14]
 8010758:	2900      	cmp	r1, #0
 801075a:	b090      	sub	sp, #64	; 0x40
 801075c:	4614      	mov	r4, r2
 801075e:	461d      	mov	r5, r3
 8010760:	da07      	bge.n	8010772 <__swhatbuf_r+0x22>
 8010762:	2300      	movs	r3, #0
 8010764:	602b      	str	r3, [r5, #0]
 8010766:	89b3      	ldrh	r3, [r6, #12]
 8010768:	061a      	lsls	r2, r3, #24
 801076a:	d410      	bmi.n	801078e <__swhatbuf_r+0x3e>
 801076c:	f44f 6380 	mov.w	r3, #1024	; 0x400
 8010770:	e00e      	b.n	8010790 <__swhatbuf_r+0x40>
 8010772:	aa01      	add	r2, sp, #4
 8010774:	f000 fef4 	bl	8011560 <_fstat_r>
 8010778:	2800      	cmp	r0, #0
 801077a:	dbf2      	blt.n	8010762 <__swhatbuf_r+0x12>
 801077c:	9a02      	ldr	r2, [sp, #8]
 801077e:	f402 4270 	and.w	r2, r2, #61440	; 0xf000
 8010782:	f5a2 5300 	sub.w	r3, r2, #8192	; 0x2000
 8010786:	425a      	negs	r2, r3
 8010788:	415a      	adcs	r2, r3
 801078a:	602a      	str	r2, [r5, #0]
 801078c:	e7ee      	b.n	801076c <__swhatbuf_r+0x1c>
 801078e:	2340      	movs	r3, #64	; 0x40
 8010790:	2000      	movs	r0, #0
 8010792:	6023      	str	r3, [r4, #0]
 8010794:	b010      	add	sp, #64	; 0x40
 8010796:	bd70      	pop	{r4, r5, r6, pc}

08010798 <__smakebuf_r>:
 8010798:	898b      	ldrh	r3, [r1, #12]
 801079a:	b573      	push	{r0, r1, r4, r5, r6, lr}
 801079c:	079d      	lsls	r5, r3, #30
 801079e:	4606      	mov	r6, r0
 80107a0:	460c      	mov	r4, r1
 80107a2:	d507      	bpl.n	80107b4 <__smakebuf_r+0x1c>
 80107a4:	f104 0347 	add.w	r3, r4, #71	; 0x47
 80107a8:	6023      	str	r3, [r4, #0]
 80107aa:	6123      	str	r3, [r4, #16]
 80107ac:	2301      	movs	r3, #1
 80107ae:	6163      	str	r3, [r4, #20]
 80107b0:	b002      	add	sp, #8
 80107b2:	bd70      	pop	{r4, r5, r6, pc}
 80107b4:	ab01      	add	r3, sp, #4
 80107b6:	466a      	mov	r2, sp
 80107b8:	f7ff ffca 	bl	8010750 <__swhatbuf_r>
 80107bc:	9900      	ldr	r1, [sp, #0]
 80107be:	4605      	mov	r5, r0
 80107c0:	4630      	mov	r0, r6
 80107c2:	f000 fb69 	bl	8010e98 <_malloc_r>
 80107c6:	b948      	cbnz	r0, 80107dc <__smakebuf_r+0x44>
 80107c8:	f9b4 300c 	ldrsh.w	r3, [r4, #12]
 80107cc:	059a      	lsls	r2, r3, #22
 80107ce:	d4ef      	bmi.n	80107b0 <__smakebuf_r+0x18>
 80107d0:	f023 0303 	bic.w	r3, r3, #3
 80107d4:	f043 0302 	orr.w	r3, r3, #2
 80107d8:	81a3      	strh	r3, [r4, #12]
 80107da:	e7e3      	b.n	80107a4 <__smakebuf_r+0xc>
 80107dc:	4b0d      	ldr	r3, [pc, #52]	; (8010814 <__smakebuf_r+0x7c>)
 80107de:	62b3      	str	r3, [r6, #40]	; 0x28
 80107e0:	89a3      	ldrh	r3, [r4, #12]
 80107e2:	6020      	str	r0, [r4, #0]
 80107e4:	f043 0380 	orr.w	r3, r3, #128	; 0x80
 80107e8:	81a3      	strh	r3, [r4, #12]
 80107ea:	9b00      	ldr	r3, [sp, #0]
 80107ec:	6163      	str	r3, [r4, #20]
 80107ee:	9b01      	ldr	r3, [sp, #4]
 80107f0:	6120      	str	r0, [r4, #16]
 80107f2:	b15b      	cbz	r3, 801080c <__smakebuf_r+0x74>
 80107f4:	f9b4 100e 	ldrsh.w	r1, [r4, #14]
 80107f8:	4630      	mov	r0, r6
 80107fa:	f000 fec3 	bl	8011584 <_isatty_r>
 80107fe:	b128      	cbz	r0, 801080c <__smakebuf_r+0x74>
 8010800:	89a3      	ldrh	r3, [r4, #12]
 8010802:	f023 0303 	bic.w	r3, r3, #3
 8010806:	f043 0301 	orr.w	r3, r3, #1
 801080a:	81a3      	strh	r3, [r4, #12]
 801080c:	89a3      	ldrh	r3, [r4, #12]
 801080e:	431d      	orrs	r5, r3
 8010810:	81a5      	strh	r5, [r4, #12]
 8010812:	e7cd      	b.n	80107b0 <__smakebuf_r+0x18>
 8010814:	080105a1 	.word	0x080105a1

08010818 <malloc>:
 8010818:	4b02      	ldr	r3, [pc, #8]	; (8010824 <malloc+0xc>)
 801081a:	4601      	mov	r1, r0
 801081c:	6818      	ldr	r0, [r3, #0]
 801081e:	f000 bb3b 	b.w	8010e98 <_malloc_r>
 8010822:	bf00      	nop
 8010824:	200015b0 	.word	0x200015b0

08010828 <memcpy>:
 8010828:	b510      	push	{r4, lr}
 801082a:	1e43      	subs	r3, r0, #1
 801082c:	440a      	add	r2, r1
 801082e:	4291      	cmp	r1, r2
 8010830:	d100      	bne.n	8010834 <memcpy+0xc>
 8010832:	bd10      	pop	{r4, pc}
 8010834:	f811 4b01 	ldrb.w	r4, [r1], #1
 8010838:	f803 4f01 	strb.w	r4, [r3, #1]!
 801083c:	e7f7      	b.n	801082e <memcpy+0x6>

0801083e <_Balloc>:
 801083e:	b570      	push	{r4, r5, r6, lr}
 8010840:	6a45      	ldr	r5, [r0, #36]	; 0x24
 8010842:	4604      	mov	r4, r0
 8010844:	460e      	mov	r6, r1
 8010846:	b93d      	cbnz	r5, 8010858 <_Balloc+0x1a>
 8010848:	2010      	movs	r0, #16
 801084a:	f7ff ffe5 	bl	8010818 <malloc>
 801084e:	6260      	str	r0, [r4, #36]	; 0x24
 8010850:	6045      	str	r5, [r0, #4]
 8010852:	6085      	str	r5, [r0, #8]
 8010854:	6005      	str	r5, [r0, #0]
 8010856:	60c5      	str	r5, [r0, #12]
 8010858:	6a65      	ldr	r5, [r4, #36]	; 0x24
 801085a:	68eb      	ldr	r3, [r5, #12]
 801085c:	b183      	cbz	r3, 8010880 <_Balloc+0x42>
 801085e:	6a63      	ldr	r3, [r4, #36]	; 0x24
 8010860:	68db      	ldr	r3, [r3, #12]
 8010862:	f853 0026 	ldr.w	r0, [r3, r6, lsl #2]
 8010866:	b9b8      	cbnz	r0, 8010898 <_Balloc+0x5a>
 8010868:	2101      	movs	r1, #1
 801086a:	fa01 f506 	lsl.w	r5, r1, r6
 801086e:	1d6a      	adds	r2, r5, #5
 8010870:	0092      	lsls	r2, r2, #2
 8010872:	4620      	mov	r0, r4
 8010874:	f000 fab4 	bl	8010de0 <_calloc_r>
 8010878:	b160      	cbz	r0, 8010894 <_Balloc+0x56>
 801087a:	6046      	str	r6, [r0, #4]
 801087c:	6085      	str	r5, [r0, #8]
 801087e:	e00e      	b.n	801089e <_Balloc+0x60>
 8010880:	2221      	movs	r2, #33	; 0x21
 8010882:	2104      	movs	r1, #4
 8010884:	4620      	mov	r0, r4
 8010886:	f000 faab 	bl	8010de0 <_calloc_r>
 801088a:	6a63      	ldr	r3, [r4, #36]	; 0x24
 801088c:	60e8      	str	r0, [r5, #12]
 801088e:	68db      	ldr	r3, [r3, #12]
 8010890:	2b00      	cmp	r3, #0
 8010892:	d1e4      	bne.n	801085e <_Balloc+0x20>
 8010894:	2000      	movs	r0, #0
 8010896:	bd70      	pop	{r4, r5, r6, pc}
 8010898:	6802      	ldr	r2, [r0, #0]
 801089a:	f843 2026 	str.w	r2, [r3, r6, lsl #2]
 801089e:	2300      	movs	r3, #0
 80108a0:	6103      	str	r3, [r0, #16]
 80108a2:	60c3      	str	r3, [r0, #12]
 80108a4:	bd70      	pop	{r4, r5, r6, pc}

080108a6 <_Bfree>:
 80108a6:	b570      	push	{r4, r5, r6, lr}
 80108a8:	6a44      	ldr	r4, [r0, #36]	; 0x24
 80108aa:	4606      	mov	r6, r0
 80108ac:	460d      	mov	r5, r1
 80108ae:	b93c      	cbnz	r4, 80108c0 <_Bfree+0x1a>
 80108b0:	2010      	movs	r0, #16
 80108b2:	f7ff ffb1 	bl	8010818 <malloc>
 80108b6:	6270      	str	r0, [r6, #36]	; 0x24
 80108b8:	6044      	str	r4, [r0, #4]
 80108ba:	6084      	str	r4, [r0, #8]
 80108bc:	6004      	str	r4, [r0, #0]
 80108be:	60c4      	str	r4, [r0, #12]
 80108c0:	b13d      	cbz	r5, 80108d2 <_Bfree+0x2c>
 80108c2:	6a73      	ldr	r3, [r6, #36]	; 0x24
 80108c4:	686a      	ldr	r2, [r5, #4]
 80108c6:	68db      	ldr	r3, [r3, #12]
 80108c8:	f853 1022 	ldr.w	r1, [r3, r2, lsl #2]
 80108cc:	6029      	str	r1, [r5, #0]
 80108ce:	f843 5022 	str.w	r5, [r3, r2, lsl #2]
 80108d2:	bd70      	pop	{r4, r5, r6, pc}

080108d4 <__multadd>:
 80108d4:	e92d 41f0 	stmdb	sp!, {r4, r5, r6, r7, r8, lr}
 80108d8:	690d      	ldr	r5, [r1, #16]
 80108da:	461f      	mov	r7, r3
 80108dc:	4606      	mov	r6, r0
 80108de:	460c      	mov	r4, r1
 80108e0:	f101 0e14 	add.w	lr, r1, #20
 80108e4:	2300      	movs	r3, #0
 80108e6:	f8de 0000 	ldr.w	r0, [lr]
 80108ea:	b281      	uxth	r1, r0
 80108ec:	fb02 7101 	mla	r1, r2, r1, r7
 80108f0:	0c0f      	lsrs	r7, r1, #16
 80108f2:	0c00      	lsrs	r0, r0, #16
 80108f4:	fb02 7000 	mla	r0, r2, r0, r7
 80108f8:	b289      	uxth	r1, r1
 80108fa:	3301      	adds	r3, #1
 80108fc:	eb01 4100 	add.w	r1, r1, r0, lsl #16
 8010900:	429d      	cmp	r5, r3
 8010902:	ea4f 4710 	mov.w	r7, r0, lsr #16
 8010906:	f84e 1b04 	str.w	r1, [lr], #4
 801090a:	dcec      	bgt.n	80108e6 <__multadd+0x12>
 801090c:	b1d7      	cbz	r7, 8010944 <__multadd+0x70>
 801090e:	68a3      	ldr	r3, [r4, #8]
 8010910:	429d      	cmp	r5, r3
 8010912:	db12      	blt.n	801093a <__multadd+0x66>
 8010914:	6861      	ldr	r1, [r4, #4]
 8010916:	4630      	mov	r0, r6
 8010918:	3101      	adds	r1, #1
 801091a:	f7ff ff90 	bl	801083e <_Balloc>
 801091e:	6922      	ldr	r2, [r4, #16]
 8010920:	3202      	adds	r2, #2
 8010922:	f104 010c 	add.w	r1, r4, #12
 8010926:	4680      	mov	r8, r0
 8010928:	0092      	lsls	r2, r2, #2
 801092a:	300c      	adds	r0, #12
 801092c:	f7ff ff7c 	bl	8010828 <memcpy>
 8010930:	4621      	mov	r1, r4
 8010932:	4630      	mov	r0, r6
 8010934:	f7ff ffb7 	bl	80108a6 <_Bfree>
 8010938:	4644      	mov	r4, r8
 801093a:	eb04 0385 	add.w	r3, r4, r5, lsl #2
 801093e:	3501      	adds	r5, #1
 8010940:	615f      	str	r7, [r3, #20]
 8010942:	6125      	str	r5, [r4, #16]
 8010944:	4620      	mov	r0, r4
 8010946:	e8bd 81f0 	ldmia.w	sp!, {r4, r5, r6, r7, r8, pc}

0801094a <__hi0bits>:
 801094a:	0c02      	lsrs	r2, r0, #16
 801094c:	0412      	lsls	r2, r2, #16
 801094e:	4603      	mov	r3, r0
 8010950:	b9b2      	cbnz	r2, 8010980 <__hi0bits+0x36>
 8010952:	0403      	lsls	r3, r0, #16
 8010954:	2010      	movs	r0, #16
 8010956:	f013 4f7f 	tst.w	r3, #4278190080	; 0xff000000
 801095a:	bf04      	itt	eq
 801095c:	021b      	lsleq	r3, r3, #8
 801095e:	3008      	addeq	r0, #8
 8010960:	f013 4f70 	tst.w	r3, #4026531840	; 0xf0000000
 8010964:	bf04      	itt	eq
 8010966:	011b      	lsleq	r3, r3, #4
 8010968:	3004      	addeq	r0, #4
 801096a:	f013 4f40 	tst.w	r3, #3221225472	; 0xc0000000
 801096e:	bf04      	itt	eq
 8010970:	009b      	lsleq	r3, r3, #2
 8010972:	3002      	addeq	r0, #2
 8010974:	2b00      	cmp	r3, #0
 8010976:	db06      	blt.n	8010986 <__hi0bits+0x3c>
 8010978:	005b      	lsls	r3, r3, #1
 801097a:	d503      	bpl.n	8010984 <__hi0bits+0x3a>
 801097c:	3001      	adds	r0, #1
 801097e:	4770      	bx	lr
 8010980:	2000      	movs	r0, #0
 8010982:	e7e8      	b.n	8010956 <__hi0bits+0xc>
 8010984:	2020      	movs	r0, #32
 8010986:	4770      	bx	lr

08010988 <__lo0bits>:
 8010988:	6803      	ldr	r3, [r0, #0]
 801098a:	f013 0207 	ands.w	r2, r3, #7
 801098e:	4601      	mov	r1, r0
 8010990:	d00b      	beq.n	80109aa <__lo0bits+0x22>
 8010992:	07da      	lsls	r2, r3, #31
 8010994:	d423      	bmi.n	80109de <__lo0bits+0x56>
 8010996:	0798      	lsls	r0, r3, #30
 8010998:	bf49      	itett	mi
 801099a:	085b      	lsrmi	r3, r3, #1
 801099c:	089b      	lsrpl	r3, r3, #2
 801099e:	2001      	movmi	r0, #1
 80109a0:	600b      	strmi	r3, [r1, #0]
 80109a2:	bf5c      	itt	pl
 80109a4:	600b      	strpl	r3, [r1, #0]
 80109a6:	2002      	movpl	r0, #2
 80109a8:	4770      	bx	lr
 80109aa:	b298      	uxth	r0, r3
 80109ac:	b9a8      	cbnz	r0, 80109da <__lo0bits+0x52>
 80109ae:	0c1b      	lsrs	r3, r3, #16
 80109b0:	2010      	movs	r0, #16
 80109b2:	f013 0fff 	tst.w	r3, #255	; 0xff
 80109b6:	bf04      	itt	eq
 80109b8:	0a1b      	lsreq	r3, r3, #8
 80109ba:	3008      	addeq	r0, #8
 80109bc:	071a      	lsls	r2, r3, #28
 80109be:	bf04      	itt	eq
 80109c0:	091b      	lsreq	r3, r3, #4
 80109c2:	3004      	addeq	r0, #4
 80109c4:	079a      	lsls	r2, r3, #30
 80109c6:	bf04      	itt	eq
 80109c8:	089b      	lsreq	r3, r3, #2
 80109ca:	3002      	addeq	r0, #2
 80109cc:	07da      	lsls	r2, r3, #31
 80109ce:	d402      	bmi.n	80109d6 <__lo0bits+0x4e>
 80109d0:	085b      	lsrs	r3, r3, #1
 80109d2:	d006      	beq.n	80109e2 <__lo0bits+0x5a>
 80109d4:	3001      	adds	r0, #1
 80109d6:	600b      	str	r3, [r1, #0]
 80109d8:	4770      	bx	lr
 80109da:	4610      	mov	r0, r2
 80109dc:	e7e9      	b.n	80109b2 <__lo0bits+0x2a>
 80109de:	2000      	movs	r0, #0
 80109e0:	4770      	bx	lr
 80109e2:	2020      	movs	r0, #32
 80109e4:	4770      	bx	lr

080109e6 <__i2b>:
 80109e6:	b510      	push	{r4, lr}
 80109e8:	460c      	mov	r4, r1
 80109ea:	2101      	movs	r1, #1
 80109ec:	f7ff ff27 	bl	801083e <_Balloc>
 80109f0:	2201      	movs	r2, #1
 80109f2:	6144      	str	r4, [r0, #20]
 80109f4:	6102      	str	r2, [r0, #16]
 80109f6:	bd10      	pop	{r4, pc}

080109f8 <__multiply>:
 80109f8:	e92d 4ff7 	stmdb	sp!, {r0, r1, r2, r4, r5, r6, r7, r8, r9, sl, fp, lr}
 80109fc:	4614      	mov	r4, r2
 80109fe:	690a      	ldr	r2, [r1, #16]
 8010a00:	6923      	ldr	r3, [r4, #16]
 8010a02:	429a      	cmp	r2, r3
 8010a04:	bfb8      	it	lt
 8010a06:	460b      	movlt	r3, r1
 8010a08:	4689      	mov	r9, r1
 8010a0a:	bfbc      	itt	lt
 8010a0c:	46a1      	movlt	r9, r4
 8010a0e:	461c      	movlt	r4, r3
 8010a10:	f8d9 7010 	ldr.w	r7, [r9, #16]
 8010a14:	f8d4 a010 	ldr.w	sl, [r4, #16]
 8010a18:	f8d9 3008 	ldr.w	r3, [r9, #8]
 8010a1c:	f8d9 1004 	ldr.w	r1, [r9, #4]
 8010a20:	eb07 060a 	add.w	r6, r7, sl
 8010a24:	429e      	cmp	r6, r3
 8010a26:	bfc8      	it	gt
 8010a28:	3101      	addgt	r1, #1
 8010a2a:	f7ff ff08 	bl	801083e <_Balloc>
 8010a2e:	f100 0514 	add.w	r5, r0, #20
 8010a32:	eb05 0886 	add.w	r8, r5, r6, lsl #2
 8010a36:	462b      	mov	r3, r5
 8010a38:	2200      	movs	r2, #0
 8010a3a:	4543      	cmp	r3, r8
 8010a3c:	d316      	bcc.n	8010a6c <__multiply+0x74>
 8010a3e:	f104 0214 	add.w	r2, r4, #20
 8010a42:	f109 0114 	add.w	r1, r9, #20
 8010a46:	eb02 038a 	add.w	r3, r2, sl, lsl #2
 8010a4a:	eb01 0787 	add.w	r7, r1, r7, lsl #2
 8010a4e:	9301      	str	r3, [sp, #4]
 8010a50:	9c01      	ldr	r4, [sp, #4]
 8010a52:	4294      	cmp	r4, r2
 8010a54:	4613      	mov	r3, r2
 8010a56:	d80c      	bhi.n	8010a72 <__multiply+0x7a>
 8010a58:	2e00      	cmp	r6, #0
 8010a5a:	dd03      	ble.n	8010a64 <__multiply+0x6c>
 8010a5c:	f858 3d04 	ldr.w	r3, [r8, #-4]!
 8010a60:	2b00      	cmp	r3, #0
 8010a62:	d054      	beq.n	8010b0e <__multiply+0x116>
 8010a64:	6106      	str	r6, [r0, #16]
 8010a66:	b003      	add	sp, #12
 8010a68:	e8bd 8ff0 	ldmia.w	sp!, {r4, r5, r6, r7, r8, r9, sl, fp, pc}
 8010a6c:	f843 2b04 	str.w	r2, [r3], #4
 8010a70:	e7e3      	b.n	8010a3a <__multiply+0x42>
 8010a72:	f8b3 a000 	ldrh.w	sl, [r3]
 8010a76:	3204      	adds	r2, #4
 8010a78:	f1ba 0f00 	cmp.w	sl, #0
 8010a7c:	d020      	beq.n	8010ac0 <__multiply+0xc8>
 8010a7e:	46ae      	mov	lr, r5
 8010a80:	4689      	mov	r9, r1
 8010a82:	f04f 0c00 	mov.w	ip, #0
 8010a86:	f859 4b04 	ldr.w	r4, [r9], #4
 8010a8a:	f8be b000 	ldrh.w	fp, [lr]
 8010a8e:	b2a3      	uxth	r3, r4
 8010a90:	fb0a b303 	mla	r3, sl, r3, fp
 8010a94:	ea4f 4b14 	mov.w	fp, r4, lsr #16
 8010a98:	f8de 4000 	ldr.w	r4, [lr]
 8010a9c:	4463      	add	r3, ip
 8010a9e:	ea4f 4c14 	mov.w	ip, r4, lsr #16
 8010aa2:	fb0a c40b 	mla	r4, sl, fp, ip
 8010aa6:	eb04 4413 	add.w	r4, r4, r3, lsr #16
 8010aaa:	b29b      	uxth	r3, r3
 8010aac:	ea43 4304 	orr.w	r3, r3, r4, lsl #16
 8010ab0:	454f      	cmp	r7, r9
 8010ab2:	ea4f 4c14 	mov.w	ip, r4, lsr #16
 8010ab6:	f84e 3b04 	str.w	r3, [lr], #4
 8010aba:	d8e4      	bhi.n	8010a86 <__multiply+0x8e>
 8010abc:	f8ce c000 	str.w	ip, [lr]
 8010ac0:	f832 9c02 	ldrh.w	r9, [r2, #-2]
 8010ac4:	f1b9 0f00 	cmp.w	r9, #0
 8010ac8:	d01f      	beq.n	8010b0a <__multiply+0x112>
 8010aca:	682b      	ldr	r3, [r5, #0]
 8010acc:	46ae      	mov	lr, r5
 8010ace:	468c      	mov	ip, r1
 8010ad0:	f04f 0a00 	mov.w	sl, #0
 8010ad4:	f8bc 4000 	ldrh.w	r4, [ip]
 8010ad8:	f8be b002 	ldrh.w	fp, [lr, #2]
 8010adc:	fb09 b404 	mla	r4, r9, r4, fp
 8010ae0:	44a2      	add	sl, r4
 8010ae2:	b29b      	uxth	r3, r3
 8010ae4:	ea43 430a 	orr.w	r3, r3, sl, lsl #16
 8010ae8:	f84e 3b04 	str.w	r3, [lr], #4
 8010aec:	f85c 3b04 	ldr.w	r3, [ip], #4
 8010af0:	f8be 4000 	ldrh.w	r4, [lr]
 8010af4:	0c1b      	lsrs	r3, r3, #16
 8010af6:	fb09 4303 	mla	r3, r9, r3, r4
 8010afa:	eb03 431a 	add.w	r3, r3, sl, lsr #16
 8010afe:	4567      	cmp	r7, ip
 8010b00:	ea4f 4a13 	mov.w	sl, r3, lsr #16
 8010b04:	d8e6      	bhi.n	8010ad4 <__multiply+0xdc>
 8010b06:	f8ce 3000 	str.w	r3, [lr]
 8010b0a:	3504      	adds	r5, #4
 8010b0c:	e7a0      	b.n	8010a50 <__multiply+0x58>
 8010b0e:	3e01      	subs	r6, #1
 8010b10:	e7a2      	b.n	8010a58 <__multiply+0x60>
	...

08010b14 <__pow5mult>:
 8010b14:	e92d 43f8 	stmdb	sp!, {r3, r4, r5, r6, r7, r8, r9, lr}
 8010b18:	4615      	mov	r5, r2
 8010b1a:	f012 0203 	ands.w	r2, r2, #3
 8010b1e:	4606      	mov	r6, r0
 8010b20:	460f      	mov	r7, r1
 8010b22:	d007      	beq.n	8010b34 <__pow5mult+0x20>
 8010b24:	3a01      	subs	r2, #1
 8010b26:	4c21      	ldr	r4, [pc, #132]	; (8010bac <__pow5mult+0x98>)
 8010b28:	2300      	movs	r3, #0
 8010b2a:	f854 2022 	ldr.w	r2, [r4, r2, lsl #2]
 8010b2e:	f7ff fed1 	bl	80108d4 <__multadd>
 8010b32:	4607      	mov	r7, r0
 8010b34:	10ad      	asrs	r5, r5, #2
 8010b36:	d035      	beq.n	8010ba4 <__pow5mult+0x90>
 8010b38:	6a74      	ldr	r4, [r6, #36]	; 0x24
 8010b3a:	b93c      	cbnz	r4, 8010b4c <__pow5mult+0x38>
 8010b3c:	2010      	movs	r0, #16
 8010b3e:	f7ff fe6b 	bl	8010818 <malloc>
 8010b42:	6270      	str	r0, [r6, #36]	; 0x24
 8010b44:	6044      	str	r4, [r0, #4]
 8010b46:	6084      	str	r4, [r0, #8]
 8010b48:	6004      	str	r4, [r0, #0]
 8010b4a:	60c4      	str	r4, [r0, #12]
 8010b4c:	f8d6 8024 	ldr.w	r8, [r6, #36]	; 0x24
 8010b50:	f8d8 4008 	ldr.w	r4, [r8, #8]
 8010b54:	b94c      	cbnz	r4, 8010b6a <__pow5mult+0x56>
 8010b56:	f240 2171 	movw	r1, #625	; 0x271
 8010b5a:	4630      	mov	r0, r6
 8010b5c:	f7ff ff43 	bl	80109e6 <__i2b>
 8010b60:	2300      	movs	r3, #0
 8010b62:	f8c8 0008 	str.w	r0, [r8, #8]
 8010b66:	4604      	mov	r4, r0
 8010b68:	6003      	str	r3, [r0, #0]
 8010b6a:	f04f 0800 	mov.w	r8, #0
 8010b6e:	07eb      	lsls	r3, r5, #31
 8010b70:	d50a      	bpl.n	8010b88 <__pow5mult+0x74>
 8010b72:	4639      	mov	r1, r7
 8010b74:	4622      	mov	r2, r4
 8010b76:	4630      	mov	r0, r6
 8010b78:	f7ff ff3e 	bl	80109f8 <__multiply>
 8010b7c:	4639      	mov	r1, r7
 8010b7e:	4681      	mov	r9, r0
 8010b80:	4630      	mov	r0, r6
 8010b82:	f7ff fe90 	bl	80108a6 <_Bfree>
 8010b86:	464f      	mov	r7, r9
 8010b88:	106d      	asrs	r5, r5, #1
 8010b8a:	d00b      	beq.n	8010ba4 <__pow5mult+0x90>
 8010b8c:	6820      	ldr	r0, [r4, #0]
 8010b8e:	b938      	cbnz	r0, 8010ba0 <__pow5mult+0x8c>
 8010b90:	4622      	mov	r2, r4
 8010b92:	4621      	mov	r1, r4
 8010b94:	4630      	mov	r0, r6
 8010b96:	f7ff ff2f 	bl	80109f8 <__multiply>
 8010b9a:	6020      	str	r0, [r4, #0]
 8010b9c:	f8c0 8000 	str.w	r8, [r0]
 8010ba0:	4604      	mov	r4, r0
 8010ba2:	e7e4      	b.n	8010b6e <__pow5mult+0x5a>
 8010ba4:	4638      	mov	r0, r7
 8010ba6:	e8bd 83f8 	ldmia.w	sp!, {r3, r4, r5, r6, r7, r8, r9, pc}
 8010baa:	bf00      	nop
 8010bac:	08012838 	.word	0x08012838

08010bb0 <__lshift>:
 8010bb0:	e92d 47f0 	stmdb	sp!, {r4, r5, r6, r7, r8, r9, sl, lr}
 8010bb4:	460c      	mov	r4, r1
 8010bb6:	ea4f 1a62 	mov.w	sl, r2, asr #5
 8010bba:	6923      	ldr	r3, [r4, #16]
 8010bbc:	6849      	ldr	r1, [r1, #4]
 8010bbe:	eb0a 0903 	add.w	r9, sl, r3
 8010bc2:	68a3      	ldr	r3, [r4, #8]
 8010bc4:	4607      	mov	r7, r0
 8010bc6:	4616      	mov	r6, r2
 8010bc8:	f109 0501 	add.w	r5, r9, #1
 8010bcc:	42ab      	cmp	r3, r5
 8010bce:	db31      	blt.n	8010c34 <__lshift+0x84>
 8010bd0:	4638      	mov	r0, r7
 8010bd2:	f7ff fe34 	bl	801083e <_Balloc>
 8010bd6:	2200      	movs	r2, #0
 8010bd8:	4680      	mov	r8, r0
 8010bda:	f100 0314 	add.w	r3, r0, #20
 8010bde:	4611      	mov	r1, r2
 8010be0:	4552      	cmp	r2, sl
 8010be2:	db2a      	blt.n	8010c3a <__lshift+0x8a>
 8010be4:	6920      	ldr	r0, [r4, #16]
 8010be6:	ea2a 7aea 	bic.w	sl, sl, sl, asr #31
 8010bea:	f104 0114 	add.w	r1, r4, #20
 8010bee:	f016 021f 	ands.w	r2, r6, #31
 8010bf2:	eb03 038a 	add.w	r3, r3, sl, lsl #2
 8010bf6:	eb01 0e80 	add.w	lr, r1, r0, lsl #2
 8010bfa:	d022      	beq.n	8010c42 <__lshift+0x92>
 8010bfc:	f1c2 0c20 	rsb	ip, r2, #32
 8010c00:	2000      	movs	r0, #0
 8010c02:	680e      	ldr	r6, [r1, #0]
 8010c04:	4096      	lsls	r6, r2
 8010c06:	4330      	orrs	r0, r6
 8010c08:	f843 0b04 	str.w	r0, [r3], #4
 8010c0c:	f851 0b04 	ldr.w	r0, [r1], #4
 8010c10:	458e      	cmp	lr, r1
 8010c12:	fa20 f00c 	lsr.w	r0, r0, ip
 8010c16:	d8f4      	bhi.n	8010c02 <__lshift+0x52>
 8010c18:	6018      	str	r0, [r3, #0]
 8010c1a:	b108      	cbz	r0, 8010c20 <__lshift+0x70>
 8010c1c:	f109 0502 	add.w	r5, r9, #2
 8010c20:	3d01      	subs	r5, #1
 8010c22:	4638      	mov	r0, r7
 8010c24:	f8c8 5010 	str.w	r5, [r8, #16]
 8010c28:	4621      	mov	r1, r4
 8010c2a:	f7ff fe3c 	bl	80108a6 <_Bfree>
 8010c2e:	4640      	mov	r0, r8
 8010c30:	e8bd 87f0 	ldmia.w	sp!, {r4, r5, r6, r7, r8, r9, sl, pc}
 8010c34:	3101      	adds	r1, #1
 8010c36:	005b      	lsls	r3, r3, #1
 8010c38:	e7c8      	b.n	8010bcc <__lshift+0x1c>
 8010c3a:	f843 1022 	str.w	r1, [r3, r2, lsl #2]
 8010c3e:	3201      	adds	r2, #1
 8010c40:	e7ce      	b.n	8010be0 <__lshift+0x30>
 8010c42:	3b04      	subs	r3, #4
 8010c44:	f851 2b04 	ldr.w	r2, [r1], #4
 8010c48:	f843 2f04 	str.w	r2, [r3, #4]!
 8010c4c:	458e      	cmp	lr, r1
 8010c4e:	d8f9      	bhi.n	8010c44 <__lshift+0x94>
 8010c50:	e7e6      	b.n	8010c20 <__lshift+0x70>

08010c52 <__mcmp>:
 8010c52:	6903      	ldr	r3, [r0, #16]
 8010c54:	690a      	ldr	r2, [r1, #16]
 8010c56:	1a9b      	subs	r3, r3, r2
 8010c58:	b530      	push	{r4, r5, lr}
 8010c5a:	d10c      	bne.n	8010c76 <__mcmp+0x24>
 8010c5c:	0092      	lsls	r2, r2, #2
 8010c5e:	3014      	adds	r0, #20
 8010c60:	3114      	adds	r1, #20
 8010c62:	1884      	adds	r4, r0, r2
 8010c64:	4411      	add	r1, r2
 8010c66:	f854 5d04 	ldr.w	r5, [r4, #-4]!
 8010c6a:	f851 2d04 	ldr.w	r2, [r1, #-4]!
 8010c6e:	4295      	cmp	r5, r2
 8010c70:	d003      	beq.n	8010c7a <__mcmp+0x28>
 8010c72:	d305      	bcc.n	8010c80 <__mcmp+0x2e>
 8010c74:	2301      	movs	r3, #1
 8010c76:	4618      	mov	r0, r3
 8010c78:	bd30      	pop	{r4, r5, pc}
 8010c7a:	42a0      	cmp	r0, r4
 8010c7c:	d3f3      	bcc.n	8010c66 <__mcmp+0x14>
 8010c7e:	e7fa      	b.n	8010c76 <__mcmp+0x24>
 8010c80:	f04f 33ff 	mov.w	r3, #4294967295
 8010c84:	e7f7      	b.n	8010c76 <__mcmp+0x24>

08010c86 <__mdiff>:
 8010c86:	e92d 47f0 	stmdb	sp!, {r4, r5, r6, r7, r8, r9, sl, lr}
 8010c8a:	460d      	mov	r5, r1
 8010c8c:	4607      	mov	r7, r0
 8010c8e:	4611      	mov	r1, r2
 8010c90:	4628      	mov	r0, r5
 8010c92:	4614      	mov	r4, r2
 8010c94:	f7ff ffdd 	bl	8010c52 <__mcmp>
 8010c98:	1e06      	subs	r6, r0, #0
 8010c9a:	d108      	bne.n	8010cae <__mdiff+0x28>
 8010c9c:	4631      	mov	r1, r6
 8010c9e:	4638      	mov	r0, r7
 8010ca0:	f7ff fdcd 	bl	801083e <_Balloc>
 8010ca4:	2301      	movs	r3, #1
 8010ca6:	6103      	str	r3, [r0, #16]
 8010ca8:	6146      	str	r6, [r0, #20]
 8010caa:	e8bd 87f0 	ldmia.w	sp!, {r4, r5, r6, r7, r8, r9, sl, pc}
 8010cae:	bfa4      	itt	ge
 8010cb0:	4623      	movge	r3, r4
 8010cb2:	462c      	movge	r4, r5
 8010cb4:	4638      	mov	r0, r7
 8010cb6:	6861      	ldr	r1, [r4, #4]
 8010cb8:	bfa6      	itte	ge
 8010cba:	461d      	movge	r5, r3
 8010cbc:	2600      	movge	r6, #0
 8010cbe:	2601      	movlt	r6, #1
 8010cc0:	f7ff fdbd 	bl	801083e <_Balloc>
 8010cc4:	692b      	ldr	r3, [r5, #16]
 8010cc6:	60c6      	str	r6, [r0, #12]
 8010cc8:	6926      	ldr	r6, [r4, #16]
 8010cca:	f105 0914 	add.w	r9, r5, #20
 8010cce:	f104 0214 	add.w	r2, r4, #20
 8010cd2:	eb02 0786 	add.w	r7, r2, r6, lsl #2
 8010cd6:	eb09 0883 	add.w	r8, r9, r3, lsl #2
 8010cda:	f100 0514 	add.w	r5, r0, #20
 8010cde:	f04f 0c00 	mov.w	ip, #0
 8010ce2:	f852 ab04 	ldr.w	sl, [r2], #4
 8010ce6:	f859 4b04 	ldr.w	r4, [r9], #4
 8010cea:	fa1c f18a 	uxtah	r1, ip, sl
 8010cee:	b2a3      	uxth	r3, r4
 8010cf0:	1ac9      	subs	r1, r1, r3
 8010cf2:	0c23      	lsrs	r3, r4, #16
 8010cf4:	ebc3 431a 	rsb	r3, r3, sl, lsr #16
 8010cf8:	eb03 4321 	add.w	r3, r3, r1, asr #16
 8010cfc:	b289      	uxth	r1, r1
 8010cfe:	ea4f 4c23 	mov.w	ip, r3, asr #16
 8010d02:	45c8      	cmp	r8, r9
 8010d04:	ea41 4303 	orr.w	r3, r1, r3, lsl #16
 8010d08:	4696      	mov	lr, r2
 8010d0a:	f845 3b04 	str.w	r3, [r5], #4
 8010d0e:	d8e8      	bhi.n	8010ce2 <__mdiff+0x5c>
 8010d10:	45be      	cmp	lr, r7
 8010d12:	d305      	bcc.n	8010d20 <__mdiff+0x9a>
 8010d14:	f855 3d04 	ldr.w	r3, [r5, #-4]!
 8010d18:	b18b      	cbz	r3, 8010d3e <__mdiff+0xb8>
 8010d1a:	6106      	str	r6, [r0, #16]
 8010d1c:	e8bd 87f0 	ldmia.w	sp!, {r4, r5, r6, r7, r8, r9, sl, pc}
 8010d20:	f85e 1b04 	ldr.w	r1, [lr], #4
 8010d24:	fa1c f381 	uxtah	r3, ip, r1
 8010d28:	141a      	asrs	r2, r3, #16
 8010d2a:	eb02 4211 	add.w	r2, r2, r1, lsr #16
 8010d2e:	b29b      	uxth	r3, r3
 8010d30:	ea43 4302 	orr.w	r3, r3, r2, lsl #16
 8010d34:	ea4f 4c22 	mov.w	ip, r2, asr #16
 8010d38:	f845 3b04 	str.w	r3, [r5], #4
 8010d3c:	e7e8      	b.n	8010d10 <__mdiff+0x8a>
 8010d3e:	3e01      	subs	r6, #1
 8010d40:	e7e8      	b.n	8010d14 <__mdiff+0x8e>

08010d42 <__d2b>:
 8010d42:	e92d 43f7 	stmdb	sp!, {r0, r1, r2, r4, r5, r6, r7, r8, r9, lr}
 8010d46:	460e      	mov	r6, r1
 8010d48:	2101      	movs	r1, #1
 8010d4a:	ec59 8b10 	vmov	r8, r9, d0
 8010d4e:	4615      	mov	r5, r2
 8010d50:	f7ff fd75 	bl	801083e <_Balloc>
 8010d54:	f3c9 540a 	ubfx	r4, r9, #20, #11
 8010d58:	4607      	mov	r7, r0
 8010d5a:	f3c9 0313 	ubfx	r3, r9, #0, #20
 8010d5e:	bb34      	cbnz	r4, 8010dae <__d2b+0x6c>
 8010d60:	9301      	str	r3, [sp, #4]
 8010d62:	f1b8 0f00 	cmp.w	r8, #0
 8010d66:	d027      	beq.n	8010db8 <__d2b+0x76>
 8010d68:	a802      	add	r0, sp, #8
 8010d6a:	f840 8d08 	str.w	r8, [r0, #-8]!
 8010d6e:	f7ff fe0b 	bl	8010988 <__lo0bits>
 8010d72:	9900      	ldr	r1, [sp, #0]
 8010d74:	b1f0      	cbz	r0, 8010db4 <__d2b+0x72>
 8010d76:	9a01      	ldr	r2, [sp, #4]
 8010d78:	f1c0 0320 	rsb	r3, r0, #32
 8010d7c:	fa02 f303 	lsl.w	r3, r2, r3
 8010d80:	430b      	orrs	r3, r1
 8010d82:	40c2      	lsrs	r2, r0
 8010d84:	617b      	str	r3, [r7, #20]
 8010d86:	9201      	str	r2, [sp, #4]
 8010d88:	9b01      	ldr	r3, [sp, #4]
 8010d8a:	61bb      	str	r3, [r7, #24]
 8010d8c:	2b00      	cmp	r3, #0
 8010d8e:	bf14      	ite	ne
 8010d90:	2102      	movne	r1, #2
 8010d92:	2101      	moveq	r1, #1
 8010d94:	6139      	str	r1, [r7, #16]
 8010d96:	b1c4      	cbz	r4, 8010dca <__d2b+0x88>
 8010d98:	f2a4 4433 	subw	r4, r4, #1075	; 0x433
 8010d9c:	4404      	add	r4, r0
 8010d9e:	6034      	str	r4, [r6, #0]
 8010da0:	f1c0 0035 	rsb	r0, r0, #53	; 0x35
 8010da4:	6028      	str	r0, [r5, #0]
 8010da6:	4638      	mov	r0, r7
 8010da8:	b003      	add	sp, #12
 8010daa:	e8bd 83f0 	ldmia.w	sp!, {r4, r5, r6, r7, r8, r9, pc}
 8010dae:	f443 1380 	orr.w	r3, r3, #1048576	; 0x100000
 8010db2:	e7d5      	b.n	8010d60 <__d2b+0x1e>
 8010db4:	6179      	str	r1, [r7, #20]
 8010db6:	e7e7      	b.n	8010d88 <__d2b+0x46>
 8010db8:	a801      	add	r0, sp, #4
 8010dba:	f7ff fde5 	bl	8010988 <__lo0bits>
 8010dbe:	9b01      	ldr	r3, [sp, #4]
 8010dc0:	617b      	str	r3, [r7, #20]
 8010dc2:	2101      	movs	r1, #1
 8010dc4:	6139      	str	r1, [r7, #16]
 8010dc6:	3020      	adds	r0, #32
 8010dc8:	e7e5      	b.n	8010d96 <__d2b+0x54>
 8010dca:	eb07 0381 	add.w	r3, r7, r1, lsl #2
 8010dce:	f2a0 4032 	subw	r0, r0, #1074	; 0x432
 8010dd2:	6030      	str	r0, [r6, #0]
 8010dd4:	6918      	ldr	r0, [r3, #16]
 8010dd6:	f7ff fdb8 	bl	801094a <__hi0bits>
 8010dda:	ebc0 1041 	rsb	r0, r0, r1, lsl #5
 8010dde:	e7e1      	b.n	8010da4 <__d2b+0x62>

08010de0 <_calloc_r>:
 8010de0:	b538      	push	{r3, r4, r5, lr}
 8010de2:	fb02 f401 	mul.w	r4, r2, r1
 8010de6:	4621      	mov	r1, r4
 8010de8:	f000 f856 	bl	8010e98 <_malloc_r>
 8010dec:	4605      	mov	r5, r0
 8010dee:	b118      	cbz	r0, 8010df8 <_calloc_r+0x18>
 8010df0:	4622      	mov	r2, r4
 8010df2:	2100      	movs	r1, #0
 8010df4:	f7fd fe24 	bl	800ea40 <memset>
 8010df8:	4628      	mov	r0, r5
 8010dfa:	bd38      	pop	{r3, r4, r5, pc}

08010dfc <_free_r>:
 8010dfc:	b538      	push	{r3, r4, r5, lr}
 8010dfe:	4605      	mov	r5, r0
 8010e00:	2900      	cmp	r1, #0
 8010e02:	d045      	beq.n	8010e90 <_free_r+0x94>
 8010e04:	f851 3c04 	ldr.w	r3, [r1, #-4]
 8010e08:	1f0c      	subs	r4, r1, #4
 8010e0a:	2b00      	cmp	r3, #0
 8010e0c:	bfb8      	it	lt
 8010e0e:	18e4      	addlt	r4, r4, r3
 8010e10:	f000 fc06 	bl	8011620 <__malloc_lock>
 8010e14:	4a1f      	ldr	r2, [pc, #124]	; (8010e94 <_free_r+0x98>)
 8010e16:	6813      	ldr	r3, [r2, #0]
 8010e18:	4610      	mov	r0, r2
 8010e1a:	b933      	cbnz	r3, 8010e2a <_free_r+0x2e>
 8010e1c:	6063      	str	r3, [r4, #4]
 8010e1e:	6014      	str	r4, [r2, #0]
 8010e20:	4628      	mov	r0, r5
 8010e22:	e8bd 4038 	ldmia.w	sp!, {r3, r4, r5, lr}
 8010e26:	f000 bbfc 	b.w	8011622 <__malloc_unlock>
 8010e2a:	42a3      	cmp	r3, r4
 8010e2c:	d90c      	bls.n	8010e48 <_free_r+0x4c>
 8010e2e:	6821      	ldr	r1, [r4, #0]
 8010e30:	1862      	adds	r2, r4, r1
 8010e32:	4293      	cmp	r3, r2
 8010e34:	bf04      	itt	eq
 8010e36:	681a      	ldreq	r2, [r3, #0]
 8010e38:	685b      	ldreq	r3, [r3, #4]
 8010e3a:	6063      	str	r3, [r4, #4]
 8010e3c:	bf04      	itt	eq
 8010e3e:	1852      	addeq	r2, r2, r1
 8010e40:	6022      	streq	r2, [r4, #0]
 8010e42:	6004      	str	r4, [r0, #0]
 8010e44:	e7ec      	b.n	8010e20 <_free_r+0x24>
 8010e46:	4613      	mov	r3, r2
 8010e48:	685a      	ldr	r2, [r3, #4]
 8010e4a:	b10a      	cbz	r2, 8010e50 <_free_r+0x54>
 8010e4c:	42a2      	cmp	r2, r4
 8010e4e:	d9fa      	bls.n	8010e46 <_free_r+0x4a>
 8010e50:	6819      	ldr	r1, [r3, #0]
 8010e52:	1858      	adds	r0, r3, r1
 8010e54:	42a0      	cmp	r0, r4
 8010e56:	d10b      	bne.n	8010e70 <_free_r+0x74>
 8010e58:	6820      	ldr	r0, [r4, #0]
 8010e5a:	4401      	add	r1, r0
 8010e5c:	1858      	adds	r0, r3, r1
 8010e5e:	4282      	cmp	r2, r0
 8010e60:	6019      	str	r1, [r3, #0]
 8010e62:	d1dd      	bne.n	8010e20 <_free_r+0x24>
 8010e64:	6810      	ldr	r0, [r2, #0]
 8010e66:	6852      	ldr	r2, [r2, #4]
 8010e68:	605a      	str	r2, [r3, #4]
 8010e6a:	4401      	add	r1, r0
 8010e6c:	6019      	str	r1, [r3, #0]
 8010e6e:	e7d7      	b.n	8010e20 <_free_r+0x24>
 8010e70:	d902      	bls.n	8010e78 <_free_r+0x7c>
 8010e72:	230c      	movs	r3, #12
 8010e74:	602b      	str	r3, [r5, #0]
 8010e76:	e7d3      	b.n	8010e20 <_free_r+0x24>
 8010e78:	6820      	ldr	r0, [r4, #0]
 8010e7a:	1821      	adds	r1, r4, r0
 8010e7c:	428a      	cmp	r2, r1
 8010e7e:	bf04      	itt	eq
 8010e80:	6811      	ldreq	r1, [r2, #0]
 8010e82:	6852      	ldreq	r2, [r2, #4]
 8010e84:	6062      	str	r2, [r4, #4]
 8010e86:	bf04      	itt	eq
 8010e88:	1809      	addeq	r1, r1, r0
 8010e8a:	6021      	streq	r1, [r4, #0]
 8010e8c:	605c      	str	r4, [r3, #4]
 8010e8e:	e7c7      	b.n	8010e20 <_free_r+0x24>
 8010e90:	bd38      	pop	{r3, r4, r5, pc}
 8010e92:	bf00      	nop
 8010e94:	200017f0 	.word	0x200017f0

08010e98 <_malloc_r>:
 8010e98:	b570      	push	{r4, r5, r6, lr}
 8010e9a:	1ccd      	adds	r5, r1, #3
 8010e9c:	f025 0503 	bic.w	r5, r5, #3
 8010ea0:	3508      	adds	r5, #8
 8010ea2:	2d0c      	cmp	r5, #12
 8010ea4:	bf38      	it	cc
 8010ea6:	250c      	movcc	r5, #12
 8010ea8:	2d00      	cmp	r5, #0
 8010eaa:	4606      	mov	r6, r0
 8010eac:	db01      	blt.n	8010eb2 <_malloc_r+0x1a>
 8010eae:	42a9      	cmp	r1, r5
 8010eb0:	d903      	bls.n	8010eba <_malloc_r+0x22>
 8010eb2:	230c      	movs	r3, #12
 8010eb4:	6033      	str	r3, [r6, #0]
 8010eb6:	2000      	movs	r0, #0
 8010eb8:	bd70      	pop	{r4, r5, r6, pc}
 8010eba:	f000 fbb1 	bl	8011620 <__malloc_lock>
 8010ebe:	4a23      	ldr	r2, [pc, #140]	; (8010f4c <_malloc_r+0xb4>)
 8010ec0:	6814      	ldr	r4, [r2, #0]
 8010ec2:	4621      	mov	r1, r4
 8010ec4:	b991      	cbnz	r1, 8010eec <_malloc_r+0x54>
 8010ec6:	4c22      	ldr	r4, [pc, #136]	; (8010f50 <_malloc_r+0xb8>)
 8010ec8:	6823      	ldr	r3, [r4, #0]
 8010eca:	b91b      	cbnz	r3, 8010ed4 <_malloc_r+0x3c>
 8010ecc:	4630      	mov	r0, r6
 8010ece:	f000 fad1 	bl	8011474 <_sbrk_r>
 8010ed2:	6020      	str	r0, [r4, #0]
 8010ed4:	4629      	mov	r1, r5
 8010ed6:	4630      	mov	r0, r6
 8010ed8:	f000 facc 	bl	8011474 <_sbrk_r>
 8010edc:	1c43      	adds	r3, r0, #1
 8010ede:	d126      	bne.n	8010f2e <_malloc_r+0x96>
 8010ee0:	230c      	movs	r3, #12
 8010ee2:	6033      	str	r3, [r6, #0]
 8010ee4:	4630      	mov	r0, r6
 8010ee6:	f000 fb9c 	bl	8011622 <__malloc_unlock>
 8010eea:	e7e4      	b.n	8010eb6 <_malloc_r+0x1e>
 8010eec:	680b      	ldr	r3, [r1, #0]
 8010eee:	1b5b      	subs	r3, r3, r5
 8010ef0:	d41a      	bmi.n	8010f28 <_malloc_r+0x90>
 8010ef2:	2b0b      	cmp	r3, #11
 8010ef4:	d90f      	bls.n	8010f16 <_malloc_r+0x7e>
 8010ef6:	600b      	str	r3, [r1, #0]
 8010ef8:	50cd      	str	r5, [r1, r3]
 8010efa:	18cc      	adds	r4, r1, r3
 8010efc:	4630      	mov	r0, r6
 8010efe:	f000 fb90 	bl	8011622 <__malloc_unlock>
 8010f02:	f104 000b 	add.w	r0, r4, #11
 8010f06:	1d23      	adds	r3, r4, #4
 8010f08:	f020 0007 	bic.w	r0, r0, #7
 8010f0c:	1ac3      	subs	r3, r0, r3
 8010f0e:	d01b      	beq.n	8010f48 <_malloc_r+0xb0>
 8010f10:	425a      	negs	r2, r3
 8010f12:	50e2      	str	r2, [r4, r3]
 8010f14:	bd70      	pop	{r4, r5, r6, pc}
 8010f16:	428c      	cmp	r4, r1
 8010f18:	bf0d      	iteet	eq
 8010f1a:	6863      	ldreq	r3, [r4, #4]
 8010f1c:	684b      	ldrne	r3, [r1, #4]
 8010f1e:	6063      	strne	r3, [r4, #4]
 8010f20:	6013      	streq	r3, [r2, #0]
 8010f22:	bf18      	it	ne
 8010f24:	460c      	movne	r4, r1
 8010f26:	e7e9      	b.n	8010efc <_malloc_r+0x64>
 8010f28:	460c      	mov	r4, r1
 8010f2a:	6849      	ldr	r1, [r1, #4]
 8010f2c:	e7ca      	b.n	8010ec4 <_malloc_r+0x2c>
 8010f2e:	1cc4      	adds	r4, r0, #3
 8010f30:	f024 0403 	bic.w	r4, r4, #3
 8010f34:	42a0      	cmp	r0, r4
 8010f36:	d005      	beq.n	8010f44 <_malloc_r+0xac>
 8010f38:	1a21      	subs	r1, r4, r0
 8010f3a:	4630      	mov	r0, r6
 8010f3c:	f000 fa9a 	bl	8011474 <_sbrk_r>
 8010f40:	3001      	adds	r0, #1
 8010f42:	d0cd      	beq.n	8010ee0 <_malloc_r+0x48>
 8010f44:	6025      	str	r5, [r4, #0]
 8010f46:	e7d9      	b.n	8010efc <_malloc_r+0x64>
 8010f48:	bd70      	pop	{r4, r5, r6, pc}
 8010f4a:	bf00      	nop
 8010f4c:	200017f0 	.word	0x200017f0
 8010f50:	200017f4 	.word	0x200017f4

08010f54 <__ssputs_r>:
 8010f54:	e92d 47f0 	stmdb	sp!, {r4, r5, r6, r7, r8, r9, sl, lr}
 8010f58:	688e      	ldr	r6, [r1, #8]
 8010f5a:	429e      	cmp	r6, r3
 8010f5c:	4682      	mov	sl, r0
 8010f5e:	460c      	mov	r4, r1
 8010f60:	4691      	mov	r9, r2
 8010f62:	4698      	mov	r8, r3
 8010f64:	d835      	bhi.n	8010fd2 <__ssputs_r+0x7e>
 8010f66:	898a      	ldrh	r2, [r1, #12]
 8010f68:	f412 6f90 	tst.w	r2, #1152	; 0x480
 8010f6c:	d031      	beq.n	8010fd2 <__ssputs_r+0x7e>
 8010f6e:	6825      	ldr	r5, [r4, #0]
 8010f70:	6909      	ldr	r1, [r1, #16]
 8010f72:	1a6f      	subs	r7, r5, r1
 8010f74:	6965      	ldr	r5, [r4, #20]
 8010f76:	2302      	movs	r3, #2
 8010f78:	eb05 0545 	add.w	r5, r5, r5, lsl #1
 8010f7c:	fb95 f5f3 	sdiv	r5, r5, r3
 8010f80:	f108 0301 	add.w	r3, r8, #1
 8010f84:	443b      	add	r3, r7
 8010f86:	429d      	cmp	r5, r3
 8010f88:	bf38      	it	cc
 8010f8a:	461d      	movcc	r5, r3
 8010f8c:	0553      	lsls	r3, r2, #21
 8010f8e:	d531      	bpl.n	8010ff4 <__ssputs_r+0xa0>
 8010f90:	4629      	mov	r1, r5
 8010f92:	f7ff ff81 	bl	8010e98 <_malloc_r>
 8010f96:	4606      	mov	r6, r0
 8010f98:	b950      	cbnz	r0, 8010fb0 <__ssputs_r+0x5c>
 8010f9a:	230c      	movs	r3, #12
 8010f9c:	f8ca 3000 	str.w	r3, [sl]
 8010fa0:	89a3      	ldrh	r3, [r4, #12]
 8010fa2:	f043 0340 	orr.w	r3, r3, #64	; 0x40
 8010fa6:	81a3      	strh	r3, [r4, #12]
 8010fa8:	f04f 30ff 	mov.w	r0, #4294967295
 8010fac:	e8bd 87f0 	ldmia.w	sp!, {r4, r5, r6, r7, r8, r9, sl, pc}
 8010fb0:	463a      	mov	r2, r7
 8010fb2:	6921      	ldr	r1, [r4, #16]
 8010fb4:	f7ff fc38 	bl	8010828 <memcpy>
 8010fb8:	89a3      	ldrh	r3, [r4, #12]
 8010fba:	f423 6390 	bic.w	r3, r3, #1152	; 0x480
 8010fbe:	f043 0380 	orr.w	r3, r3, #128	; 0x80
 8010fc2:	81a3      	strh	r3, [r4, #12]
 8010fc4:	6126      	str	r6, [r4, #16]
 8010fc6:	6165      	str	r5, [r4, #20]
 8010fc8:	443e      	add	r6, r7
 8010fca:	1bed      	subs	r5, r5, r7
 8010fcc:	6026      	str	r6, [r4, #0]
 8010fce:	60a5      	str	r5, [r4, #8]
 8010fd0:	4646      	mov	r6, r8
 8010fd2:	4546      	cmp	r6, r8
 8010fd4:	bf28      	it	cs
 8010fd6:	4646      	movcs	r6, r8
 8010fd8:	4632      	mov	r2, r6
 8010fda:	4649      	mov	r1, r9
 8010fdc:	6820      	ldr	r0, [r4, #0]
 8010fde:	f000 fb05 	bl	80115ec <memmove>
 8010fe2:	68a3      	ldr	r3, [r4, #8]
 8010fe4:	1b9b      	subs	r3, r3, r6
 8010fe6:	60a3      	str	r3, [r4, #8]
 8010fe8:	6823      	ldr	r3, [r4, #0]
 8010fea:	441e      	add	r6, r3
 8010fec:	6026      	str	r6, [r4, #0]
 8010fee:	2000      	movs	r0, #0
 8010ff0:	e8bd 87f0 	ldmia.w	sp!, {r4, r5, r6, r7, r8, r9, sl, pc}
 8010ff4:	462a      	mov	r2, r5
 8010ff6:	f000 fb15 	bl	8011624 <_realloc_r>
 8010ffa:	4606      	mov	r6, r0
 8010ffc:	2800      	cmp	r0, #0
 8010ffe:	d1e1      	bne.n	8010fc4 <__ssputs_r+0x70>
 8011000:	6921      	ldr	r1, [r4, #16]
 8011002:	4650      	mov	r0, sl
 8011004:	f7ff fefa 	bl	8010dfc <_free_r>
 8011008:	e7c7      	b.n	8010f9a <__ssputs_r+0x46>
	...

0801100c <_svfiprintf_r>:
 801100c:	e92d 4ff0 	stmdb	sp!, {r4, r5, r6, r7, r8, r9, sl, fp, lr}
 8011010:	b09d      	sub	sp, #116	; 0x74
 8011012:	4680      	mov	r8, r0
 8011014:	9303      	str	r3, [sp, #12]
 8011016:	898b      	ldrh	r3, [r1, #12]
 8011018:	061c      	lsls	r4, r3, #24
 801101a:	460d      	mov	r5, r1
 801101c:	4616      	mov	r6, r2
 801101e:	d50f      	bpl.n	8011040 <_svfiprintf_r+0x34>
 8011020:	690b      	ldr	r3, [r1, #16]
 8011022:	b96b      	cbnz	r3, 8011040 <_svfiprintf_r+0x34>
 8011024:	2140      	movs	r1, #64	; 0x40
 8011026:	f7ff ff37 	bl	8010e98 <_malloc_r>
 801102a:	6028      	str	r0, [r5, #0]
 801102c:	6128      	str	r0, [r5, #16]
 801102e:	b928      	cbnz	r0, 801103c <_svfiprintf_r+0x30>
 8011030:	230c      	movs	r3, #12
 8011032:	f8c8 3000 	str.w	r3, [r8]
 8011036:	f04f 30ff 	mov.w	r0, #4294967295
 801103a:	e0c5      	b.n	80111c8 <_svfiprintf_r+0x1bc>
 801103c:	2340      	movs	r3, #64	; 0x40
 801103e:	616b      	str	r3, [r5, #20]
 8011040:	2300      	movs	r3, #0
 8011042:	9309      	str	r3, [sp, #36]	; 0x24
 8011044:	2320      	movs	r3, #32
 8011046:	f88d 3029 	strb.w	r3, [sp, #41]	; 0x29
 801104a:	2330      	movs	r3, #48	; 0x30
 801104c:	f88d 302a 	strb.w	r3, [sp, #42]	; 0x2a
 8011050:	f04f 0b01 	mov.w	fp, #1
 8011054:	4637      	mov	r7, r6
 8011056:	463c      	mov	r4, r7
 8011058:	f814 3b01 	ldrb.w	r3, [r4], #1
 801105c:	2b00      	cmp	r3, #0
 801105e:	d13c      	bne.n	80110da <_svfiprintf_r+0xce>
 8011060:	ebb7 0a06 	subs.w	sl, r7, r6
 8011064:	d00b      	beq.n	801107e <_svfiprintf_r+0x72>
 8011066:	4653      	mov	r3, sl
 8011068:	4632      	mov	r2, r6
 801106a:	4629      	mov	r1, r5
 801106c:	4640      	mov	r0, r8
 801106e:	f7ff ff71 	bl	8010f54 <__ssputs_r>
 8011072:	3001      	adds	r0, #1
 8011074:	f000 80a3 	beq.w	80111be <_svfiprintf_r+0x1b2>
 8011078:	9b09      	ldr	r3, [sp, #36]	; 0x24
 801107a:	4453      	add	r3, sl
 801107c:	9309      	str	r3, [sp, #36]	; 0x24
 801107e:	783b      	ldrb	r3, [r7, #0]
 8011080:	2b00      	cmp	r3, #0
 8011082:	f000 809c 	beq.w	80111be <_svfiprintf_r+0x1b2>
 8011086:	2300      	movs	r3, #0
 8011088:	f04f 32ff 	mov.w	r2, #4294967295
 801108c:	9304      	str	r3, [sp, #16]
 801108e:	9307      	str	r3, [sp, #28]
 8011090:	9205      	str	r2, [sp, #20]
 8011092:	9306      	str	r3, [sp, #24]
 8011094:	f88d 3053 	strb.w	r3, [sp, #83]	; 0x53
 8011098:	931a      	str	r3, [sp, #104]	; 0x68
 801109a:	2205      	movs	r2, #5
 801109c:	7821      	ldrb	r1, [r4, #0]
 801109e:	4850      	ldr	r0, [pc, #320]	; (80111e0 <_svfiprintf_r+0x1d4>)
 80110a0:	f7f7 f8a6 	bl	80081f0 <memchr>
 80110a4:	1c67      	adds	r7, r4, #1
 80110a6:	9b04      	ldr	r3, [sp, #16]
 80110a8:	b9d8      	cbnz	r0, 80110e2 <_svfiprintf_r+0xd6>
 80110aa:	06d9      	lsls	r1, r3, #27
 80110ac:	bf44      	itt	mi
 80110ae:	2220      	movmi	r2, #32
 80110b0:	f88d 2053 	strbmi.w	r2, [sp, #83]	; 0x53
 80110b4:	071a      	lsls	r2, r3, #28
 80110b6:	bf44      	itt	mi
 80110b8:	222b      	movmi	r2, #43	; 0x2b
 80110ba:	f88d 2053 	strbmi.w	r2, [sp, #83]	; 0x53
 80110be:	7822      	ldrb	r2, [r4, #0]
 80110c0:	2a2a      	cmp	r2, #42	; 0x2a
 80110c2:	d016      	beq.n	80110f2 <_svfiprintf_r+0xe6>
 80110c4:	9a07      	ldr	r2, [sp, #28]
 80110c6:	2100      	movs	r1, #0
 80110c8:	200a      	movs	r0, #10
 80110ca:	4627      	mov	r7, r4
 80110cc:	3401      	adds	r4, #1
 80110ce:	783b      	ldrb	r3, [r7, #0]
 80110d0:	3b30      	subs	r3, #48	; 0x30
 80110d2:	2b09      	cmp	r3, #9
 80110d4:	d951      	bls.n	801117a <_svfiprintf_r+0x16e>
 80110d6:	b1c9      	cbz	r1, 801110c <_svfiprintf_r+0x100>
 80110d8:	e011      	b.n	80110fe <_svfiprintf_r+0xf2>
 80110da:	2b25      	cmp	r3, #37	; 0x25
 80110dc:	d0c0      	beq.n	8011060 <_svfiprintf_r+0x54>
 80110de:	4627      	mov	r7, r4
 80110e0:	e7b9      	b.n	8011056 <_svfiprintf_r+0x4a>
 80110e2:	4a3f      	ldr	r2, [pc, #252]	; (80111e0 <_svfiprintf_r+0x1d4>)
 80110e4:	1a80      	subs	r0, r0, r2
 80110e6:	fa0b f000 	lsl.w	r0, fp, r0
 80110ea:	4318      	orrs	r0, r3
 80110ec:	9004      	str	r0, [sp, #16]
 80110ee:	463c      	mov	r4, r7
 80110f0:	e7d3      	b.n	801109a <_svfiprintf_r+0x8e>
 80110f2:	9a03      	ldr	r2, [sp, #12]
 80110f4:	1d11      	adds	r1, r2, #4
 80110f6:	6812      	ldr	r2, [r2, #0]
 80110f8:	9103      	str	r1, [sp, #12]
 80110fa:	2a00      	cmp	r2, #0
 80110fc:	db01      	blt.n	8011102 <_svfiprintf_r+0xf6>
 80110fe:	9207      	str	r2, [sp, #28]
 8011100:	e004      	b.n	801110c <_svfiprintf_r+0x100>
 8011102:	4252      	negs	r2, r2
 8011104:	f043 0302 	orr.w	r3, r3, #2
 8011108:	9207      	str	r2, [sp, #28]
 801110a:	9304      	str	r3, [sp, #16]
 801110c:	783b      	ldrb	r3, [r7, #0]
 801110e:	2b2e      	cmp	r3, #46	; 0x2e
 8011110:	d10e      	bne.n	8011130 <_svfiprintf_r+0x124>
 8011112:	787b      	ldrb	r3, [r7, #1]
 8011114:	2b2a      	cmp	r3, #42	; 0x2a
 8011116:	f107 0101 	add.w	r1, r7, #1
 801111a:	d132      	bne.n	8011182 <_svfiprintf_r+0x176>
 801111c:	9b03      	ldr	r3, [sp, #12]
 801111e:	1d1a      	adds	r2, r3, #4
 8011120:	681b      	ldr	r3, [r3, #0]
 8011122:	9203      	str	r2, [sp, #12]
 8011124:	2b00      	cmp	r3, #0
 8011126:	bfb8      	it	lt
 8011128:	f04f 33ff 	movlt.w	r3, #4294967295
 801112c:	3702      	adds	r7, #2
 801112e:	9305      	str	r3, [sp, #20]
 8011130:	4c2c      	ldr	r4, [pc, #176]	; (80111e4 <_svfiprintf_r+0x1d8>)
 8011132:	7839      	ldrb	r1, [r7, #0]
 8011134:	2203      	movs	r2, #3
 8011136:	4620      	mov	r0, r4
 8011138:	f7f7 f85a 	bl	80081f0 <memchr>
 801113c:	b138      	cbz	r0, 801114e <_svfiprintf_r+0x142>
 801113e:	2340      	movs	r3, #64	; 0x40
 8011140:	1b00      	subs	r0, r0, r4
 8011142:	fa03 f000 	lsl.w	r0, r3, r0
 8011146:	9b04      	ldr	r3, [sp, #16]
 8011148:	4303      	orrs	r3, r0
 801114a:	9304      	str	r3, [sp, #16]
 801114c:	3701      	adds	r7, #1
 801114e:	7839      	ldrb	r1, [r7, #0]
 8011150:	4825      	ldr	r0, [pc, #148]	; (80111e8 <_svfiprintf_r+0x1dc>)
 8011152:	f88d 1028 	strb.w	r1, [sp, #40]	; 0x28
 8011156:	2206      	movs	r2, #6
 8011158:	1c7e      	adds	r6, r7, #1
 801115a:	f7f7 f849 	bl	80081f0 <memchr>
 801115e:	2800      	cmp	r0, #0
 8011160:	d035      	beq.n	80111ce <_svfiprintf_r+0x1c2>
 8011162:	4b22      	ldr	r3, [pc, #136]	; (80111ec <_svfiprintf_r+0x1e0>)
 8011164:	b9fb      	cbnz	r3, 80111a6 <_svfiprintf_r+0x19a>
 8011166:	9b03      	ldr	r3, [sp, #12]
 8011168:	3307      	adds	r3, #7
 801116a:	f023 0307 	bic.w	r3, r3, #7
 801116e:	3308      	adds	r3, #8
 8011170:	9303      	str	r3, [sp, #12]
 8011172:	9b09      	ldr	r3, [sp, #36]	; 0x24
 8011174:	444b      	add	r3, r9
 8011176:	9309      	str	r3, [sp, #36]	; 0x24
 8011178:	e76c      	b.n	8011054 <_svfiprintf_r+0x48>
 801117a:	fb00 3202 	mla	r2, r0, r2, r3
 801117e:	2101      	movs	r1, #1
 8011180:	e7a3      	b.n	80110ca <_svfiprintf_r+0xbe>
 8011182:	2300      	movs	r3, #0
 8011184:	9305      	str	r3, [sp, #20]
 8011186:	4618      	mov	r0, r3
 8011188:	240a      	movs	r4, #10
 801118a:	460f      	mov	r7, r1
 801118c:	3101      	adds	r1, #1
 801118e:	783a      	ldrb	r2, [r7, #0]
 8011190:	3a30      	subs	r2, #48	; 0x30
 8011192:	2a09      	cmp	r2, #9
 8011194:	d903      	bls.n	801119e <_svfiprintf_r+0x192>
 8011196:	2b00      	cmp	r3, #0
 8011198:	d0ca      	beq.n	8011130 <_svfiprintf_r+0x124>
 801119a:	9005      	str	r0, [sp, #20]
 801119c:	e7c8      	b.n	8011130 <_svfiprintf_r+0x124>
 801119e:	fb04 2000 	mla	r0, r4, r0, r2
 80111a2:	2301      	movs	r3, #1
 80111a4:	e7f1      	b.n	801118a <_svfiprintf_r+0x17e>
 80111a6:	ab03      	add	r3, sp, #12
 80111a8:	9300      	str	r3, [sp, #0]
 80111aa:	462a      	mov	r2, r5
 80111ac:	4b10      	ldr	r3, [pc, #64]	; (80111f0 <_svfiprintf_r+0x1e4>)
 80111ae:	a904      	add	r1, sp, #16
 80111b0:	4640      	mov	r0, r8
 80111b2:	f7fd fce3 	bl	800eb7c <_printf_float>
 80111b6:	f1b0 3fff 	cmp.w	r0, #4294967295
 80111ba:	4681      	mov	r9, r0
 80111bc:	d1d9      	bne.n	8011172 <_svfiprintf_r+0x166>
 80111be:	89ab      	ldrh	r3, [r5, #12]
 80111c0:	065b      	lsls	r3, r3, #25
 80111c2:	f53f af38 	bmi.w	8011036 <_svfiprintf_r+0x2a>
 80111c6:	9809      	ldr	r0, [sp, #36]	; 0x24
 80111c8:	b01d      	add	sp, #116	; 0x74
 80111ca:	e8bd 8ff0 	ldmia.w	sp!, {r4, r5, r6, r7, r8, r9, sl, fp, pc}
 80111ce:	ab03      	add	r3, sp, #12
 80111d0:	9300      	str	r3, [sp, #0]
 80111d2:	462a      	mov	r2, r5
 80111d4:	4b06      	ldr	r3, [pc, #24]	; (80111f0 <_svfiprintf_r+0x1e4>)
 80111d6:	a904      	add	r1, sp, #16
 80111d8:	4640      	mov	r0, r8
 80111da:	f7fd ff85 	bl	800f0e8 <_printf_i>
 80111de:	e7ea      	b.n	80111b6 <_svfiprintf_r+0x1aa>
 80111e0:	08012844 	.word	0x08012844
 80111e4:	0801284a 	.word	0x0801284a
 80111e8:	0801284e 	.word	0x0801284e
 80111ec:	0800eb7d 	.word	0x0800eb7d
 80111f0:	08010f55 	.word	0x08010f55

080111f4 <__sfputc_r>:
 80111f4:	6893      	ldr	r3, [r2, #8]
 80111f6:	3b01      	subs	r3, #1
 80111f8:	2b00      	cmp	r3, #0
 80111fa:	b410      	push	{r4}
 80111fc:	6093      	str	r3, [r2, #8]
 80111fe:	da09      	bge.n	8011214 <__sfputc_r+0x20>
 8011200:	6994      	ldr	r4, [r2, #24]
 8011202:	42a3      	cmp	r3, r4
 8011204:	db02      	blt.n	801120c <__sfputc_r+0x18>
 8011206:	b2cb      	uxtb	r3, r1
 8011208:	2b0a      	cmp	r3, #10
 801120a:	d103      	bne.n	8011214 <__sfputc_r+0x20>
 801120c:	f85d 4b04 	ldr.w	r4, [sp], #4
 8011210:	f7fe b9f8 	b.w	800f604 <__swbuf_r>
 8011214:	6813      	ldr	r3, [r2, #0]
 8011216:	1c58      	adds	r0, r3, #1
 8011218:	6010      	str	r0, [r2, #0]
 801121a:	7019      	strb	r1, [r3, #0]
 801121c:	b2c8      	uxtb	r0, r1
 801121e:	f85d 4b04 	ldr.w	r4, [sp], #4
 8011222:	4770      	bx	lr

08011224 <__sfputs_r>:
 8011224:	b5f8      	push	{r3, r4, r5, r6, r7, lr}
 8011226:	4606      	mov	r6, r0
 8011228:	460f      	mov	r7, r1
 801122a:	4614      	mov	r4, r2
 801122c:	18d5      	adds	r5, r2, r3
 801122e:	42ac      	cmp	r4, r5
 8011230:	d101      	bne.n	8011236 <__sfputs_r+0x12>
 8011232:	2000      	movs	r0, #0
 8011234:	e007      	b.n	8011246 <__sfputs_r+0x22>
 8011236:	463a      	mov	r2, r7
 8011238:	f814 1b01 	ldrb.w	r1, [r4], #1
 801123c:	4630      	mov	r0, r6
 801123e:	f7ff ffd9 	bl	80111f4 <__sfputc_r>
 8011242:	1c43      	adds	r3, r0, #1
 8011244:	d1f3      	bne.n	801122e <__sfputs_r+0xa>
 8011246:	bdf8      	pop	{r3, r4, r5, r6, r7, pc}

08011248 <_vfiprintf_r>:
 8011248:	e92d 4ff0 	stmdb	sp!, {r4, r5, r6, r7, r8, r9, sl, fp, lr}
 801124c:	b09d      	sub	sp, #116	; 0x74
 801124e:	460c      	mov	r4, r1
 8011250:	4617      	mov	r7, r2
 8011252:	9303      	str	r3, [sp, #12]
 8011254:	4606      	mov	r6, r0
 8011256:	b118      	cbz	r0, 8011260 <_vfiprintf_r+0x18>
 8011258:	6983      	ldr	r3, [r0, #24]
 801125a:	b90b      	cbnz	r3, 8011260 <_vfiprintf_r+0x18>
 801125c:	f7ff f9e0 	bl	8010620 <__sinit>
 8011260:	4b7c      	ldr	r3, [pc, #496]	; (8011454 <_vfiprintf_r+0x20c>)
 8011262:	429c      	cmp	r4, r3
 8011264:	d157      	bne.n	8011316 <_vfiprintf_r+0xce>
 8011266:	6874      	ldr	r4, [r6, #4]
 8011268:	89a3      	ldrh	r3, [r4, #12]
 801126a:	0718      	lsls	r0, r3, #28
 801126c:	d55d      	bpl.n	801132a <_vfiprintf_r+0xe2>
 801126e:	6923      	ldr	r3, [r4, #16]
 8011270:	2b00      	cmp	r3, #0
 8011272:	d05a      	beq.n	801132a <_vfiprintf_r+0xe2>
 8011274:	2300      	movs	r3, #0
 8011276:	9309      	str	r3, [sp, #36]	; 0x24
 8011278:	2320      	movs	r3, #32
 801127a:	f88d 3029 	strb.w	r3, [sp, #41]	; 0x29
 801127e:	2330      	movs	r3, #48	; 0x30
 8011280:	f88d 302a 	strb.w	r3, [sp, #42]	; 0x2a
 8011284:	f04f 0b01 	mov.w	fp, #1
 8011288:	46b8      	mov	r8, r7
 801128a:	4645      	mov	r5, r8
 801128c:	f815 3b01 	ldrb.w	r3, [r5], #1
 8011290:	2b00      	cmp	r3, #0
 8011292:	d155      	bne.n	8011340 <_vfiprintf_r+0xf8>
 8011294:	ebb8 0a07 	subs.w	sl, r8, r7
 8011298:	d00b      	beq.n	80112b2 <_vfiprintf_r+0x6a>
 801129a:	4653      	mov	r3, sl
 801129c:	463a      	mov	r2, r7
 801129e:	4621      	mov	r1, r4
 80112a0:	4630      	mov	r0, r6
 80112a2:	f7ff ffbf 	bl	8011224 <__sfputs_r>
 80112a6:	3001      	adds	r0, #1
 80112a8:	f000 80c4 	beq.w	8011434 <_vfiprintf_r+0x1ec>
 80112ac:	9b09      	ldr	r3, [sp, #36]	; 0x24
 80112ae:	4453      	add	r3, sl
 80112b0:	9309      	str	r3, [sp, #36]	; 0x24
 80112b2:	f898 3000 	ldrb.w	r3, [r8]
 80112b6:	2b00      	cmp	r3, #0
 80112b8:	f000 80bc 	beq.w	8011434 <_vfiprintf_r+0x1ec>
 80112bc:	2300      	movs	r3, #0
 80112be:	f04f 32ff 	mov.w	r2, #4294967295
 80112c2:	9304      	str	r3, [sp, #16]
 80112c4:	9307      	str	r3, [sp, #28]
 80112c6:	9205      	str	r2, [sp, #20]
 80112c8:	9306      	str	r3, [sp, #24]
 80112ca:	f88d 3053 	strb.w	r3, [sp, #83]	; 0x53
 80112ce:	931a      	str	r3, [sp, #104]	; 0x68
 80112d0:	2205      	movs	r2, #5
 80112d2:	7829      	ldrb	r1, [r5, #0]
 80112d4:	4860      	ldr	r0, [pc, #384]	; (8011458 <_vfiprintf_r+0x210>)
 80112d6:	f7f6 ff8b 	bl	80081f0 <memchr>
 80112da:	f105 0801 	add.w	r8, r5, #1
 80112de:	9b04      	ldr	r3, [sp, #16]
 80112e0:	2800      	cmp	r0, #0
 80112e2:	d131      	bne.n	8011348 <_vfiprintf_r+0x100>
 80112e4:	06d9      	lsls	r1, r3, #27
 80112e6:	bf44      	itt	mi
 80112e8:	2220      	movmi	r2, #32
 80112ea:	f88d 2053 	strbmi.w	r2, [sp, #83]	; 0x53
 80112ee:	071a      	lsls	r2, r3, #28
 80112f0:	bf44      	itt	mi
 80112f2:	222b      	movmi	r2, #43	; 0x2b
 80112f4:	f88d 2053 	strbmi.w	r2, [sp, #83]	; 0x53
 80112f8:	782a      	ldrb	r2, [r5, #0]
 80112fa:	2a2a      	cmp	r2, #42	; 0x2a
 80112fc:	d02c      	beq.n	8011358 <_vfiprintf_r+0x110>
 80112fe:	9a07      	ldr	r2, [sp, #28]
 8011300:	2100      	movs	r1, #0
 8011302:	200a      	movs	r0, #10
 8011304:	46a8      	mov	r8, r5
 8011306:	3501      	adds	r5, #1
 8011308:	f898 3000 	ldrb.w	r3, [r8]
 801130c:	3b30      	subs	r3, #48	; 0x30
 801130e:	2b09      	cmp	r3, #9
 8011310:	d96d      	bls.n	80113ee <_vfiprintf_r+0x1a6>
 8011312:	b371      	cbz	r1, 8011372 <_vfiprintf_r+0x12a>
 8011314:	e026      	b.n	8011364 <_vfiprintf_r+0x11c>
 8011316:	4b51      	ldr	r3, [pc, #324]	; (801145c <_vfiprintf_r+0x214>)
 8011318:	429c      	cmp	r4, r3
 801131a:	d101      	bne.n	8011320 <_vfiprintf_r+0xd8>
 801131c:	68b4      	ldr	r4, [r6, #8]
 801131e:	e7a3      	b.n	8011268 <_vfiprintf_r+0x20>
 8011320:	4b4f      	ldr	r3, [pc, #316]	; (8011460 <_vfiprintf_r+0x218>)
 8011322:	429c      	cmp	r4, r3
 8011324:	bf08      	it	eq
 8011326:	68f4      	ldreq	r4, [r6, #12]
 8011328:	e79e      	b.n	8011268 <_vfiprintf_r+0x20>
 801132a:	4621      	mov	r1, r4
 801132c:	4630      	mov	r0, r6
 801132e:	f7fe f9bb 	bl	800f6a8 <__swsetup_r>
 8011332:	2800      	cmp	r0, #0
 8011334:	d09e      	beq.n	8011274 <_vfiprintf_r+0x2c>
 8011336:	f04f 30ff 	mov.w	r0, #4294967295
 801133a:	b01d      	add	sp, #116	; 0x74
 801133c:	e8bd 8ff0 	ldmia.w	sp!, {r4, r5, r6, r7, r8, r9, sl, fp, pc}
 8011340:	2b25      	cmp	r3, #37	; 0x25
 8011342:	d0a7      	beq.n	8011294 <_vfiprintf_r+0x4c>
 8011344:	46a8      	mov	r8, r5
 8011346:	e7a0      	b.n	801128a <_vfiprintf_r+0x42>
 8011348:	4a43      	ldr	r2, [pc, #268]	; (8011458 <_vfiprintf_r+0x210>)
 801134a:	1a80      	subs	r0, r0, r2
 801134c:	fa0b f000 	lsl.w	r0, fp, r0
 8011350:	4318      	orrs	r0, r3
 8011352:	9004      	str	r0, [sp, #16]
 8011354:	4645      	mov	r5, r8
 8011356:	e7bb      	b.n	80112d0 <_vfiprintf_r+0x88>
 8011358:	9a03      	ldr	r2, [sp, #12]
 801135a:	1d11      	adds	r1, r2, #4
 801135c:	6812      	ldr	r2, [r2, #0]
 801135e:	9103      	str	r1, [sp, #12]
 8011360:	2a00      	cmp	r2, #0
 8011362:	db01      	blt.n	8011368 <_vfiprintf_r+0x120>
 8011364:	9207      	str	r2, [sp, #28]
 8011366:	e004      	b.n	8011372 <_vfiprintf_r+0x12a>
 8011368:	4252      	negs	r2, r2
 801136a:	f043 0302 	orr.w	r3, r3, #2
 801136e:	9207      	str	r2, [sp, #28]
 8011370:	9304      	str	r3, [sp, #16]
 8011372:	f898 3000 	ldrb.w	r3, [r8]
 8011376:	2b2e      	cmp	r3, #46	; 0x2e
 8011378:	d110      	bne.n	801139c <_vfiprintf_r+0x154>
 801137a:	f898 3001 	ldrb.w	r3, [r8, #1]
 801137e:	2b2a      	cmp	r3, #42	; 0x2a
 8011380:	f108 0101 	add.w	r1, r8, #1
 8011384:	d137      	bne.n	80113f6 <_vfiprintf_r+0x1ae>
 8011386:	9b03      	ldr	r3, [sp, #12]
 8011388:	1d1a      	adds	r2, r3, #4
 801138a:	681b      	ldr	r3, [r3, #0]
 801138c:	9203      	str	r2, [sp, #12]
 801138e:	2b00      	cmp	r3, #0
 8011390:	bfb8      	it	lt
 8011392:	f04f 33ff 	movlt.w	r3, #4294967295
 8011396:	f108 0802 	add.w	r8, r8, #2
 801139a:	9305      	str	r3, [sp, #20]
 801139c:	4d31      	ldr	r5, [pc, #196]	; (8011464 <_vfiprintf_r+0x21c>)
 801139e:	f898 1000 	ldrb.w	r1, [r8]
 80113a2:	2203      	movs	r2, #3
 80113a4:	4628      	mov	r0, r5
 80113a6:	f7f6 ff23 	bl	80081f0 <memchr>
 80113aa:	b140      	cbz	r0, 80113be <_vfiprintf_r+0x176>
 80113ac:	2340      	movs	r3, #64	; 0x40
 80113ae:	1b40      	subs	r0, r0, r5
 80113b0:	fa03 f000 	lsl.w	r0, r3, r0
 80113b4:	9b04      	ldr	r3, [sp, #16]
 80113b6:	4303      	orrs	r3, r0
 80113b8:	9304      	str	r3, [sp, #16]
 80113ba:	f108 0801 	add.w	r8, r8, #1
 80113be:	f898 1000 	ldrb.w	r1, [r8]
 80113c2:	4829      	ldr	r0, [pc, #164]	; (8011468 <_vfiprintf_r+0x220>)
 80113c4:	f88d 1028 	strb.w	r1, [sp, #40]	; 0x28
 80113c8:	2206      	movs	r2, #6
 80113ca:	f108 0701 	add.w	r7, r8, #1
 80113ce:	f7f6 ff0f 	bl	80081f0 <memchr>
 80113d2:	2800      	cmp	r0, #0
 80113d4:	d034      	beq.n	8011440 <_vfiprintf_r+0x1f8>
 80113d6:	4b25      	ldr	r3, [pc, #148]	; (801146c <_vfiprintf_r+0x224>)
 80113d8:	bb03      	cbnz	r3, 801141c <_vfiprintf_r+0x1d4>
 80113da:	9b03      	ldr	r3, [sp, #12]
 80113dc:	3307      	adds	r3, #7
 80113de:	f023 0307 	bic.w	r3, r3, #7
 80113e2:	3308      	adds	r3, #8
 80113e4:	9303      	str	r3, [sp, #12]
 80113e6:	9b09      	ldr	r3, [sp, #36]	; 0x24
 80113e8:	444b      	add	r3, r9
 80113ea:	9309      	str	r3, [sp, #36]	; 0x24
 80113ec:	e74c      	b.n	8011288 <_vfiprintf_r+0x40>
 80113ee:	fb00 3202 	mla	r2, r0, r2, r3
 80113f2:	2101      	movs	r1, #1
 80113f4:	e786      	b.n	8011304 <_vfiprintf_r+0xbc>
 80113f6:	2300      	movs	r3, #0
 80113f8:	9305      	str	r3, [sp, #20]
 80113fa:	4618      	mov	r0, r3
 80113fc:	250a      	movs	r5, #10
 80113fe:	4688      	mov	r8, r1
 8011400:	3101      	adds	r1, #1
 8011402:	f898 2000 	ldrb.w	r2, [r8]
 8011406:	3a30      	subs	r2, #48	; 0x30
 8011408:	2a09      	cmp	r2, #9
 801140a:	d903      	bls.n	8011414 <_vfiprintf_r+0x1cc>
 801140c:	2b00      	cmp	r3, #0
 801140e:	d0c5      	beq.n	801139c <_vfiprintf_r+0x154>
 8011410:	9005      	str	r0, [sp, #20]
 8011412:	e7c3      	b.n	801139c <_vfiprintf_r+0x154>
 8011414:	fb05 2000 	mla	r0, r5, r0, r2
 8011418:	2301      	movs	r3, #1
 801141a:	e7f0      	b.n	80113fe <_vfiprintf_r+0x1b6>
 801141c:	ab03      	add	r3, sp, #12
 801141e:	9300      	str	r3, [sp, #0]
 8011420:	4622      	mov	r2, r4
 8011422:	4b13      	ldr	r3, [pc, #76]	; (8011470 <_vfiprintf_r+0x228>)
 8011424:	a904      	add	r1, sp, #16
 8011426:	4630      	mov	r0, r6
 8011428:	f7fd fba8 	bl	800eb7c <_printf_float>
 801142c:	f1b0 3fff 	cmp.w	r0, #4294967295
 8011430:	4681      	mov	r9, r0
 8011432:	d1d8      	bne.n	80113e6 <_vfiprintf_r+0x19e>
 8011434:	89a3      	ldrh	r3, [r4, #12]
 8011436:	065b      	lsls	r3, r3, #25
 8011438:	f53f af7d 	bmi.w	8011336 <_vfiprintf_r+0xee>
 801143c:	9809      	ldr	r0, [sp, #36]	; 0x24
 801143e:	e77c      	b.n	801133a <_vfiprintf_r+0xf2>
 8011440:	ab03      	add	r3, sp, #12
 8011442:	9300      	str	r3, [sp, #0]
 8011444:	4622      	mov	r2, r4
 8011446:	4b0a      	ldr	r3, [pc, #40]	; (8011470 <_vfiprintf_r+0x228>)
 8011448:	a904      	add	r1, sp, #16
 801144a:	4630      	mov	r0, r6
 801144c:	f7fd fe4c 	bl	800f0e8 <_printf_i>
 8011450:	e7ec      	b.n	801142c <_vfiprintf_r+0x1e4>
 8011452:	bf00      	nop
 8011454:	08012704 	.word	0x08012704
 8011458:	08012844 	.word	0x08012844
 801145c:	08012724 	.word	0x08012724
 8011460:	080126e4 	.word	0x080126e4
 8011464:	0801284a 	.word	0x0801284a
 8011468:	0801284e 	.word	0x0801284e
 801146c:	0800eb7d 	.word	0x0800eb7d
 8011470:	08011225 	.word	0x08011225

08011474 <_sbrk_r>:
 8011474:	b538      	push	{r3, r4, r5, lr}
 8011476:	4c06      	ldr	r4, [pc, #24]	; (8011490 <_sbrk_r+0x1c>)
 8011478:	2300      	movs	r3, #0
 801147a:	4605      	mov	r5, r0
 801147c:	4608      	mov	r0, r1
 801147e:	6023      	str	r3, [r4, #0]
 8011480:	f7fd f85c 	bl	800e53c <_sbrk>
 8011484:	1c43      	adds	r3, r0, #1
 8011486:	d102      	bne.n	801148e <_sbrk_r+0x1a>
 8011488:	6823      	ldr	r3, [r4, #0]
 801148a:	b103      	cbz	r3, 801148e <_sbrk_r+0x1a>
 801148c:	602b      	str	r3, [r5, #0]
 801148e:	bd38      	pop	{r3, r4, r5, pc}
 8011490:	20007020 	.word	0x20007020

08011494 <__sread>:
 8011494:	b510      	push	{r4, lr}
 8011496:	460c      	mov	r4, r1
 8011498:	f9b1 100e 	ldrsh.w	r1, [r1, #14]
 801149c:	f000 f8e8 	bl	8011670 <_read_r>
 80114a0:	2800      	cmp	r0, #0
 80114a2:	bfab      	itete	ge
 80114a4:	6d63      	ldrge	r3, [r4, #84]	; 0x54
 80114a6:	89a3      	ldrhlt	r3, [r4, #12]
 80114a8:	181b      	addge	r3, r3, r0
 80114aa:	f423 5380 	biclt.w	r3, r3, #4096	; 0x1000
 80114ae:	bfac      	ite	ge
 80114b0:	6563      	strge	r3, [r4, #84]	; 0x54
 80114b2:	81a3      	strhlt	r3, [r4, #12]
 80114b4:	bd10      	pop	{r4, pc}

080114b6 <__swrite>:
 80114b6:	e92d 41f0 	stmdb	sp!, {r4, r5, r6, r7, r8, lr}
 80114ba:	461f      	mov	r7, r3
 80114bc:	898b      	ldrh	r3, [r1, #12]
 80114be:	05db      	lsls	r3, r3, #23
 80114c0:	4605      	mov	r5, r0
 80114c2:	460c      	mov	r4, r1
 80114c4:	4616      	mov	r6, r2
 80114c6:	d505      	bpl.n	80114d4 <__swrite+0x1e>
 80114c8:	2302      	movs	r3, #2
 80114ca:	2200      	movs	r2, #0
 80114cc:	f9b1 100e 	ldrsh.w	r1, [r1, #14]
 80114d0:	f000 f868 	bl	80115a4 <_lseek_r>
 80114d4:	89a3      	ldrh	r3, [r4, #12]
 80114d6:	f9b4 100e 	ldrsh.w	r1, [r4, #14]
 80114da:	f423 5380 	bic.w	r3, r3, #4096	; 0x1000
 80114de:	81a3      	strh	r3, [r4, #12]
 80114e0:	4632      	mov	r2, r6
 80114e2:	463b      	mov	r3, r7
 80114e4:	4628      	mov	r0, r5
 80114e6:	e8bd 41f0 	ldmia.w	sp!, {r4, r5, r6, r7, r8, lr}
 80114ea:	f000 b817 	b.w	801151c <_write_r>

080114ee <__sseek>:
 80114ee:	b510      	push	{r4, lr}
 80114f0:	460c      	mov	r4, r1
 80114f2:	f9b1 100e 	ldrsh.w	r1, [r1, #14]
 80114f6:	f000 f855 	bl	80115a4 <_lseek_r>
 80114fa:	1c43      	adds	r3, r0, #1
 80114fc:	89a3      	ldrh	r3, [r4, #12]
 80114fe:	bf15      	itete	ne
 8011500:	6560      	strne	r0, [r4, #84]	; 0x54
 8011502:	f423 5380 	biceq.w	r3, r3, #4096	; 0x1000
 8011506:	f443 5380 	orrne.w	r3, r3, #4096	; 0x1000
 801150a:	81a3      	strheq	r3, [r4, #12]
 801150c:	bf18      	it	ne
 801150e:	81a3      	strhne	r3, [r4, #12]
 8011510:	bd10      	pop	{r4, pc}

08011512 <__sclose>:
 8011512:	f9b1 100e 	ldrsh.w	r1, [r1, #14]
 8011516:	f000 b813 	b.w	8011540 <_close_r>
	...

0801151c <_write_r>:
 801151c:	b538      	push	{r3, r4, r5, lr}
 801151e:	4c07      	ldr	r4, [pc, #28]	; (801153c <_write_r+0x20>)
 8011520:	4605      	mov	r5, r0
 8011522:	4608      	mov	r0, r1
 8011524:	4611      	mov	r1, r2
 8011526:	2200      	movs	r2, #0
 8011528:	6022      	str	r2, [r4, #0]
 801152a:	461a      	mov	r2, r3
 801152c:	f7f9 fbca 	bl	800acc4 <_write>
 8011530:	1c43      	adds	r3, r0, #1
 8011532:	d102      	bne.n	801153a <_write_r+0x1e>
 8011534:	6823      	ldr	r3, [r4, #0]
 8011536:	b103      	cbz	r3, 801153a <_write_r+0x1e>
 8011538:	602b      	str	r3, [r5, #0]
 801153a:	bd38      	pop	{r3, r4, r5, pc}
 801153c:	20007020 	.word	0x20007020

08011540 <_close_r>:
 8011540:	b538      	push	{r3, r4, r5, lr}
 8011542:	4c06      	ldr	r4, [pc, #24]	; (801155c <_close_r+0x1c>)
 8011544:	2300      	movs	r3, #0
 8011546:	4605      	mov	r5, r0
 8011548:	4608      	mov	r0, r1
 801154a:	6023      	str	r3, [r4, #0]
 801154c:	f7fd f810 	bl	800e570 <_close>
 8011550:	1c43      	adds	r3, r0, #1
 8011552:	d102      	bne.n	801155a <_close_r+0x1a>
 8011554:	6823      	ldr	r3, [r4, #0]
 8011556:	b103      	cbz	r3, 801155a <_close_r+0x1a>
 8011558:	602b      	str	r3, [r5, #0]
 801155a:	bd38      	pop	{r3, r4, r5, pc}
 801155c:	20007020 	.word	0x20007020

08011560 <_fstat_r>:
 8011560:	b538      	push	{r3, r4, r5, lr}
 8011562:	4c07      	ldr	r4, [pc, #28]	; (8011580 <_fstat_r+0x20>)
 8011564:	2300      	movs	r3, #0
 8011566:	4605      	mov	r5, r0
 8011568:	4608      	mov	r0, r1
 801156a:	4611      	mov	r1, r2
 801156c:	6023      	str	r3, [r4, #0]
 801156e:	f7fd f802 	bl	800e576 <_fstat>
 8011572:	1c43      	adds	r3, r0, #1
 8011574:	d102      	bne.n	801157c <_fstat_r+0x1c>
 8011576:	6823      	ldr	r3, [r4, #0]
 8011578:	b103      	cbz	r3, 801157c <_fstat_r+0x1c>
 801157a:	602b      	str	r3, [r5, #0]
 801157c:	bd38      	pop	{r3, r4, r5, pc}
 801157e:	bf00      	nop
 8011580:	20007020 	.word	0x20007020

08011584 <_isatty_r>:
 8011584:	b538      	push	{r3, r4, r5, lr}
 8011586:	4c06      	ldr	r4, [pc, #24]	; (80115a0 <_isatty_r+0x1c>)
 8011588:	2300      	movs	r3, #0
 801158a:	4605      	mov	r5, r0
 801158c:	4608      	mov	r0, r1
 801158e:	6023      	str	r3, [r4, #0]
 8011590:	f7fc fff6 	bl	800e580 <_isatty>
 8011594:	1c43      	adds	r3, r0, #1
 8011596:	d102      	bne.n	801159e <_isatty_r+0x1a>
 8011598:	6823      	ldr	r3, [r4, #0]
 801159a:	b103      	cbz	r3, 801159e <_isatty_r+0x1a>
 801159c:	602b      	str	r3, [r5, #0]
 801159e:	bd38      	pop	{r3, r4, r5, pc}
 80115a0:	20007020 	.word	0x20007020

080115a4 <_lseek_r>:
 80115a4:	b538      	push	{r3, r4, r5, lr}
 80115a6:	4c07      	ldr	r4, [pc, #28]	; (80115c4 <_lseek_r+0x20>)
 80115a8:	4605      	mov	r5, r0
 80115aa:	4608      	mov	r0, r1
 80115ac:	4611      	mov	r1, r2
 80115ae:	2200      	movs	r2, #0
 80115b0:	6022      	str	r2, [r4, #0]
 80115b2:	461a      	mov	r2, r3
 80115b4:	f7fc ffe6 	bl	800e584 <_lseek>
 80115b8:	1c43      	adds	r3, r0, #1
 80115ba:	d102      	bne.n	80115c2 <_lseek_r+0x1e>
 80115bc:	6823      	ldr	r3, [r4, #0]
 80115be:	b103      	cbz	r3, 80115c2 <_lseek_r+0x1e>
 80115c0:	602b      	str	r3, [r5, #0]
 80115c2:	bd38      	pop	{r3, r4, r5, pc}
 80115c4:	20007020 	.word	0x20007020

080115c8 <__ascii_mbtowc>:
 80115c8:	b082      	sub	sp, #8
 80115ca:	b901      	cbnz	r1, 80115ce <__ascii_mbtowc+0x6>
 80115cc:	a901      	add	r1, sp, #4
 80115ce:	b142      	cbz	r2, 80115e2 <__ascii_mbtowc+0x1a>
 80115d0:	b14b      	cbz	r3, 80115e6 <__ascii_mbtowc+0x1e>
 80115d2:	7813      	ldrb	r3, [r2, #0]
 80115d4:	600b      	str	r3, [r1, #0]
 80115d6:	7812      	ldrb	r2, [r2, #0]
 80115d8:	1c10      	adds	r0, r2, #0
 80115da:	bf18      	it	ne
 80115dc:	2001      	movne	r0, #1
 80115de:	b002      	add	sp, #8
 80115e0:	4770      	bx	lr
 80115e2:	4610      	mov	r0, r2
 80115e4:	e7fb      	b.n	80115de <__ascii_mbtowc+0x16>
 80115e6:	f06f 0001 	mvn.w	r0, #1
 80115ea:	e7f8      	b.n	80115de <__ascii_mbtowc+0x16>

080115ec <memmove>:
 80115ec:	4288      	cmp	r0, r1
 80115ee:	b510      	push	{r4, lr}
 80115f0:	eb01 0302 	add.w	r3, r1, r2
 80115f4:	d803      	bhi.n	80115fe <memmove+0x12>
 80115f6:	1e42      	subs	r2, r0, #1
 80115f8:	4299      	cmp	r1, r3
 80115fa:	d10c      	bne.n	8011616 <memmove+0x2a>
 80115fc:	bd10      	pop	{r4, pc}
 80115fe:	4298      	cmp	r0, r3
 8011600:	d2f9      	bcs.n	80115f6 <memmove+0xa>
 8011602:	1881      	adds	r1, r0, r2
 8011604:	1ad2      	subs	r2, r2, r3
 8011606:	42d3      	cmn	r3, r2
 8011608:	d100      	bne.n	801160c <memmove+0x20>
 801160a:	bd10      	pop	{r4, pc}
 801160c:	f813 4d01 	ldrb.w	r4, [r3, #-1]!
 8011610:	f801 4d01 	strb.w	r4, [r1, #-1]!
 8011614:	e7f7      	b.n	8011606 <memmove+0x1a>
 8011616:	f811 4b01 	ldrb.w	r4, [r1], #1
 801161a:	f802 4f01 	strb.w	r4, [r2, #1]!
 801161e:	e7eb      	b.n	80115f8 <memmove+0xc>

08011620 <__malloc_lock>:
 8011620:	4770      	bx	lr

08011622 <__malloc_unlock>:
 8011622:	4770      	bx	lr

08011624 <_realloc_r>:
 8011624:	b5f8      	push	{r3, r4, r5, r6, r7, lr}
 8011626:	4607      	mov	r7, r0
 8011628:	4614      	mov	r4, r2
 801162a:	460e      	mov	r6, r1
 801162c:	b921      	cbnz	r1, 8011638 <_realloc_r+0x14>
 801162e:	4611      	mov	r1, r2
 8011630:	e8bd 40f8 	ldmia.w	sp!, {r3, r4, r5, r6, r7, lr}
 8011634:	f7ff bc30 	b.w	8010e98 <_malloc_r>
 8011638:	b922      	cbnz	r2, 8011644 <_realloc_r+0x20>
 801163a:	f7ff fbdf 	bl	8010dfc <_free_r>
 801163e:	4625      	mov	r5, r4
 8011640:	4628      	mov	r0, r5
 8011642:	bdf8      	pop	{r3, r4, r5, r6, r7, pc}
 8011644:	f000 f833 	bl	80116ae <_malloc_usable_size_r>
 8011648:	4284      	cmp	r4, r0
 801164a:	d90f      	bls.n	801166c <_realloc_r+0x48>
 801164c:	4621      	mov	r1, r4
 801164e:	4638      	mov	r0, r7
 8011650:	f7ff fc22 	bl	8010e98 <_malloc_r>
 8011654:	4605      	mov	r5, r0
 8011656:	2800      	cmp	r0, #0
 8011658:	d0f2      	beq.n	8011640 <_realloc_r+0x1c>
 801165a:	4631      	mov	r1, r6
 801165c:	4622      	mov	r2, r4
 801165e:	f7ff f8e3 	bl	8010828 <memcpy>
 8011662:	4631      	mov	r1, r6
 8011664:	4638      	mov	r0, r7
 8011666:	f7ff fbc9 	bl	8010dfc <_free_r>
 801166a:	e7e9      	b.n	8011640 <_realloc_r+0x1c>
 801166c:	4635      	mov	r5, r6
 801166e:	e7e7      	b.n	8011640 <_realloc_r+0x1c>

08011670 <_read_r>:
 8011670:	b538      	push	{r3, r4, r5, lr}
 8011672:	4c07      	ldr	r4, [pc, #28]	; (8011690 <_read_r+0x20>)
 8011674:	4605      	mov	r5, r0
 8011676:	4608      	mov	r0, r1
 8011678:	4611      	mov	r1, r2
 801167a:	2200      	movs	r2, #0
 801167c:	6022      	str	r2, [r4, #0]
 801167e:	461a      	mov	r2, r3
 8011680:	f7fc ff4d 	bl	800e51e <_read>
 8011684:	1c43      	adds	r3, r0, #1
 8011686:	d102      	bne.n	801168e <_read_r+0x1e>
 8011688:	6823      	ldr	r3, [r4, #0]
 801168a:	b103      	cbz	r3, 801168e <_read_r+0x1e>
 801168c:	602b      	str	r3, [r5, #0]
 801168e:	bd38      	pop	{r3, r4, r5, pc}
 8011690:	20007020 	.word	0x20007020

08011694 <__ascii_wctomb>:
 8011694:	b149      	cbz	r1, 80116aa <__ascii_wctomb+0x16>
 8011696:	2aff      	cmp	r2, #255	; 0xff
 8011698:	bf85      	ittet	hi
 801169a:	238a      	movhi	r3, #138	; 0x8a
 801169c:	6003      	strhi	r3, [r0, #0]
 801169e:	700a      	strbls	r2, [r1, #0]
 80116a0:	f04f 30ff 	movhi.w	r0, #4294967295
 80116a4:	bf98      	it	ls
 80116a6:	2001      	movls	r0, #1
 80116a8:	4770      	bx	lr
 80116aa:	4608      	mov	r0, r1
 80116ac:	4770      	bx	lr

080116ae <_malloc_usable_size_r>:
 80116ae:	f851 0c04 	ldr.w	r0, [r1, #-4]
 80116b2:	2800      	cmp	r0, #0
 80116b4:	f1a0 0004 	sub.w	r0, r0, #4
 80116b8:	bfbc      	itt	lt
 80116ba:	580b      	ldrlt	r3, [r1, r0]
 80116bc:	18c0      	addlt	r0, r0, r3
 80116be:	4770      	bx	lr

080116c0 <_init>:
 80116c0:	b5f8      	push	{r3, r4, r5, r6, r7, lr}
 80116c2:	bf00      	nop
 80116c4:	bcf8      	pop	{r3, r4, r5, r6, r7}
 80116c6:	bc08      	pop	{r3}
 80116c8:	469e      	mov	lr, r3
 80116ca:	4770      	bx	lr

080116cc <_fini>:
 80116cc:	b5f8      	push	{r3, r4, r5, r6, r7, lr}
 80116ce:	bf00      	nop
 80116d0:	bcf8      	pop	{r3, r4, r5, r6, r7}
 80116d2:	bc08      	pop	{r3}
 80116d4:	469e      	mov	lr, r3
 80116d6:	4770      	bx	lr
